(dp1
S'output'
p2
S"<class 'socket.timeout'> timed out"
p3
sS'layer'
p4
S'/web2pyTrunk/applications/GPIBHWS/controllers/default.py'
p5
sS'code'
p6
S'# -*- coding: utf-8 -*-\n\n#########################################################################\n## This is a samples controller\n## - index is the default action of any application\n## - user is required for authentication and authorization\n## - download is for downloading files uploaded in the db (does streaming)\n## - call exposes all registered services (none by default)\n#########################################################################\nimport time\nimport socket\nimport numpy as np\nimport scipy as sp\nimport math\nimport binascii\nimport datetime as dt\nimport pickle\nfrom time import localtime, strftime\nfrom pylab import *\n\ndef index():\n    form = SQLFORM(db.gpib,fields=[\'device\',\'run_type\', \'multiple_runs\',\'number_runs\',\'frequency_start\',\'frequency_range\',\'source_level\',\'source_offset\',\'sweep_rate\',\'calculate_sweep_rate\',\'sweep_up\',\'sweep_down\'],col3={\'frequency_start\':\'Hz\',\'frequency_range\':\'Hz\',\'source_level\':\'V\',\'source_offset\':\'V\',\'sweep_rate\':\'Hz/s\'})\n    if form.accepts(request.vars, session):\n        device = request.vars.device\n\n        if device == "Medium":\n            HOST = "172.21.7.68"\n        else:\n            HOST = "172.21.7.69"\n\n            PORT = 1234\n            NL = "\\r\\n"\n\n            SF_pre = "SF "\n            FRS_pre = "FRS "\n            SRC_pre = "SRLV "\n            SROF_pre = "DCOF "\n            V_suf = " V;" + NL\n            HZ_suf = " HZ;" + NL\n\n            sock = socket.socket(socket.AF_INET, socket.SOCK_STREAM, socket.IPPROTO_TCP)\n            sock.settimeout(0.5)\n            sock.connect((HOST,PORT))\n\n            sock.send("++mode 1" + NL)\n            sock.send("++addr 20" + NL)\n            sock.send("++auto 0" + NL)\n            sock.send("++eoi 1" + NL)\n\n            run_type = request.vars.run_type\n\n            if run_type == "PSD":\n\n                SF_in = request.vars.frequency_start\n                FRS_in = request.vars.frequency_range\n\n                SF_var = binascii.a2b_qp(SF_pre+str(SF_in)+HZ_suf)\n                FRS_var = binascii.a2b_qp(FRS_pre+str(FRS_in)+HZ_suf)\n\n                sock.send("SNGL;" + NL)\n                time.sleep(0.5)\n                sock.send("MSMD;" + NL)\n                time.sleep(0.5)\n                sock.send("LNRS;" + NL)\n                time.sleep(0.5)\n                sock.send("MDSP;" + NL)\n                time.sleep(0.5)\n                sock.send("PSP2;" + NL)\n                time.sleep(0.5)\n                sock.send("SMES;" + NL)\n                time.sleep(0.5)\n                sock.send("PSPC;" + NL)\n                time.sleep(0.5)\n                sock.send("CH2;" + NL)\n                time.sleep(0.5)\n                sock.send("FREQ;" + NL)\n                time.sleep(0.5)\n                sock.send(SF_var)\n                time.sleep(0.5)\n                sock.send(FRS_var)\n                time.sleep(0.5)\n                sock.send("CORD;" + NL)\n                time.sleep(0.5)\n                sock.send("MGDB;" + NL)\n                time.sleep(0.5)\n                sock.send("SCAL;" + NL)\n                time.sleep(0.5)\n                sock.send("A;" + NL)\n                time.sleep(0.5)\n                sock.send("YASC;" + NL)\n                time.sleep(0.5)\n                sock.send("STRT;" + NL)\n                time.sleep(1)\n                sock.send("AS?" + NL)\n                time.sleep(2)\n                sock.send("++read eoi" + NL)\n                filter_check = sock.recv(64)\n                filter_check = float(filter_check)\n                time.sleep(10)\n                while filter_check == 2.0:\n                    time.sleep(10)\n                    sock.send("AS?" + NL)\n                    time.sleep(3)\n                    sock.send("++read eoi" + NL)\n                    time.sleep(4)\n                    filter_check = sock.recv(64)\n                    time.sleep(20)\n                    sock.send("PAUS;" + NL)\n                    time.sleep(5)\n\n                # Active Data Trace Dump in ASCII\n                sock.send("DDAS;" + NL)\n                time.sleep(10)\n                sock.send("++read eoi" + NL)\n                time.sleep(10)\n                dat_headerDDAS = sock.recv(32768)\n                dat_headerDDAS = [dat_headerDDAS]\n                dat_headerDDAS = dat_headerDDAS[0].split(\'\\r\\n\')\n                headerDDAS = dat_headerDDAS[:67]\n                dat =  dat_headerDDAS[67:]\n                dat.pop()\n                for index, item in enumerate(dat):\n                    dat[index] = float(item)\n\n                # Instrument State Dump in ASCII\n                sock.send("DSAS;" + NL)\n                time.sleep(10)\n                sock.send("++read eoi" + NL)\n                time.sleep(10)\n                state_header = sock.recv(32768)\n                state_header = [state_header]\n                state_header = state_header[0].split(\'\\r\\n\')\n                state_header.pop()\n\n                # Retrieve useful information from the headers before generating plot\n                frq_span = float(state_header[80])\n                frq_strt = float(state_header[92])\n                frq_res = float(state_header[82])\n                x_cord = float(headerDDAS[11])\n\n                # Scale the data as need be (currently only scales for dB)\n                for i,n in enumerate(dat):\n                    if dat[i] == 0:\n                        n = 0;\n                    else:\n                        dat[i] = 10*math.log10(n)\n\n                # Generate Frequency values based on start frequncy, frequncy span and frequency resolution\n                x_val = np.arange(frq_strt,frq_strt+frq_span,frq_res)\n                x_val = np.append(x_val,x_val[-1]+frq_res)\n\n                # Zero check and array resize\n                try:\n                    while (dat.index(0)):\n                        zero_check = dat.index(0)\n                        dat.remove(0)\n                        x_val = np.delete(x_val,zero_check)\n                except ValueError:\n                    pass\n\n            else:\n\n                mruns = request.vars.multiple_runs\n\n                if (mruns == False):\n\n                    sock.send("STRT;" + NL)\n                    time.sleep(20)\n                    sock.send("SMSD;" + NL)\n                    time.sleep(10)\n                    sock.send("++read eoi" + NL)\n                    time.sleep(2)\n                    ms_check = sock.recv(64)\n\n                    while ms_check == \'0\\r\\n\':\n                        time.sleep(10)\n                        sock.send("SMSD;" + NL)\n                        time.sleep(10)\n                        sock.send("++read eoi" + NL)\n                        time.sleep(4)\n                        ms_check = sock.recv(64)\n                        time.sleep(1)\n\n                    # Active Data Trace Dump in ASCII\n                    sock.send("DDAS;" + NL)\n                    time.sleep(15)\n                    sock.send("++read eoi" + NL)\n                    time.sleep(15)\n                    sin_dat_header = sock.recv(131072)\n                    sin_dat_header = [sin_dat_header]\n                    sin_dat_header = sin_dat_header[0].split(\'\\r\\n\')\n                    sin_dat_header.pop()\n                    sin_header = sin_dat_header[:67]\n                    sin_dat =  sin_dat_header[67:]\n                    for index, item in enumerate(sin_dat):\n                        sin_dat[index] = float(item)\n\n                    # Create data arrays using the dumped real and imaginary pairs\n                    sin_dat = np.array(sin_dat)\n                    sin_dat.shape = 801,2\n                    sin_dat_real = sin_dat[:,0]\n                    sin_dat_imag = sin_dat[:,1]\n\n                    sin_dat_comp = []\n                    for i in range(len(sin_dat_real)):\n                        sin_dat_comp.append(complex(sin_dat_real[i],sin_dat_imag[i]))\n\n                    sin_dat_abs = []\n                    for i in range(len(sin_dat_comp)):\n                        sin_dat_abs.append(abs(sin_dat_comp[i]))\n\n\n                    # Instrument State Dump in ASCII\n                    sock.send("DSAS;" + NL)\n                    time.sleep(15)\n                    sock.send("++read eoi" + NL)\n                    time.sleep(15)\n                    sin_state = sock.recv(131072)\n                    sin_state = [sin_state]\n                    sin_state = sin_state[0].split(\'\\r\\n\')\n                    sin_state.pop()\n\n                    # Retrieve useful information from the headers before generating plot\n                    frq_strt = float(sin_state[94])\n                    frq_end = float(sin_state[95])\n                    frq_span = frq_end - frq_strt\n                    frq_res = frq_span/801\n                    x_cord = float(sin_header[11])\n                    swp_rate = float(sin_state[68])\n                    swp_time = float(sin_state[67])\n                    swp_res = float(sin_state[69])\n                    swp_intm = float(sin_state[70])\n\n                    # Generate Frequency values based on start frequncy, frequncy span and frequency resolution\n                    x_val_ss = np.arange(frq_strt,frq_strt+frq_span,frq_res)\n\n                    session.run_type = request.vars.run_type\n\n                    if run_type == "PSD":\n                        x_psd_pck = pickle.dumps(x_val)\n                        x_psd_dat = pickle.dumps(dat)\n                    else:\n                        x_pck = pickle.dumps(x_val_ss)\n                        yr_pck = pickle.dumps(sin_dat_real)\n                        ya_pck = pickle.dumps(sin_dat_abs)\n                        db.data.insert(x = x_pck,\n                                       yr = yr_pck,\n                                       ya = ya_pck)\n\n                else:\n\n                    mSF_in = request.vars.frequency_start\n                    mStep_size = request.vars.frequency_range\n                    mNumber = request.vars.number_runs\n\n                    mSF_array = []\n                    mSF_db_array = []\n\n                    while mNumber > 0:\n                        mSF_array.append(binascii.a2b_qp(SF_pre+str(mSF_in)+HZ_suf))\n                        mSF_db_array.append(int(float(mSF_in)))\n                        mSF_in = int(float(mSF_in)) + int(float(mStep_size))\n                        mNumber = int(float(mNumber)) - 1\n\n                    for n,item in enumerate(mSF_array):\n                        sock.send("FREQ;" + NL)\n                        time.sleep(0.5)\n                        sock.send(mSF_array[n])\n                        time.sleep(0.5)\n                        sock.send("STRT;" + NL)\n                        time.sleep(20)\n                        sock.send("SMSD;" + NL)\n                        time.sleep(10)\n                        sock.send("++read eoi" + NL)\n                        time.sleep(2)\n                        ms_check = sock.recv(64)\n                    \n                        while ms_check == \'0\\r\\n\':\n                            time.sleep(10)\n                            sock.send("SMSD;" + NL)\n                            time.sleep(10)\n                            sock.send("++read eoi" + NL)\n                            time.sleep(4)\n                            ms_check = sock.recv(64)\n                            time.sleep(1)\n\n                        # Active Data Trace Dump in ASCII\n                        sock.send("DDAS;" + NL)\n                        time.sleep(15)\n                        sock.send("++read eoi" + NL)\n                        time.sleep(15)\n                        sin_dat_header = sock.recv(131072)\n                        sin_dat_header = [sin_dat_header]\n                        sin_dat_header = sin_dat_header[0].split(\'\\r\\n\')\n                        sin_dat_header.pop()\n                        sin_header = sin_dat_header[:67]\n                        sin_dat =  sin_dat_header[67:]\n                        for index, item in enumerate(sin_dat):\n                            sin_dat[index] = float(item)\n\n                        # Create data arrays using the dumped real and imaginary pairs\n                        sin_dat = np.array(sin_dat)\n                        sin_dat.shape = 801,2\n                        sin_dat_real = sin_dat[:,0]\n                        sin_dat_imag = sin_dat[:,1]\n\n                        sin_dat_comp = []\n                        for i in range(len(sin_dat_real)):\n                            sin_dat_comp.append(complex(sin_dat_real[i],sin_dat_imag[i]))\n\n                        sin_dat_abs = []\n                        for i in range(len(sin_dat_comp)):\n                            sin_dat_abs.append(abs(sin_dat_comp[i]))\n\n\n                        # Instrument State Dump in ASCII\n                        sock.send("DSAS;" + NL)\n                        time.sleep(15)\n                        sock.send("++read eoi" + NL)\n                        time.sleep(15)\n                        sin_state = sock.recv(131072)\n                        sin_state = [sin_state]\n                        sin_state = sin_state[0].split(\'\\r\\n\')\n                        sin_state.pop()\n\n                        # Retrieve useful information from the headers before generating plot\n                        frq_strt = float(sin_state[94])\n                        frq_end = float(sin_state[95])\n                        frq_span = frq_end - frq_strt\n                        frq_res = frq_span/801\n                        x_cord = float(sin_header[11])\n                        swp_rate = float(sin_state[68])\n                        swp_time = float(sin_state[67])\n                        swp_res = float(sin_state[69])\n                        swp_intm = float(sin_state[70])\n\n                        # Generate Frequency values based on start frequncy, frequncy span and frequency resolution\n                        x_val_ss = np.arange(frq_strt,frq_strt+frq_span,frq_res)\n\n                        session.run_type = request.vars.run_type\n                        \n                        if run_type == "PSD":\n                            x_psd_pck = pickle.dumps(x_val)\n                            x_psd_dat = pickle.dumps(dat)\n                        else:\n                            db.results.insert(time = strftime("%Y-%m-%d %H:%M:%S", localtime()), \n    \t\t\t\t\t\t\t\t\t\tdevice = request.vars.device,\n\t\t\t\t\t\t\t\t\t\t\trun_type = request.vars.run_type,\n                                            start_frequency = mSF_db_array[n],\n                                            frequency_range = request.vars.frequency_range,\n                                            source_level = request.vars.source_level,\n                                            source_offset = request.vars.source_offset,\n                                            sweep_rate = request.vars.sweep_rate)\n                            x_pck = pickle.dumps(x_val_ss)\n                            yr_pck = pickle.dumps(sin_dat_real)\n                            ya_pck = pickle.dumps(sin_dat_abs)\n                            db.data.insert(x = x_pck,\n                                        yr = yr_pck,\n                                        ya = ya_pck)\n\n\n    elif form.errors:\n        response.flash = \'Error, please try again\'\n    else:\n        response.flash = \'Please fill in the data\'\n\n    rows = db(db.results.id==db.data.id).select(db.results.time,db.results.device,db.results.run_type,db.results.start_frequency,db.results.frequency_range,db.results.source_level,db.results.source_offset,db.results.sweep_rate,db.data.id)\n    records=SQLTABLE(rows, headers=\'labels\')\n    return dict(form=form,vars=form.vars,records=records)\n\ndef plot_data():\n    dataplot=db.data[request.args(0)] or redirect(URL(r=request,f=\'index\'))\n    x_val = dataplot.x\n    y_abs = dataplot.ya\n    y_real = dataplot.yr\n    return image_mat(x_val,y_abs,y_real)\n\ndef image_mat(x,ya,yr):\n    import sys\n    import cStringIO\n    from matplotlib.backends.backend_agg import FigureCanvasAgg as FigureCanvas\n    from matplotlib.figure import Figure\n    import matplotlib\n\n    #run_type = request.vars.run_type\n\n    #if (run_type == "PSD"):\n    #    fig=Figure()\n    #    ax=fig.add_subplot(111)\n    #    x_val = session.x_val\n    #    dat = session.dat\n    #    ax.plot(x_val,dat)\n    #    ax.set_xlabel("Hz")\n    #    ax.set_ylabel("dB")\n    #    ax.axis(\'tight\')\n    #    canvas=FigureCanvas(fig)\n    #    response.headers[\'Content-Type\']="image/png"\n    #    stream=cStringIO.StringIO()\n    #    canvas.print_png(stream)\n    #elif (run_type == "Sweep"):\n    x_val_ss = pickle.loads(x)\n    sin_dat_abs = pickle.loads(ya)\n    sin_dat_real = pickle.loads(yr)\n    fig=Figure()\n    ax=fig.add_subplot(211)\n    ax.plot(x_val_ss,sin_dat_abs)\n    ax.set_xlabel("Hz")\n    ax.set_ylabel("Mag")\n    ax.axis(\'tight\')\n    ay=fig.add_subplot(212)\n    ay.plot(x_val_ss,sin_dat_real)\n    ay.set_xlabel("Hz")\n    ay.set_ylabel("Real")\n    ay.axis(\'tight\')\n    sizer = request.function\n    if sizer == \'index\':\n        rcParams[\'figure.figsize\'] = 1.5,.75\n    else:\n        rcParams[\'figure.figsize\'] = 10,8\n    canvas=FigureCanvas(fig)\n    response.headers[\'Content-Type\']=\'image/png\'\n    stream=cStringIO.StringIO()\n    canvas.print_png(stream)\n\n    return stream.getvalue()\n\ndef plot_thumb():\n    dataplot_th=db.data[request.args(0)] or redirect(URL(r=request,f=\'index\'))\n    x_val_th = dataplot_th.x\n    y_abs_th = dataplot_th.ya\n    y_real_th = dataplot_th.yr\n    return image_mat_thumb(x_val_th,y_abs_th,y_real_th)\n\ndef image_mat_thumb(xth,yath,yrth):\n    import sys\n    import cStringIO\n    from matplotlib.backends.backend_agg import FigureCanvasAgg as FigureCanvas\n    from matplotlib.figure import Figure\n    import matplotlib\n\n    #run_type = request.vars.run_type\n\n    #if (run_type == "PSD"):\n    #    fig=Figure()\n    #    ax=fig.add_subplot(111)\n    #    x_val = session.x_val\n    #    dat = session.dat\n    #    ax.plot(x_val,dat)\n    #    ax.set_xlabel("Hz")\n    #    ax.set_ylabel("dB")\n    #    ax.axis(\'tight\')\n    #    canvas=FigureCanvas(fig)\n    #    response.headers[\'Content-Type\']="image/png"\n    #    stream=cStringIO.StringIO()\n    #    canvas.print_png(stream)\n    #elif (run_type == "Sweep"):\n    x_val_ss = pickle.loads(xth)\n    sin_dat_abs = pickle.loads(yath)\n    sin_dat_real = pickle.loads(yrth)\n    fig=Figure()\n    ax=fig.add_subplot(211)\n    ax.plot(x_val_ss,sin_dat_abs)\n    ax.set_xlabel("Hz")\n    ax.set_ylabel("Mag")\n    ax.axis(\'tight\')\n    ay=fig.add_subplot(212)\n    ay.plot(x_val_ss,sin_dat_real)\n    ay.set_xlabel("Hz")\n    ay.set_ylabel("Real")\n    ay.axis(\'tight\')\n    sizer = request.function\n    if sizer == \'index\':\n        rcParams[\'figure.figsize\'] = 1.5,.75\n    else:\n        rcParams[\'figure.figsize\'] = 10,8\n    canvas=FigureCanvas(fig)\n    response.headers[\'Content-Type\']=\'image/png\'\n    stream=cStringIO.StringIO()\n    canvas.print_png(stream)\n\n    return stream.getvalue()\n\ndef calc_sweep_time():\n    #FRS_in = request.vars.frequency_range\n    #SW_in = request.vars.sweep_rate\n\n    #frq_range = float(FRS_in)\n    #swp_rate = float(SW_in)\n\n    #swp_t = ((frq_range/swp_rate) + 90)/60\n\n    return "jQuery(\'#run_time\').html(\'%s\')" % H1(\'This run should take x minutes\').xml()\n\ndef calc_sweep_func():\n    SF_in = request.vars.frequency_start\n    FRS_in = request.vars.frequency_range\n    device = request.vars.device\n\n    if device == "Medium":\n        HOST = "172.21.7.68"\n    else:\n        HOST = "172.21.7.69"\n\n    PORT = 1234\n    NL = "\\r\\n"\n\n    SF_pre = "SF "\n    FRS_pre = "FRS "\n    HZ_suf = " HZ;" + NL\n\n    SF_var = binascii.a2b_qp(SF_pre+str(SF_in)+HZ_suf)\n    FRS_var = binascii.a2b_qp(FRS_pre+str(FRS_in)+HZ_suf)\n\n    sock = socket.socket(socket.AF_INET, socket.SOCK_STREAM, socket.IPPROTO_TCP)\n    sock.settimeout(0.5)\n    sock.connect((HOST,PORT))\n\n    sock.send("++mode 1" + NL)\n    sock.send("++addr 20" + NL)\n    sock.send("++auto 0" + NL)\n    sock.send("++eoi 1" + NL)\n\n    sock.send("AB;" + NL)\n    time.sleep(0.5)\n    sock.send("MSMD;" + NL)\n    time.sleep(0.5)\n    sock.send("SSIN;" + NL)\n    time.sleep(0.5)\n    sock.send("LNSW;" + NL)\n    time.sleep(0.5)\n    sock.send("MDSP;" + NL)\n    time.sleep(0.5)\n    sock.send("FRQR;" + NL)\n    time.sleep(0.5)\n    sock.send("SMES;" + NL)\n    time.sleep(0.5)\n    sock.send("FRSP;" + NL)\n    time.sleep(0.5)\n    sock.send("STTR;" + NL)\n    time.sleep(0.5)\n    sock.send("FREQ;" + NL)\n    time.sleep(0.5)\n    sock.send(SF_var)\n    time.sleep(0.5)\n    sock.send(FRS_var)\n    time.sleep(0.5)\n    sock.send("CORD;" + NL)\n    time.sleep(0.5)\n    sock.send("A;" + NL)\n    time.sleep(0.5)\n    sock.send("MAG;" + NL)\n    time.sleep(0.5)\n    sock.send("B;" + NL)\n    time.sleep(0.5)\n    sock.send("REAL;" + NL)\n    time.sleep(0.5)\n    sock.send("SCAL;" + NL)\n    time.sleep(0.5)\n    sock.send("AB;" + NL)\n    time.sleep(0.5)\n    sock.send("YASC;" + NL)\n    time.sleep(0.5)\n    sock.send("XASC;" + NL)\n    time.sleep(0.5)\n    sock.send("STTR;" + NL)\n    time.sleep(0.5)\n    sock.send("SWRT;" + NL)\n    time.sleep(0.5)\n    sock.send("SWRT?" + NL)\n    time.sleep(6)\n    sock.send("++read eoi" + NL)\n    swp_el = sock.recv(64)\n    swp_el = swp_el.split(\'\\r\\n\')[0]\n\n    return "jQuery(\'#gpib_sweep_rate\').val(%s);" % repr(swp_el)\n\ndef sweep_up_func():\n\n    FRS_in = request.vars.frequency_range\n    device = request.vars.device\n\n    if device == "Medium":\n        HOST = "172.21.7.68"\n    else:\n        HOST = "172.21.7.69"\n\n    PORT = 1234\n    NL = "\\r\\n"\n\n    sock = socket.socket(socket.AF_INET, socket.SOCK_STREAM, socket.IPPROTO_TCP)\n    sock.settimeout(0.5)\n    sock.connect((HOST,PORT))\n\n    sock.send("SWRT;" + NL)\n    time.sleep(0.5)\n    sock.send("UP;" + NL)\n    time.sleep(0.5)\n    sock.send("SWRT?" + NL)\n    time.sleep(6)\n    sock.send("++read eoi" + NL)\n    swp_el_up = sock.recv(64)\n    swp_el_up = swp_el_up.split(\'\\r\\n\')[0]\n\n    return "jQuery(\'#gpib_sweep_rate\').val(%s);" % repr(swp_el_up)\n\ndef sweep_down_func():\n\n    FRS_in = request.vars.frequency_range\n    device = request.vars.device\n\n    if device == "Medium":\n        HOST = "172.21.7.68"\n    else:\n        HOST = "172.21.7.69"\n\n    PORT = 1234\n    NL = "\\r\\n"\n\n    sock = socket.socket(socket.AF_INET, socket.SOCK_STREAM, socket.IPPROTO_TCP)\n    sock.settimeout(0.5)\n    sock.connect((HOST,PORT))\n\n    sock.send("SWRT;" + NL)\n    time.sleep(0.5)\n    sock.send("DOWN;" + NL)\n    time.sleep(0.5)\n    sock.send("SWRT?" + NL)\n    time.sleep(6)\n    sock.send("++read eoi" + NL)\n    swp_el_down = sock.recv(64)\n    swp_el_down = swp_el_down.split(\'\\r\\n\')[0]\n\n    return "jQuery(\'#gpib_sweep_rate\').val(%s);" % repr(swp_el_down)\n\ndef user():\n    """\n    exposes:\n    http://..../[app]/default/user/login\n    http://..../[app]/default/user/logout\n    http://..../[app]/default/user/register\n    http://..../[app]/default/user/profile\n    http://..../[app]/default/user/retrieve_password\n    http://..../[app]/default/user/change_password\n    use @auth.requires_login()\n        @auth.requires_membership(\'group name\')\n        @auth.requires_permission(\'read\',\'table name\',record_id)\n    to decorate functions that need access control\n    """\n    return dict(form=auth())\n\n\ndef download():\n    """\n    allows downloading of uploaded files\n    http://..../[app]/default/download/[filename]\n    """\n    return response.download(request,db)\n\n\ndef call():\n    """\n    exposes services. for example:\n    http://..../[app]/default/call/jsonrpc\n    decorate with @services.jsonrpc the functions to expose\n    supports xml, json, xmlrpc, jsonrpc, amfrpc, rss, csv\n    """\n    session.forget()\n    return service()\n\n\n\n@auth.requires_signature()\ndef data():\n    """\n    http://..../[app]/default/data/tables\n    http://..../[app]/default/data/create/[table]\n    http://..../[app]/default/data/read/[table]/[id]\n    http://..../[app]/default/data/update/[table]/[id]\n    http://..../[app]/default/data/delete/[table]/[id]\n    http://..../[app]/default/data/select/[table]\n    http://..../[app]/default/data/search/[table]\n    but URLs must be signed, i.e. linked with\n      A(\'table\',_href=URL(\'data/tables\',user_signature=True))\n    or with the signed load operator\n      LOAD(\'default\',\'data.load\',args=\'tables\',ajax=True,user_signature=True)\n    """\n    return dict(form=crud())\n\nresponse._vars=response._caller(calc_sweep_func)\n'
p7
sS'snapshot'
p8
(dp9
S'exception'
p10
(dp11
S'__module__'
p12
S"'socket'"
p13
sS'__getslice__'
p14
S"<method-wrapper '__getslice__' of timeout object>"
p15
sS'__str__'
p16
S"<method-wrapper '__str__' of timeout object>"
p17
sS'__reduce__'
p18
S'<built-in method __reduce__ of timeout object>'
p19
sS'__dict__'
p20
S'{}'
p21
sS'__sizeof__'
p22
S'<built-in method __sizeof__ of timeout object>'
p23
sS'__weakref__'
p24
S'None'
p25
sS'__init__'
p26
S"<method-wrapper '__init__' of timeout object>"
p27
sS'__setattr__'
p28
S"<method-wrapper '__setattr__' of timeout object>"
p29
sS'__reduce_ex__'
p30
S'<built-in method __reduce_ex__ of timeout object>'
p31
sS'__new__'
p32
S'<built-in method __new__ of type object>'
p33
sS'errno'
p34
S'None'
p35
sS'__format__'
p36
S'<built-in method __format__ of timeout object>'
p37
sS'__class__'
p38
S"<class 'socket.timeout'>"
p39
sS'filename'
p40
S'None'
p41
sS'__doc__'
p42
S'None'
p43
sS'__getitem__'
p44
S"<method-wrapper '__getitem__' of timeout object>"
p45
sS'__setstate__'
p46
S'<built-in method __setstate__ of timeout object>'
p47
sS'__getattribute__'
p48
S"<method-wrapper '__getattribute__' of timeout object>"
p49
sS'args'
p50
S"('timed out',)"
p51
sS'__subclasshook__'
p52
S'<built-in method __subclasshook__ of type object>'
p53
sS'__unicode__'
p54
S'<built-in method __unicode__ of timeout object>'
p55
sS'strerror'
p56
S'None'
p57
sS'__delattr__'
p58
S"<method-wrapper '__delattr__' of timeout object>"
p59
sS'__repr__'
p60
S"<method-wrapper '__repr__' of timeout object>"
p61
sS'__hash__'
p62
S"<method-wrapper '__hash__' of timeout object>"
p63
ssS'evalue'
p64
S'timed out'
p65
sS'request'
p66
ccopy_reg
_reconstructor
p67
(cgluon.html
BEAUTIFY
p68
c__builtin__
object
p69
NtRp70
(dp71
S'attributes'
p72
(dp73
sS'components'
p74
(lp75
g67
(cgluon.html
TABLE
p76
g69
NtRp77
(dp78
g72
(dp79
S'level'
p80
I5
ssS'parent'
p81
Nsg74
(lp82
g67
(cgluon.html
TR
p83
g69
NtRp84
(dp85
g72
(dp86
sg81
g77
sg74
(lp87
g67
(cgluon.html
TD
p88
g69
NtRp89
(dp90
g72
(dp91
S'_style'
p92
S'font-weight:bold;vertical-align:top'
p93
ssg81
g84
sg74
(lp94
S'ajax'
p95
asbag67
(g88
g69
NtRp96
(dp97
g72
(dp98
S'_valign'
p99
S'top'
p100
ssg81
g84
sg74
(lp101
S':'
asbag67
(g88
g69
NtRp102
(dp103
g72
(dp104
sg81
g84
sg74
(lp105
g67
(g68
g69
NtRp106
(dp107
g72
(dp108
g80
I5
ssg81
g102
sg74
(lp109
S'True'
p110
asbasbasbag67
(g83
g69
NtRp111
(dp112
g72
(dp113
sg81
g77
sg74
(lp114
g67
(g88
g69
NtRp115
(dp116
g72
(dp117
g92
g93
ssg81
g111
sg74
(lp118
S'application'
p119
asbag67
(g88
g69
NtRp120
(dp121
g72
(dp122
g99
g100
ssg81
g111
sg74
(lp123
S':'
asbag67
(g88
g69
NtRp124
(dp125
g72
(dp126
sg81
g111
sg74
(lp127
g67
(g68
g69
NtRp128
(dp129
g72
(dp130
g80
I5
ssg81
g124
sg74
(lp131
S'GPIBHWS'
p132
asbasbasbag67
(g83
g69
NtRp133
(dp134
g72
(dp135
sg81
g77
sg74
(lp136
g67
(g88
g69
NtRp137
(dp138
g72
(dp139
g92
g93
ssg81
g133
sg74
(lp140
g50
asbag67
(g88
g69
NtRp141
(dp142
g72
(dp143
g99
g100
ssg81
g133
sg74
(lp144
S':'
asbag67
(g88
g69
NtRp145
(dp146
g72
(dp147
sg81
g133
sg74
(lp148
g67
(g68
g69
NtRp149
(dp150
g72
(dp151
g80
I5
ssg81
g145
sg74
(lp152
g67
(g76
g69
NtRp153
(dp154
g72
(dp155
g80
I4
ssg81
Nsg74
(lp156
sbasbasbasbag67
(g83
g69
NtRp157
(dp158
g72
(dp159
sg81
g77
sg74
(lp160
g67
(g88
g69
NtRp161
(dp162
g72
(dp163
g92
g93
ssg81
g157
sg74
(lp164
S'body'
p165
asbag67
(g88
g69
NtRp166
(dp167
g72
(dp168
g99
g100
ssg81
g157
sg74
(lp169
S':'
asbag67
(g88
g69
NtRp170
(dp171
g72
(dp172
sg81
g157
sg74
(lp173
g67
(g68
g69
NtRp174
(dp175
g72
(dp176
g80
I5
ssg81
g170
sg74
(lp177
S"<open file '<fdopen>', mode 'w+b' at 0x1873f0d0>"
p178
asbasbasbag67
(g83
g69
NtRp179
(dp180
g72
(dp181
sg81
g77
sg74
(lp182
g67
(g88
g69
NtRp183
(dp184
g72
(dp185
g92
g93
ssg81
g179
sg74
(lp186
S'client'
p187
asbag67
(g88
g69
NtRp188
(dp189
g72
(dp190
g99
g100
ssg81
g179
sg74
(lp191
S':'
asbag67
(g88
g69
NtRp192
(dp193
g72
(dp194
sg81
g179
sg74
(lp195
g67
(g68
g69
NtRp196
(dp197
g72
(dp198
g80
I5
ssg81
g192
sg74
(lp199
S'127.0.0.1'
p200
asbasbasbag67
(g83
g69
NtRp201
(dp202
g72
(dp203
sg81
g77
sg74
(lp204
g67
(g88
g69
NtRp205
(dp206
g72
(dp207
g92
g93
ssg81
g201
sg74
(lp208
S'controller'
p209
asbag67
(g88
g69
NtRp210
(dp211
g72
(dp212
g99
g100
ssg81
g201
sg74
(lp213
S':'
asbag67
(g88
g69
NtRp214
(dp215
g72
(dp216
sg81
g201
sg74
(lp217
g67
(g68
g69
NtRp218
(dp219
g72
(dp220
g80
I5
ssg81
g214
sg74
(lp221
S'default'
p222
asbasbasbag67
(g83
g69
NtRp223
(dp224
g72
(dp225
sg81
g77
sg74
(lp226
g67
(g88
g69
NtRp227
(dp228
g72
(dp229
g92
g93
ssg81
g223
sg74
(lp230
S'cookies'
p231
asbag67
(g88
g69
NtRp232
(dp233
g72
(dp234
g99
g100
ssg81
g223
sg74
(lp235
S':'
asbag67
(g88
g69
NtRp236
(dp237
g72
(dp238
sg81
g223
sg74
(lp239
g67
(g68
g69
NtRp240
(dp241
g72
(dp242
g80
I5
ssg81
g236
sg74
(lp243
g67
(g76
g69
NtRp244
(dp245
g72
(dp246
g80
I4
ssg81
Nsg74
(lp247
g67
(g83
g69
NtRp248
(dp249
g72
(dp250
sg81
g244
sg74
(lp251
g67
(g88
g69
NtRp252
(dp253
g72
(dp254
g92
g93
ssg81
g248
sg74
(lp255
S'session_id_admin'
p256
asbag67
(g88
g69
NtRp257
(dp258
g72
(dp259
g99
g100
ssg81
g248
sg74
(lp260
S':'
asbag67
(g88
g69
NtRp261
(dp262
g72
(dp263
sg81
g248
sg74
(lp264
g67
(g68
g69
NtRp265
(dp266
g72
(dp267
g80
I4
ssg81
g261
sg74
(lp268
S'127.0.0.1-aa4f76c9-9d67-46ca-a892-d9c6fd0665fe'
p269
ag67
(g76
g69
NtRp270
(dp271
g72
(dp272
g80
I3
ssg81
Nsg74
(lp273
g67
(g83
g69
NtRp274
(dp275
g72
(dp276
sg81
g270
sg74
(lp277
g67
(g88
g69
NtRp278
(dp279
g72
(dp280
g92
g93
ssg81
g274
sg74
(lp281
S'comment'
p282
asbag67
(g88
g69
NtRp283
(dp284
g72
(dp285
g99
g100
ssg81
g274
sg74
(lp286
S':'
asbag67
(g88
g69
NtRp287
(dp288
g72
(dp289
sg81
g274
sg74
(lp290
g67
(g68
g69
NtRp291
(dp292
g72
(dp293
g80
I3
ssg81
g287
sg74
(lp294
S''
asbasbasbag67
(g83
g69
NtRp295
(dp296
g72
(dp297
sg81
g270
sg74
(lp298
g67
(g88
g69
NtRp299
(dp300
g72
(dp301
g92
g93
ssg81
g295
sg74
(lp302
S'domain'
p303
asbag67
(g88
g69
NtRp304
(dp305
g72
(dp306
g99
g100
ssg81
g295
sg74
(lp307
S':'
asbag67
(g88
g69
NtRp308
(dp309
g72
(dp310
sg81
g295
sg74
(lp311
g67
(g68
g69
NtRp312
(dp313
g72
(dp314
g80
I3
ssg81
g308
sg74
(lp315
S''
asbasbasbag67
(g83
g69
NtRp316
(dp317
g72
(dp318
sg81
g270
sg74
(lp319
g67
(g88
g69
NtRp320
(dp321
g72
(dp322
g92
g93
ssg81
g316
sg74
(lp323
S'expires'
p324
asbag67
(g88
g69
NtRp325
(dp326
g72
(dp327
g99
g100
ssg81
g316
sg74
(lp328
S':'
asbag67
(g88
g69
NtRp329
(dp330
g72
(dp331
sg81
g316
sg74
(lp332
g67
(g68
g69
NtRp333
(dp334
g72
(dp335
g80
I3
ssg81
g329
sg74
(lp336
S''
asbasbasbag67
(g83
g69
NtRp337
(dp338
g72
(dp339
sg81
g270
sg74
(lp340
g67
(g88
g69
NtRp341
(dp342
g72
(dp343
g92
g93
ssg81
g337
sg74
(lp344
S'httponly'
p345
asbag67
(g88
g69
NtRp346
(dp347
g72
(dp348
g99
g100
ssg81
g337
sg74
(lp349
S':'
asbag67
(g88
g69
NtRp350
(dp351
g72
(dp352
sg81
g337
sg74
(lp353
g67
(g68
g69
NtRp354
(dp355
g72
(dp356
g80
I3
ssg81
g350
sg74
(lp357
S''
asbasbasbag67
(g83
g69
NtRp358
(dp359
g72
(dp360
sg81
g270
sg74
(lp361
g67
(g88
g69
NtRp362
(dp363
g72
(dp364
g92
g93
ssg81
g358
sg74
(lp365
S'max-age'
p366
asbag67
(g88
g69
NtRp367
(dp368
g72
(dp369
g99
g100
ssg81
g358
sg74
(lp370
S':'
asbag67
(g88
g69
NtRp371
(dp372
g72
(dp373
sg81
g358
sg74
(lp374
g67
(g68
g69
NtRp375
(dp376
g72
(dp377
g80
I3
ssg81
g371
sg74
(lp378
S''
asbasbasbag67
(g83
g69
NtRp379
(dp380
g72
(dp381
sg81
g270
sg74
(lp382
g67
(g88
g69
NtRp383
(dp384
g72
(dp385
g92
g93
ssg81
g379
sg74
(lp386
S'path'
p387
asbag67
(g88
g69
NtRp388
(dp389
g72
(dp390
g99
g100
ssg81
g379
sg74
(lp391
S':'
asbag67
(g88
g69
NtRp392
(dp393
g72
(dp394
sg81
g379
sg74
(lp395
g67
(g68
g69
NtRp396
(dp397
g72
(dp398
g80
I3
ssg81
g392
sg74
(lp399
S''
asbasbasbag67
(g83
g69
NtRp400
(dp401
g72
(dp402
sg81
g270
sg74
(lp403
g67
(g88
g69
NtRp404
(dp405
g72
(dp406
g92
g93
ssg81
g400
sg74
(lp407
S'secure'
p408
asbag67
(g88
g69
NtRp409
(dp410
g72
(dp411
g99
g100
ssg81
g400
sg74
(lp412
S':'
asbag67
(g88
g69
NtRp413
(dp414
g72
(dp415
sg81
g400
sg74
(lp416
g67
(g68
g69
NtRp417
(dp418
g72
(dp419
g80
I3
ssg81
g413
sg74
(lp420
S''
asbasbasbag67
(g83
g69
NtRp421
(dp422
g72
(dp423
sg81
g270
sg74
(lp424
g67
(g88
g69
NtRp425
(dp426
g72
(dp427
g92
g93
ssg81
g421
sg74
(lp428
S'version'
p429
asbag67
(g88
g69
NtRp430
(dp431
g72
(dp432
g99
g100
ssg81
g421
sg74
(lp433
S':'
asbag67
(g88
g69
NtRp434
(dp435
g72
(dp436
sg81
g421
sg74
(lp437
g67
(g68
g69
NtRp438
(dp439
g72
(dp440
g80
I3
ssg81
g434
sg74
(lp441
S''
asbasbasbasbasbasbasbag67
(g83
g69
NtRp442
(dp443
g72
(dp444
sg81
g244
sg74
(lp445
g67
(g88
g69
NtRp446
(dp447
g72
(dp448
g92
g93
ssg81
g442
sg74
(lp449
S'session_id_gpib3562a'
p450
asbag67
(g88
g69
NtRp451
(dp452
g72
(dp453
g99
g100
ssg81
g442
sg74
(lp454
S':'
asbag67
(g88
g69
NtRp455
(dp456
g72
(dp457
sg81
g442
sg74
(lp458
g67
(g68
g69
NtRp459
(dp460
g72
(dp461
g80
I4
ssg81
g455
sg74
(lp462
S'127.0.0.1-d49cba14-6f33-40cd-983c-34bd052e67de'
p463
ag67
(g76
g69
NtRp464
(dp465
g72
(dp466
g80
I3
ssg81
Nsg74
(lp467
g67
(g83
g69
NtRp468
(dp469
g72
(dp470
sg81
g464
sg74
(lp471
g67
(g88
g69
NtRp472
(dp473
g72
(dp474
g92
g93
ssg81
g468
sg74
(lp475
g282
asbag67
(g88
g69
NtRp476
(dp477
g72
(dp478
g99
g100
ssg81
g468
sg74
(lp479
S':'
asbag67
(g88
g69
NtRp480
(dp481
g72
(dp482
sg81
g468
sg74
(lp483
g67
(g68
g69
NtRp484
(dp485
g72
(dp486
g80
I3
ssg81
g480
sg74
(lp487
S''
asbasbasbag67
(g83
g69
NtRp488
(dp489
g72
(dp490
sg81
g464
sg74
(lp491
g67
(g88
g69
NtRp492
(dp493
g72
(dp494
g92
g93
ssg81
g488
sg74
(lp495
g303
asbag67
(g88
g69
NtRp496
(dp497
g72
(dp498
g99
g100
ssg81
g488
sg74
(lp499
S':'
asbag67
(g88
g69
NtRp500
(dp501
g72
(dp502
sg81
g488
sg74
(lp503
g67
(g68
g69
NtRp504
(dp505
g72
(dp506
g80
I3
ssg81
g500
sg74
(lp507
S''
asbasbasbag67
(g83
g69
NtRp508
(dp509
g72
(dp510
sg81
g464
sg74
(lp511
g67
(g88
g69
NtRp512
(dp513
g72
(dp514
g92
g93
ssg81
g508
sg74
(lp515
g324
asbag67
(g88
g69
NtRp516
(dp517
g72
(dp518
g99
g100
ssg81
g508
sg74
(lp519
S':'
asbag67
(g88
g69
NtRp520
(dp521
g72
(dp522
sg81
g508
sg74
(lp523
g67
(g68
g69
NtRp524
(dp525
g72
(dp526
g80
I3
ssg81
g520
sg74
(lp527
S''
asbasbasbag67
(g83
g69
NtRp528
(dp529
g72
(dp530
sg81
g464
sg74
(lp531
g67
(g88
g69
NtRp532
(dp533
g72
(dp534
g92
g93
ssg81
g528
sg74
(lp535
g345
asbag67
(g88
g69
NtRp536
(dp537
g72
(dp538
g99
g100
ssg81
g528
sg74
(lp539
S':'
asbag67
(g88
g69
NtRp540
(dp541
g72
(dp542
sg81
g528
sg74
(lp543
g67
(g68
g69
NtRp544
(dp545
g72
(dp546
g80
I3
ssg81
g540
sg74
(lp547
S''
asbasbasbag67
(g83
g69
NtRp548
(dp549
g72
(dp550
sg81
g464
sg74
(lp551
g67
(g88
g69
NtRp552
(dp553
g72
(dp554
g92
g93
ssg81
g548
sg74
(lp555
g366
asbag67
(g88
g69
NtRp556
(dp557
g72
(dp558
g99
g100
ssg81
g548
sg74
(lp559
S':'
asbag67
(g88
g69
NtRp560
(dp561
g72
(dp562
sg81
g548
sg74
(lp563
g67
(g68
g69
NtRp564
(dp565
g72
(dp566
g80
I3
ssg81
g560
sg74
(lp567
S''
asbasbasbag67
(g83
g69
NtRp568
(dp569
g72
(dp570
sg81
g464
sg74
(lp571
g67
(g88
g69
NtRp572
(dp573
g72
(dp574
g92
g93
ssg81
g568
sg74
(lp575
g387
asbag67
(g88
g69
NtRp576
(dp577
g72
(dp578
g99
g100
ssg81
g568
sg74
(lp579
S':'
asbag67
(g88
g69
NtRp580
(dp581
g72
(dp582
sg81
g568
sg74
(lp583
g67
(g68
g69
NtRp584
(dp585
g72
(dp586
g80
I3
ssg81
g580
sg74
(lp587
S''
asbasbasbag67
(g83
g69
NtRp588
(dp589
g72
(dp590
sg81
g464
sg74
(lp591
g67
(g88
g69
NtRp592
(dp593
g72
(dp594
g92
g93
ssg81
g588
sg74
(lp595
g408
asbag67
(g88
g69
NtRp596
(dp597
g72
(dp598
g99
g100
ssg81
g588
sg74
(lp599
S':'
asbag67
(g88
g69
NtRp600
(dp601
g72
(dp602
sg81
g588
sg74
(lp603
g67
(g68
g69
NtRp604
(dp605
g72
(dp606
g80
I3
ssg81
g600
sg74
(lp607
S''
asbasbasbag67
(g83
g69
NtRp608
(dp609
g72
(dp610
sg81
g464
sg74
(lp611
g67
(g88
g69
NtRp612
(dp613
g72
(dp614
g92
g93
ssg81
g608
sg74
(lp615
g429
asbag67
(g88
g69
NtRp616
(dp617
g72
(dp618
g99
g100
ssg81
g608
sg74
(lp619
S':'
asbag67
(g88
g69
NtRp620
(dp621
g72
(dp622
sg81
g608
sg74
(lp623
g67
(g68
g69
NtRp624
(dp625
g72
(dp626
g80
I3
ssg81
g620
sg74
(lp627
S''
asbasbasbasbasbasbasbag67
(g83
g69
NtRp628
(dp629
g72
(dp630
sg81
g244
sg74
(lp631
g67
(g88
g69
NtRp632
(dp633
g72
(dp634
g92
g93
ssg81
g628
sg74
(lp635
S'session_id_gpibfinal'
p636
asbag67
(g88
g69
NtRp637
(dp638
g72
(dp639
g99
g100
ssg81
g628
sg74
(lp640
S':'
asbag67
(g88
g69
NtRp641
(dp642
g72
(dp643
sg81
g628
sg74
(lp644
g67
(g68
g69
NtRp645
(dp646
g72
(dp647
g80
I4
ssg81
g641
sg74
(lp648
S'127.0.0.1-b6082bee-e94c-4b95-a41a-f1f299c63111'
p649
ag67
(g76
g69
NtRp650
(dp651
g72
(dp652
g80
I3
ssg81
Nsg74
(lp653
g67
(g83
g69
NtRp654
(dp655
g72
(dp656
sg81
g650
sg74
(lp657
g67
(g88
g69
NtRp658
(dp659
g72
(dp660
g92
g93
ssg81
g654
sg74
(lp661
g282
asbag67
(g88
g69
NtRp662
(dp663
g72
(dp664
g99
g100
ssg81
g654
sg74
(lp665
S':'
asbag67
(g88
g69
NtRp666
(dp667
g72
(dp668
sg81
g654
sg74
(lp669
g67
(g68
g69
NtRp670
(dp671
g72
(dp672
g80
I3
ssg81
g666
sg74
(lp673
S''
asbasbasbag67
(g83
g69
NtRp674
(dp675
g72
(dp676
sg81
g650
sg74
(lp677
g67
(g88
g69
NtRp678
(dp679
g72
(dp680
g92
g93
ssg81
g674
sg74
(lp681
g303
asbag67
(g88
g69
NtRp682
(dp683
g72
(dp684
g99
g100
ssg81
g674
sg74
(lp685
S':'
asbag67
(g88
g69
NtRp686
(dp687
g72
(dp688
sg81
g674
sg74
(lp689
g67
(g68
g69
NtRp690
(dp691
g72
(dp692
g80
I3
ssg81
g686
sg74
(lp693
S''
asbasbasbag67
(g83
g69
NtRp694
(dp695
g72
(dp696
sg81
g650
sg74
(lp697
g67
(g88
g69
NtRp698
(dp699
g72
(dp700
g92
g93
ssg81
g694
sg74
(lp701
g324
asbag67
(g88
g69
NtRp702
(dp703
g72
(dp704
g99
g100
ssg81
g694
sg74
(lp705
S':'
asbag67
(g88
g69
NtRp706
(dp707
g72
(dp708
sg81
g694
sg74
(lp709
g67
(g68
g69
NtRp710
(dp711
g72
(dp712
g80
I3
ssg81
g706
sg74
(lp713
S''
asbasbasbag67
(g83
g69
NtRp714
(dp715
g72
(dp716
sg81
g650
sg74
(lp717
g67
(g88
g69
NtRp718
(dp719
g72
(dp720
g92
g93
ssg81
g714
sg74
(lp721
g345
asbag67
(g88
g69
NtRp722
(dp723
g72
(dp724
g99
g100
ssg81
g714
sg74
(lp725
S':'
asbag67
(g88
g69
NtRp726
(dp727
g72
(dp728
sg81
g714
sg74
(lp729
g67
(g68
g69
NtRp730
(dp731
g72
(dp732
g80
I3
ssg81
g726
sg74
(lp733
S''
asbasbasbag67
(g83
g69
NtRp734
(dp735
g72
(dp736
sg81
g650
sg74
(lp737
g67
(g88
g69
NtRp738
(dp739
g72
(dp740
g92
g93
ssg81
g734
sg74
(lp741
g366
asbag67
(g88
g69
NtRp742
(dp743
g72
(dp744
g99
g100
ssg81
g734
sg74
(lp745
S':'
asbag67
(g88
g69
NtRp746
(dp747
g72
(dp748
sg81
g734
sg74
(lp749
g67
(g68
g69
NtRp750
(dp751
g72
(dp752
g80
I3
ssg81
g746
sg74
(lp753
S''
asbasbasbag67
(g83
g69
NtRp754
(dp755
g72
(dp756
sg81
g650
sg74
(lp757
g67
(g88
g69
NtRp758
(dp759
g72
(dp760
g92
g93
ssg81
g754
sg74
(lp761
g387
asbag67
(g88
g69
NtRp762
(dp763
g72
(dp764
g99
g100
ssg81
g754
sg74
(lp765
S':'
asbag67
(g88
g69
NtRp766
(dp767
g72
(dp768
sg81
g754
sg74
(lp769
g67
(g68
g69
NtRp770
(dp771
g72
(dp772
g80
I3
ssg81
g766
sg74
(lp773
S''
asbasbasbag67
(g83
g69
NtRp774
(dp775
g72
(dp776
sg81
g650
sg74
(lp777
g67
(g88
g69
NtRp778
(dp779
g72
(dp780
g92
g93
ssg81
g774
sg74
(lp781
g408
asbag67
(g88
g69
NtRp782
(dp783
g72
(dp784
g99
g100
ssg81
g774
sg74
(lp785
S':'
asbag67
(g88
g69
NtRp786
(dp787
g72
(dp788
sg81
g774
sg74
(lp789
g67
(g68
g69
NtRp790
(dp791
g72
(dp792
g80
I3
ssg81
g786
sg74
(lp793
S''
asbasbasbag67
(g83
g69
NtRp794
(dp795
g72
(dp796
sg81
g650
sg74
(lp797
g67
(g88
g69
NtRp798
(dp799
g72
(dp800
g92
g93
ssg81
g794
sg74
(lp801
g429
asbag67
(g88
g69
NtRp802
(dp803
g72
(dp804
g99
g100
ssg81
g794
sg74
(lp805
S':'
asbag67
(g88
g69
NtRp806
(dp807
g72
(dp808
sg81
g794
sg74
(lp809
g67
(g68
g69
NtRp810
(dp811
g72
(dp812
g80
I3
ssg81
g806
sg74
(lp813
S''
asbasbasbasbasbasbasbag67
(g83
g69
NtRp814
(dp815
g72
(dp816
sg81
g244
sg74
(lp817
g67
(g88
g69
NtRp818
(dp819
g72
(dp820
g92
g93
ssg81
g814
sg74
(lp821
S'session_id_gpibhws'
p822
asbag67
(g88
g69
NtRp823
(dp824
g72
(dp825
g99
g100
ssg81
g814
sg74
(lp826
S':'
asbag67
(g88
g69
NtRp827
(dp828
g72
(dp829
sg81
g814
sg74
(lp830
g67
(g68
g69
NtRp831
(dp832
g72
(dp833
g80
I4
ssg81
g827
sg74
(lp834
S'127.0.0.1-6f11aa51-d759-4ec6-a0c2-b8d4140bb744'
p835
ag67
(g76
g69
NtRp836
(dp837
g72
(dp838
g80
I3
ssg81
Nsg74
(lp839
g67
(g83
g69
NtRp840
(dp841
g72
(dp842
sg81
g836
sg74
(lp843
g67
(g88
g69
NtRp844
(dp845
g72
(dp846
g92
g93
ssg81
g840
sg74
(lp847
g282
asbag67
(g88
g69
NtRp848
(dp849
g72
(dp850
g99
g100
ssg81
g840
sg74
(lp851
S':'
asbag67
(g88
g69
NtRp852
(dp853
g72
(dp854
sg81
g840
sg74
(lp855
g67
(g68
g69
NtRp856
(dp857
g72
(dp858
g80
I3
ssg81
g852
sg74
(lp859
S''
asbasbasbag67
(g83
g69
NtRp860
(dp861
g72
(dp862
sg81
g836
sg74
(lp863
g67
(g88
g69
NtRp864
(dp865
g72
(dp866
g92
g93
ssg81
g860
sg74
(lp867
g303
asbag67
(g88
g69
NtRp868
(dp869
g72
(dp870
g99
g100
ssg81
g860
sg74
(lp871
S':'
asbag67
(g88
g69
NtRp872
(dp873
g72
(dp874
sg81
g860
sg74
(lp875
g67
(g68
g69
NtRp876
(dp877
g72
(dp878
g80
I3
ssg81
g872
sg74
(lp879
S''
asbasbasbag67
(g83
g69
NtRp880
(dp881
g72
(dp882
sg81
g836
sg74
(lp883
g67
(g88
g69
NtRp884
(dp885
g72
(dp886
g92
g93
ssg81
g880
sg74
(lp887
g324
asbag67
(g88
g69
NtRp888
(dp889
g72
(dp890
g99
g100
ssg81
g880
sg74
(lp891
S':'
asbag67
(g88
g69
NtRp892
(dp893
g72
(dp894
sg81
g880
sg74
(lp895
g67
(g68
g69
NtRp896
(dp897
g72
(dp898
g80
I3
ssg81
g892
sg74
(lp899
S''
asbasbasbag67
(g83
g69
NtRp900
(dp901
g72
(dp902
sg81
g836
sg74
(lp903
g67
(g88
g69
NtRp904
(dp905
g72
(dp906
g92
g93
ssg81
g900
sg74
(lp907
g345
asbag67
(g88
g69
NtRp908
(dp909
g72
(dp910
g99
g100
ssg81
g900
sg74
(lp911
S':'
asbag67
(g88
g69
NtRp912
(dp913
g72
(dp914
sg81
g900
sg74
(lp915
g67
(g68
g69
NtRp916
(dp917
g72
(dp918
g80
I3
ssg81
g912
sg74
(lp919
S''
asbasbasbag67
(g83
g69
NtRp920
(dp921
g72
(dp922
sg81
g836
sg74
(lp923
g67
(g88
g69
NtRp924
(dp925
g72
(dp926
g92
g93
ssg81
g920
sg74
(lp927
g366
asbag67
(g88
g69
NtRp928
(dp929
g72
(dp930
g99
g100
ssg81
g920
sg74
(lp931
S':'
asbag67
(g88
g69
NtRp932
(dp933
g72
(dp934
sg81
g920
sg74
(lp935
g67
(g68
g69
NtRp936
(dp937
g72
(dp938
g80
I3
ssg81
g932
sg74
(lp939
S''
asbasbasbag67
(g83
g69
NtRp940
(dp941
g72
(dp942
sg81
g836
sg74
(lp943
g67
(g88
g69
NtRp944
(dp945
g72
(dp946
g92
g93
ssg81
g940
sg74
(lp947
g387
asbag67
(g88
g69
NtRp948
(dp949
g72
(dp950
g99
g100
ssg81
g940
sg74
(lp951
S':'
asbag67
(g88
g69
NtRp952
(dp953
g72
(dp954
sg81
g940
sg74
(lp955
g67
(g68
g69
NtRp956
(dp957
g72
(dp958
g80
I3
ssg81
g952
sg74
(lp959
S''
asbasbasbag67
(g83
g69
NtRp960
(dp961
g72
(dp962
sg81
g836
sg74
(lp963
g67
(g88
g69
NtRp964
(dp965
g72
(dp966
g92
g93
ssg81
g960
sg74
(lp967
g408
asbag67
(g88
g69
NtRp968
(dp969
g72
(dp970
g99
g100
ssg81
g960
sg74
(lp971
S':'
asbag67
(g88
g69
NtRp972
(dp973
g72
(dp974
sg81
g960
sg74
(lp975
g67
(g68
g69
NtRp976
(dp977
g72
(dp978
g80
I3
ssg81
g972
sg74
(lp979
S''
asbasbasbag67
(g83
g69
NtRp980
(dp981
g72
(dp982
sg81
g836
sg74
(lp983
g67
(g88
g69
NtRp984
(dp985
g72
(dp986
g92
g93
ssg81
g980
sg74
(lp987
g429
asbag67
(g88
g69
NtRp988
(dp989
g72
(dp990
g99
g100
ssg81
g980
sg74
(lp991
S':'
asbag67
(g88
g69
NtRp992
(dp993
g72
(dp994
sg81
g980
sg74
(lp995
g67
(g68
g69
NtRp996
(dp997
g72
(dp998
g80
I3
ssg81
g992
sg74
(lp999
S''
asbasbasbasbasbasbasbag67
(g83
g69
NtRp1000
(dp1001
g72
(dp1002
sg81
g244
sg74
(lp1003
g67
(g88
g69
NtRp1004
(dp1005
g72
(dp1006
g92
g93
ssg81
g1000
sg74
(lp1007
S'session_id_gpibtrunk'
p1008
asbag67
(g88
g69
NtRp1009
(dp1010
g72
(dp1011
g99
g100
ssg81
g1000
sg74
(lp1012
S':'
asbag67
(g88
g69
NtRp1013
(dp1014
g72
(dp1015
sg81
g1000
sg74
(lp1016
g67
(g68
g69
NtRp1017
(dp1018
g72
(dp1019
g80
I4
ssg81
g1013
sg74
(lp1020
S'127.0.0.1-33c70933-7db5-4e9b-ab7a-f4656c326e0a'
p1021
ag67
(g76
g69
NtRp1022
(dp1023
g72
(dp1024
g80
I3
ssg81
Nsg74
(lp1025
g67
(g83
g69
NtRp1026
(dp1027
g72
(dp1028
sg81
g1022
sg74
(lp1029
g67
(g88
g69
NtRp1030
(dp1031
g72
(dp1032
g92
g93
ssg81
g1026
sg74
(lp1033
g282
asbag67
(g88
g69
NtRp1034
(dp1035
g72
(dp1036
g99
g100
ssg81
g1026
sg74
(lp1037
S':'
asbag67
(g88
g69
NtRp1038
(dp1039
g72
(dp1040
sg81
g1026
sg74
(lp1041
g67
(g68
g69
NtRp1042
(dp1043
g72
(dp1044
g80
I3
ssg81
g1038
sg74
(lp1045
S''
asbasbasbag67
(g83
g69
NtRp1046
(dp1047
g72
(dp1048
sg81
g1022
sg74
(lp1049
g67
(g88
g69
NtRp1050
(dp1051
g72
(dp1052
g92
g93
ssg81
g1046
sg74
(lp1053
g303
asbag67
(g88
g69
NtRp1054
(dp1055
g72
(dp1056
g99
g100
ssg81
g1046
sg74
(lp1057
S':'
asbag67
(g88
g69
NtRp1058
(dp1059
g72
(dp1060
sg81
g1046
sg74
(lp1061
g67
(g68
g69
NtRp1062
(dp1063
g72
(dp1064
g80
I3
ssg81
g1058
sg74
(lp1065
S''
asbasbasbag67
(g83
g69
NtRp1066
(dp1067
g72
(dp1068
sg81
g1022
sg74
(lp1069
g67
(g88
g69
NtRp1070
(dp1071
g72
(dp1072
g92
g93
ssg81
g1066
sg74
(lp1073
g324
asbag67
(g88
g69
NtRp1074
(dp1075
g72
(dp1076
g99
g100
ssg81
g1066
sg74
(lp1077
S':'
asbag67
(g88
g69
NtRp1078
(dp1079
g72
(dp1080
sg81
g1066
sg74
(lp1081
g67
(g68
g69
NtRp1082
(dp1083
g72
(dp1084
g80
I3
ssg81
g1078
sg74
(lp1085
S''
asbasbasbag67
(g83
g69
NtRp1086
(dp1087
g72
(dp1088
sg81
g1022
sg74
(lp1089
g67
(g88
g69
NtRp1090
(dp1091
g72
(dp1092
g92
g93
ssg81
g1086
sg74
(lp1093
g345
asbag67
(g88
g69
NtRp1094
(dp1095
g72
(dp1096
g99
g100
ssg81
g1086
sg74
(lp1097
S':'
asbag67
(g88
g69
NtRp1098
(dp1099
g72
(dp1100
sg81
g1086
sg74
(lp1101
g67
(g68
g69
NtRp1102
(dp1103
g72
(dp1104
g80
I3
ssg81
g1098
sg74
(lp1105
S''
asbasbasbag67
(g83
g69
NtRp1106
(dp1107
g72
(dp1108
sg81
g1022
sg74
(lp1109
g67
(g88
g69
NtRp1110
(dp1111
g72
(dp1112
g92
g93
ssg81
g1106
sg74
(lp1113
g366
asbag67
(g88
g69
NtRp1114
(dp1115
g72
(dp1116
g99
g100
ssg81
g1106
sg74
(lp1117
S':'
asbag67
(g88
g69
NtRp1118
(dp1119
g72
(dp1120
sg81
g1106
sg74
(lp1121
g67
(g68
g69
NtRp1122
(dp1123
g72
(dp1124
g80
I3
ssg81
g1118
sg74
(lp1125
S''
asbasbasbag67
(g83
g69
NtRp1126
(dp1127
g72
(dp1128
sg81
g1022
sg74
(lp1129
g67
(g88
g69
NtRp1130
(dp1131
g72
(dp1132
g92
g93
ssg81
g1126
sg74
(lp1133
g387
asbag67
(g88
g69
NtRp1134
(dp1135
g72
(dp1136
g99
g100
ssg81
g1126
sg74
(lp1137
S':'
asbag67
(g88
g69
NtRp1138
(dp1139
g72
(dp1140
sg81
g1126
sg74
(lp1141
g67
(g68
g69
NtRp1142
(dp1143
g72
(dp1144
g80
I3
ssg81
g1138
sg74
(lp1145
S''
asbasbasbag67
(g83
g69
NtRp1146
(dp1147
g72
(dp1148
sg81
g1022
sg74
(lp1149
g67
(g88
g69
NtRp1150
(dp1151
g72
(dp1152
g92
g93
ssg81
g1146
sg74
(lp1153
g408
asbag67
(g88
g69
NtRp1154
(dp1155
g72
(dp1156
g99
g100
ssg81
g1146
sg74
(lp1157
S':'
asbag67
(g88
g69
NtRp1158
(dp1159
g72
(dp1160
sg81
g1146
sg74
(lp1161
g67
(g68
g69
NtRp1162
(dp1163
g72
(dp1164
g80
I3
ssg81
g1158
sg74
(lp1165
S''
asbasbasbag67
(g83
g69
NtRp1166
(dp1167
g72
(dp1168
sg81
g1022
sg74
(lp1169
g67
(g88
g69
NtRp1170
(dp1171
g72
(dp1172
g92
g93
ssg81
g1166
sg74
(lp1173
g429
asbag67
(g88
g69
NtRp1174
(dp1175
g72
(dp1176
g99
g100
ssg81
g1166
sg74
(lp1177
S':'
asbag67
(g88
g69
NtRp1178
(dp1179
g72
(dp1180
sg81
g1166
sg74
(lp1181
g67
(g68
g69
NtRp1182
(dp1183
g72
(dp1184
g80
I3
ssg81
g1178
sg74
(lp1185
S''
asbasbasbasbasbasbasbag67
(g83
g69
NtRp1186
(dp1187
g72
(dp1188
sg81
g244
sg74
(lp1189
g67
(g88
g69
NtRp1190
(dp1191
g72
(dp1192
g92
g93
ssg81
g1186
sg74
(lp1193
S'session_id_hwsgpib'
p1194
asbag67
(g88
g69
NtRp1195
(dp1196
g72
(dp1197
g99
g100
ssg81
g1186
sg74
(lp1198
S':'
asbag67
(g88
g69
NtRp1199
(dp1200
g72
(dp1201
sg81
g1186
sg74
(lp1202
g67
(g68
g69
NtRp1203
(dp1204
g72
(dp1205
g80
I4
ssg81
g1199
sg74
(lp1206
S'127.0.0.1-afa8ab56-4fed-4264-a529-a1ab8333277d'
p1207
ag67
(g76
g69
NtRp1208
(dp1209
g72
(dp1210
g80
I3
ssg81
Nsg74
(lp1211
g67
(g83
g69
NtRp1212
(dp1213
g72
(dp1214
sg81
g1208
sg74
(lp1215
g67
(g88
g69
NtRp1216
(dp1217
g72
(dp1218
g92
g93
ssg81
g1212
sg74
(lp1219
g282
asbag67
(g88
g69
NtRp1220
(dp1221
g72
(dp1222
g99
g100
ssg81
g1212
sg74
(lp1223
S':'
asbag67
(g88
g69
NtRp1224
(dp1225
g72
(dp1226
sg81
g1212
sg74
(lp1227
g67
(g68
g69
NtRp1228
(dp1229
g72
(dp1230
g80
I3
ssg81
g1224
sg74
(lp1231
S''
asbasbasbag67
(g83
g69
NtRp1232
(dp1233
g72
(dp1234
sg81
g1208
sg74
(lp1235
g67
(g88
g69
NtRp1236
(dp1237
g72
(dp1238
g92
g93
ssg81
g1232
sg74
(lp1239
g303
asbag67
(g88
g69
NtRp1240
(dp1241
g72
(dp1242
g99
g100
ssg81
g1232
sg74
(lp1243
S':'
asbag67
(g88
g69
NtRp1244
(dp1245
g72
(dp1246
sg81
g1232
sg74
(lp1247
g67
(g68
g69
NtRp1248
(dp1249
g72
(dp1250
g80
I3
ssg81
g1244
sg74
(lp1251
S''
asbasbasbag67
(g83
g69
NtRp1252
(dp1253
g72
(dp1254
sg81
g1208
sg74
(lp1255
g67
(g88
g69
NtRp1256
(dp1257
g72
(dp1258
g92
g93
ssg81
g1252
sg74
(lp1259
g324
asbag67
(g88
g69
NtRp1260
(dp1261
g72
(dp1262
g99
g100
ssg81
g1252
sg74
(lp1263
S':'
asbag67
(g88
g69
NtRp1264
(dp1265
g72
(dp1266
sg81
g1252
sg74
(lp1267
g67
(g68
g69
NtRp1268
(dp1269
g72
(dp1270
g80
I3
ssg81
g1264
sg74
(lp1271
S''
asbasbasbag67
(g83
g69
NtRp1272
(dp1273
g72
(dp1274
sg81
g1208
sg74
(lp1275
g67
(g88
g69
NtRp1276
(dp1277
g72
(dp1278
g92
g93
ssg81
g1272
sg74
(lp1279
g345
asbag67
(g88
g69
NtRp1280
(dp1281
g72
(dp1282
g99
g100
ssg81
g1272
sg74
(lp1283
S':'
asbag67
(g88
g69
NtRp1284
(dp1285
g72
(dp1286
sg81
g1272
sg74
(lp1287
g67
(g68
g69
NtRp1288
(dp1289
g72
(dp1290
g80
I3
ssg81
g1284
sg74
(lp1291
S''
asbasbasbag67
(g83
g69
NtRp1292
(dp1293
g72
(dp1294
sg81
g1208
sg74
(lp1295
g67
(g88
g69
NtRp1296
(dp1297
g72
(dp1298
g92
g93
ssg81
g1292
sg74
(lp1299
g366
asbag67
(g88
g69
NtRp1300
(dp1301
g72
(dp1302
g99
g100
ssg81
g1292
sg74
(lp1303
S':'
asbag67
(g88
g69
NtRp1304
(dp1305
g72
(dp1306
sg81
g1292
sg74
(lp1307
g67
(g68
g69
NtRp1308
(dp1309
g72
(dp1310
g80
I3
ssg81
g1304
sg74
(lp1311
S''
asbasbasbag67
(g83
g69
NtRp1312
(dp1313
g72
(dp1314
sg81
g1208
sg74
(lp1315
g67
(g88
g69
NtRp1316
(dp1317
g72
(dp1318
g92
g93
ssg81
g1312
sg74
(lp1319
g387
asbag67
(g88
g69
NtRp1320
(dp1321
g72
(dp1322
g99
g100
ssg81
g1312
sg74
(lp1323
S':'
asbag67
(g88
g69
NtRp1324
(dp1325
g72
(dp1326
sg81
g1312
sg74
(lp1327
g67
(g68
g69
NtRp1328
(dp1329
g72
(dp1330
g80
I3
ssg81
g1324
sg74
(lp1331
S''
asbasbasbag67
(g83
g69
NtRp1332
(dp1333
g72
(dp1334
sg81
g1208
sg74
(lp1335
g67
(g88
g69
NtRp1336
(dp1337
g72
(dp1338
g92
g93
ssg81
g1332
sg74
(lp1339
g408
asbag67
(g88
g69
NtRp1340
(dp1341
g72
(dp1342
g99
g100
ssg81
g1332
sg74
(lp1343
S':'
asbag67
(g88
g69
NtRp1344
(dp1345
g72
(dp1346
sg81
g1332
sg74
(lp1347
g67
(g68
g69
NtRp1348
(dp1349
g72
(dp1350
g80
I3
ssg81
g1344
sg74
(lp1351
S''
asbasbasbag67
(g83
g69
NtRp1352
(dp1353
g72
(dp1354
sg81
g1208
sg74
(lp1355
g67
(g88
g69
NtRp1356
(dp1357
g72
(dp1358
g92
g93
ssg81
g1352
sg74
(lp1359
g429
asbag67
(g88
g69
NtRp1360
(dp1361
g72
(dp1362
g99
g100
ssg81
g1352
sg74
(lp1363
S':'
asbag67
(g88
g69
NtRp1364
(dp1365
g72
(dp1366
sg81
g1352
sg74
(lp1367
g67
(g68
g69
NtRp1368
(dp1369
g72
(dp1370
g80
I3
ssg81
g1364
sg74
(lp1371
S''
asbasbasbasbasbasbasbag67
(g83
g69
NtRp1372
(dp1373
g72
(dp1374
sg81
g244
sg74
(lp1375
g67
(g88
g69
NtRp1376
(dp1377
g72
(dp1378
g92
g93
ssg81
g1372
sg74
(lp1379
S'session_id_welcome'
p1380
asbag67
(g88
g69
NtRp1381
(dp1382
g72
(dp1383
g99
g100
ssg81
g1372
sg74
(lp1384
S':'
asbag67
(g88
g69
NtRp1385
(dp1386
g72
(dp1387
sg81
g1372
sg74
(lp1388
g67
(g68
g69
NtRp1389
(dp1390
g72
(dp1391
g80
I4
ssg81
g1385
sg74
(lp1392
S'127.0.0.1-5bd988bf-ef0d-4236-8631-f2014dc6917d'
p1393
ag67
(g76
g69
NtRp1394
(dp1395
g72
(dp1396
g80
I3
ssg81
Nsg74
(lp1397
g67
(g83
g69
NtRp1398
(dp1399
g72
(dp1400
sg81
g1394
sg74
(lp1401
g67
(g88
g69
NtRp1402
(dp1403
g72
(dp1404
g92
g93
ssg81
g1398
sg74
(lp1405
g282
asbag67
(g88
g69
NtRp1406
(dp1407
g72
(dp1408
g99
g100
ssg81
g1398
sg74
(lp1409
S':'
asbag67
(g88
g69
NtRp1410
(dp1411
g72
(dp1412
sg81
g1398
sg74
(lp1413
g67
(g68
g69
NtRp1414
(dp1415
g72
(dp1416
g80
I3
ssg81
g1410
sg74
(lp1417
S''
asbasbasbag67
(g83
g69
NtRp1418
(dp1419
g72
(dp1420
sg81
g1394
sg74
(lp1421
g67
(g88
g69
NtRp1422
(dp1423
g72
(dp1424
g92
g93
ssg81
g1418
sg74
(lp1425
g303
asbag67
(g88
g69
NtRp1426
(dp1427
g72
(dp1428
g99
g100
ssg81
g1418
sg74
(lp1429
S':'
asbag67
(g88
g69
NtRp1430
(dp1431
g72
(dp1432
sg81
g1418
sg74
(lp1433
g67
(g68
g69
NtRp1434
(dp1435
g72
(dp1436
g80
I3
ssg81
g1430
sg74
(lp1437
S''
asbasbasbag67
(g83
g69
NtRp1438
(dp1439
g72
(dp1440
sg81
g1394
sg74
(lp1441
g67
(g88
g69
NtRp1442
(dp1443
g72
(dp1444
g92
g93
ssg81
g1438
sg74
(lp1445
g324
asbag67
(g88
g69
NtRp1446
(dp1447
g72
(dp1448
g99
g100
ssg81
g1438
sg74
(lp1449
S':'
asbag67
(g88
g69
NtRp1450
(dp1451
g72
(dp1452
sg81
g1438
sg74
(lp1453
g67
(g68
g69
NtRp1454
(dp1455
g72
(dp1456
g80
I3
ssg81
g1450
sg74
(lp1457
S''
asbasbasbag67
(g83
g69
NtRp1458
(dp1459
g72
(dp1460
sg81
g1394
sg74
(lp1461
g67
(g88
g69
NtRp1462
(dp1463
g72
(dp1464
g92
g93
ssg81
g1458
sg74
(lp1465
g345
asbag67
(g88
g69
NtRp1466
(dp1467
g72
(dp1468
g99
g100
ssg81
g1458
sg74
(lp1469
S':'
asbag67
(g88
g69
NtRp1470
(dp1471
g72
(dp1472
sg81
g1458
sg74
(lp1473
g67
(g68
g69
NtRp1474
(dp1475
g72
(dp1476
g80
I3
ssg81
g1470
sg74
(lp1477
S''
asbasbasbag67
(g83
g69
NtRp1478
(dp1479
g72
(dp1480
sg81
g1394
sg74
(lp1481
g67
(g88
g69
NtRp1482
(dp1483
g72
(dp1484
g92
g93
ssg81
g1478
sg74
(lp1485
g366
asbag67
(g88
g69
NtRp1486
(dp1487
g72
(dp1488
g99
g100
ssg81
g1478
sg74
(lp1489
S':'
asbag67
(g88
g69
NtRp1490
(dp1491
g72
(dp1492
sg81
g1478
sg74
(lp1493
g67
(g68
g69
NtRp1494
(dp1495
g72
(dp1496
g80
I3
ssg81
g1490
sg74
(lp1497
S''
asbasbasbag67
(g83
g69
NtRp1498
(dp1499
g72
(dp1500
sg81
g1394
sg74
(lp1501
g67
(g88
g69
NtRp1502
(dp1503
g72
(dp1504
g92
g93
ssg81
g1498
sg74
(lp1505
g387
asbag67
(g88
g69
NtRp1506
(dp1507
g72
(dp1508
g99
g100
ssg81
g1498
sg74
(lp1509
S':'
asbag67
(g88
g69
NtRp1510
(dp1511
g72
(dp1512
sg81
g1498
sg74
(lp1513
g67
(g68
g69
NtRp1514
(dp1515
g72
(dp1516
g80
I3
ssg81
g1510
sg74
(lp1517
S''
asbasbasbag67
(g83
g69
NtRp1518
(dp1519
g72
(dp1520
sg81
g1394
sg74
(lp1521
g67
(g88
g69
NtRp1522
(dp1523
g72
(dp1524
g92
g93
ssg81
g1518
sg74
(lp1525
g408
asbag67
(g88
g69
NtRp1526
(dp1527
g72
(dp1528
g99
g100
ssg81
g1518
sg74
(lp1529
S':'
asbag67
(g88
g69
NtRp1530
(dp1531
g72
(dp1532
sg81
g1518
sg74
(lp1533
g67
(g68
g69
NtRp1534
(dp1535
g72
(dp1536
g80
I3
ssg81
g1530
sg74
(lp1537
S''
asbasbasbag67
(g83
g69
NtRp1538
(dp1539
g72
(dp1540
sg81
g1394
sg74
(lp1541
g67
(g88
g69
NtRp1542
(dp1543
g72
(dp1544
g92
g93
ssg81
g1538
sg74
(lp1545
g429
asbag67
(g88
g69
NtRp1546
(dp1547
g72
(dp1548
g99
g100
ssg81
g1538
sg74
(lp1549
S':'
asbag67
(g88
g69
NtRp1550
(dp1551
g72
(dp1552
sg81
g1538
sg74
(lp1553
g67
(g68
g69
NtRp1554
(dp1555
g72
(dp1556
g80
I3
ssg81
g1550
sg74
(lp1557
S''
asbasbasbasbasbasbasbasbasbasbasbag67
(g83
g69
NtRp1558
(dp1559
g72
(dp1560
sg81
g77
sg74
(lp1561
g67
(g88
g69
NtRp1562
(dp1563
g72
(dp1564
g92
g93
ssg81
g1558
sg74
(lp1565
S'env'
p1566
asbag67
(g88
g69
NtRp1567
(dp1568
g72
(dp1569
g99
g100
ssg81
g1558
sg74
(lp1570
S':'
asbag67
(g88
g69
NtRp1571
(dp1572
g72
(dp1573
sg81
g1558
sg74
(lp1574
g67
(g68
g69
NtRp1575
(dp1576
g72
(dp1577
g80
I5
ssg81
g1571
sg74
(lp1578
g67
(g76
g69
NtRp1579
(dp1580
g72
(dp1581
g80
I4
ssg81
Nsg74
(lp1582
g67
(g83
g69
NtRp1583
(dp1584
g72
(dp1585
sg81
g1579
sg74
(lp1586
g67
(g88
g69
NtRp1587
(dp1588
g72
(dp1589
g92
g93
ssg81
g1583
sg74
(lp1590
S'app_folders'
p1591
asbag67
(g88
g69
NtRp1592
(dp1593
g72
(dp1594
g99
g100
ssg81
g1583
sg74
(lp1595
S':'
asbag67
(g88
g69
NtRp1596
(dp1597
g72
(dp1598
sg81
g1583
sg74
(lp1599
g67
(g68
g69
NtRp1600
(dp1601
g72
(dp1602
g80
I4
ssg81
g1596
sg74
(lp1603
S"set(['/web2pyTrunk/applications/GPIBHWS/', '/web2pyTrunk/applications/HWSGPIB/', '/web2pyTrunk/applications/welcome/', '/web2pyTrunk/applications/admin/', '/web2pyTrunk/applications/GPIBFinal/'])"
p1604
asbasbasbag67
(g83
g69
NtRp1605
(dp1606
g72
(dp1607
sg81
g1579
sg74
(lp1608
g67
(g88
g69
NtRp1609
(dp1610
g72
(dp1611
g92
g93
ssg81
g1605
sg74
(lp1612
S'applications_parent'
p1613
asbag67
(g88
g69
NtRp1614
(dp1615
g72
(dp1616
g99
g100
ssg81
g1605
sg74
(lp1617
S':'
asbag67
(g88
g69
NtRp1618
(dp1619
g72
(dp1620
sg81
g1605
sg74
(lp1621
g67
(g68
g69
NtRp1622
(dp1623
g72
(dp1624
g80
I4
ssg81
g1618
sg74
(lp1625
S'/web2pyTrunk'
p1626
asbasbasbag67
(g83
g69
NtRp1627
(dp1628
g72
(dp1629
sg81
g1579
sg74
(lp1630
g67
(g88
g69
NtRp1631
(dp1632
g72
(dp1633
g92
g93
ssg81
g1627
sg74
(lp1634
S'cmd_args'
p1635
asbag67
(g88
g69
NtRp1636
(dp1637
g72
(dp1638
g99
g100
ssg81
g1627
sg74
(lp1639
S':'
asbag67
(g88
g69
NtRp1640
(dp1641
g72
(dp1642
sg81
g1627
sg74
(lp1643
g67
(g68
g69
NtRp1644
(dp1645
g72
(dp1646
g80
I4
ssg81
g1640
sg74
(lp1647
g67
(g76
g69
NtRp1648
(dp1649
g72
(dp1650
g80
I3
ssg81
Nsg74
(lp1651
sbasbasbasbag67
(g83
g69
NtRp1652
(dp1653
g72
(dp1654
sg81
g1579
sg74
(lp1655
g67
(g88
g69
NtRp1656
(dp1657
g72
(dp1658
g92
g93
ssg81
g1652
sg74
(lp1659
S'cmd_options'
p1660
asbag67
(g88
g69
NtRp1661
(dp1662
g72
(dp1663
g99
g100
ssg81
g1652
sg74
(lp1664
S':'
asbag67
(g88
g69
NtRp1665
(dp1666
g72
(dp1667
sg81
g1652
sg74
(lp1668
g67
(g68
g69
NtRp1669
(dp1670
g72
(dp1671
g80
I4
ssg81
g1665
sg74
(lp1672
S"<Values at 0x18c4990: {'verbose': False, 'ip': '127.0.0.1', 'shutdown_timeout': 5, 'taskbar': False, 'nocron': False, 'pid_filename': 'httpserver.pid', 'maxthreads': None, 'softcron': False, 'server_name': 'frost.gravity.hws.edu', 'bpython': False, 'nogui': False, 'port': 8000, 'extcron': False, 'run_system_tests': False, 'test': None, 'folder': '/web2pyTrunk', 'config': '', 'import_models': False, 'winservice': '', 'shell': None, 'run': '', 'log_filename': 'httpserver.log', 'debuglevel': 30, 'args': [''], 'socket_timeout': 5, 'ssl_ca_certificate': None, 'scheduler': None, 'profiler_filename': None, 'ssl_private_key': '', 'password': '<ask>', 'request_queue_size': 5, 'ssl_certificate': '', 'cronjob': False, 'numthreads': None, 'quiet': False, 'interfaces': None, 'minthreads': None, 'timeout': 10, 'plain': False, 'nobanner': False}>"
p1673
asbasbasbag67
(g83
g69
NtRp1674
(dp1675
g72
(dp1676
sg81
g1579
sg74
(lp1677
g67
(g88
g69
NtRp1678
(dp1679
g72
(dp1680
g92
g93
ssg81
g1674
sg74
(lp1681
S'content_length'
p1682
asbag67
(g88
g69
NtRp1683
(dp1684
g72
(dp1685
g99
g100
ssg81
g1674
sg74
(lp1686
S':'
asbag67
(g88
g69
NtRp1687
(dp1688
g72
(dp1689
sg81
g1674
sg74
(lp1690
g67
(g68
g69
NtRp1691
(dp1692
g72
(dp1693
g80
I4
ssg81
g1687
sg74
(lp1694
S'51'
p1695
asbasbasbag67
(g83
g69
NtRp1696
(dp1697
g72
(dp1698
sg81
g1579
sg74
(lp1699
g67
(g88
g69
NtRp1700
(dp1701
g72
(dp1702
g92
g93
ssg81
g1696
sg74
(lp1703
S'content_type'
p1704
asbag67
(g88
g69
NtRp1705
(dp1706
g72
(dp1707
g99
g100
ssg81
g1696
sg74
(lp1708
S':'
asbag67
(g88
g69
NtRp1709
(dp1710
g72
(dp1711
sg81
g1696
sg74
(lp1712
g67
(g68
g69
NtRp1713
(dp1714
g72
(dp1715
g80
I4
ssg81
g1709
sg74
(lp1716
S'application/x-www-form-urlencoded; charset=UTF-8'
p1717
asbasbasbag67
(g83
g69
NtRp1718
(dp1719
g72
(dp1720
sg81
g1579
sg74
(lp1721
g67
(g88
g69
NtRp1722
(dp1723
g72
(dp1724
g92
g93
ssg81
g1718
sg74
(lp1725
S'db_sessions'
p1726
asbag67
(g88
g69
NtRp1727
(dp1728
g72
(dp1729
g99
g100
ssg81
g1718
sg74
(lp1730
S':'
asbag67
(g88
g69
NtRp1731
(dp1732
g72
(dp1733
sg81
g1718
sg74
(lp1734
g67
(g68
g69
NtRp1735
(dp1736
g72
(dp1737
g80
I4
ssg81
g1731
sg74
(lp1738
S'set([])'
p1739
asbasbasbag67
(g83
g69
NtRp1740
(dp1741
g72
(dp1742
sg81
g1579
sg74
(lp1743
g67
(g88
g69
NtRp1744
(dp1745
g72
(dp1746
g92
g93
ssg81
g1740
sg74
(lp1747
S'debugging'
p1748
asbag67
(g88
g69
NtRp1749
(dp1750
g72
(dp1751
g99
g100
ssg81
g1740
sg74
(lp1752
S':'
asbag67
(g88
g69
NtRp1753
(dp1754
g72
(dp1755
sg81
g1740
sg74
(lp1756
g67
(g68
g69
NtRp1757
(dp1758
g72
(dp1759
g80
I4
ssg81
g1753
sg74
(lp1760
S'False'
p1761
asbasbasbag67
(g83
g69
NtRp1762
(dp1763
g72
(dp1764
sg81
g1579
sg74
(lp1765
g67
(g88
g69
NtRp1766
(dp1767
g72
(dp1768
g92
g93
ssg81
g1762
sg74
(lp1769
S'gluon_parent'
p1770
asbag67
(g88
g69
NtRp1771
(dp1772
g72
(dp1773
g99
g100
ssg81
g1762
sg74
(lp1774
S':'
asbag67
(g88
g69
NtRp1775
(dp1776
g72
(dp1777
sg81
g1762
sg74
(lp1778
g67
(g68
g69
NtRp1779
(dp1780
g72
(dp1781
g80
I4
ssg81
g1775
sg74
(lp1782
S'/web2pyTrunk'
p1783
asbasbasbag67
(g83
g69
NtRp1784
(dp1785
g72
(dp1786
sg81
g1579
sg74
(lp1787
g67
(g88
g69
NtRp1788
(dp1789
g72
(dp1790
g92
g93
ssg81
g1784
sg74
(lp1791
S'http_accept'
p1792
asbag67
(g88
g69
NtRp1793
(dp1794
g72
(dp1795
g99
g100
ssg81
g1784
sg74
(lp1796
S':'
asbag67
(g88
g69
NtRp1797
(dp1798
g72
(dp1799
sg81
g1784
sg74
(lp1800
g67
(g68
g69
NtRp1801
(dp1802
g72
(dp1803
g80
I4
ssg81
g1797
sg74
(lp1804
S'*/*'
p1805
asbasbasbag67
(g83
g69
NtRp1806
(dp1807
g72
(dp1808
sg81
g1579
sg74
(lp1809
g67
(g88
g69
NtRp1810
(dp1811
g72
(dp1812
g92
g93
ssg81
g1806
sg74
(lp1813
S'http_accept_charset'
p1814
asbag67
(g88
g69
NtRp1815
(dp1816
g72
(dp1817
g99
g100
ssg81
g1806
sg74
(lp1818
S':'
asbag67
(g88
g69
NtRp1819
(dp1820
g72
(dp1821
sg81
g1806
sg74
(lp1822
g67
(g68
g69
NtRp1823
(dp1824
g72
(dp1825
g80
I4
ssg81
g1819
sg74
(lp1826
S'ISO-8859-1,utf-8;q=0.7,*;q=0.3'
p1827
asbasbasbag67
(g83
g69
NtRp1828
(dp1829
g72
(dp1830
sg81
g1579
sg74
(lp1831
g67
(g88
g69
NtRp1832
(dp1833
g72
(dp1834
g92
g93
ssg81
g1828
sg74
(lp1835
S'http_accept_encoding'
p1836
asbag67
(g88
g69
NtRp1837
(dp1838
g72
(dp1839
g99
g100
ssg81
g1828
sg74
(lp1840
S':'
asbag67
(g88
g69
NtRp1841
(dp1842
g72
(dp1843
sg81
g1828
sg74
(lp1844
g67
(g68
g69
NtRp1845
(dp1846
g72
(dp1847
g80
I4
ssg81
g1841
sg74
(lp1848
S'gzip,deflate,sdch'
p1849
asbasbasbag67
(g83
g69
NtRp1850
(dp1851
g72
(dp1852
sg81
g1579
sg74
(lp1853
g67
(g88
g69
NtRp1854
(dp1855
g72
(dp1856
g92
g93
ssg81
g1850
sg74
(lp1857
S'http_accept_language'
p1858
asbag67
(g88
g69
NtRp1859
(dp1860
g72
(dp1861
g99
g100
ssg81
g1850
sg74
(lp1862
S':'
asbag67
(g88
g69
NtRp1863
(dp1864
g72
(dp1865
sg81
g1850
sg74
(lp1866
g67
(g68
g69
NtRp1867
(dp1868
g72
(dp1869
g80
I4
ssg81
g1863
sg74
(lp1870
S'en-US,en;q=0.8'
p1871
asbasbasbag67
(g83
g69
NtRp1872
(dp1873
g72
(dp1874
sg81
g1579
sg74
(lp1875
g67
(g88
g69
NtRp1876
(dp1877
g72
(dp1878
g92
g93
ssg81
g1872
sg74
(lp1879
S'http_connection'
p1880
asbag67
(g88
g69
NtRp1881
(dp1882
g72
(dp1883
g99
g100
ssg81
g1872
sg74
(lp1884
S':'
asbag67
(g88
g69
NtRp1885
(dp1886
g72
(dp1887
sg81
g1872
sg74
(lp1888
g67
(g68
g69
NtRp1889
(dp1890
g72
(dp1891
g80
I4
ssg81
g1885
sg74
(lp1892
S'keep-alive'
p1893
asbasbasbag67
(g83
g69
NtRp1894
(dp1895
g72
(dp1896
sg81
g1579
sg74
(lp1897
g67
(g88
g69
NtRp1898
(dp1899
g72
(dp1900
g92
g93
ssg81
g1894
sg74
(lp1901
S'http_content_length'
p1902
asbag67
(g88
g69
NtRp1903
(dp1904
g72
(dp1905
g99
g100
ssg81
g1894
sg74
(lp1906
S':'
asbag67
(g88
g69
NtRp1907
(dp1908
g72
(dp1909
sg81
g1894
sg74
(lp1910
g67
(g68
g69
NtRp1911
(dp1912
g72
(dp1913
g80
I4
ssg81
g1907
sg74
(lp1914
g1695
asbasbasbag67
(g83
g69
NtRp1915
(dp1916
g72
(dp1917
sg81
g1579
sg74
(lp1918
g67
(g88
g69
NtRp1919
(dp1920
g72
(dp1921
g92
g93
ssg81
g1915
sg74
(lp1922
S'http_content_type'
p1923
asbag67
(g88
g69
NtRp1924
(dp1925
g72
(dp1926
g99
g100
ssg81
g1915
sg74
(lp1927
S':'
asbag67
(g88
g69
NtRp1928
(dp1929
g72
(dp1930
sg81
g1915
sg74
(lp1931
g67
(g68
g69
NtRp1932
(dp1933
g72
(dp1934
g80
I4
ssg81
g1928
sg74
(lp1935
g1717
asbasbasbag67
(g83
g69
NtRp1936
(dp1937
g72
(dp1938
sg81
g1579
sg74
(lp1939
g67
(g88
g69
NtRp1940
(dp1941
g72
(dp1942
g92
g93
ssg81
g1936
sg74
(lp1943
S'http_cookie'
p1944
asbag67
(g88
g69
NtRp1945
(dp1946
g72
(dp1947
g99
g100
ssg81
g1936
sg74
(lp1948
S':'
asbag67
(g88
g69
NtRp1949
(dp1950
g72
(dp1951
sg81
g1936
sg74
(lp1952
g67
(g68
g69
NtRp1953
(dp1954
g72
(dp1955
g80
I4
ssg81
g1949
sg74
(lp1956
S'session_id_gpibtrunk=127.0.0.1-33c70933-7db5-4e9b-ab7a-f4656c326e0a; session_id_gpib3562a=127.0.0.1-d49cba14-6f33-40cd-983c-34bd052e67de; session_id_welcome=127.0.0.1-5bd988bf-ef0d-4236-8631-f2014dc6917d; session_id_gpibfinal=127.0.0.1-b6082bee-e94c-4b95-a41a-f1f299c63111; session_id_hwsgpib=127.0.0.1-afa8ab56-4fed-4264-a529-a1ab8333277d; session_id_admin=127.0.0.1-aa4f76c9-9d67-46ca-a892-d9c6fd0665fe; session_id_gpibhws=127.0.0.1-6f11aa51-d759-4ec6-a0c2-b8d4140bb744'
p1957
asbasbasbag67
(g83
g69
NtRp1958
(dp1959
g72
(dp1960
sg81
g1579
sg74
(lp1961
g67
(g88
g69
NtRp1962
(dp1963
g72
(dp1964
g92
g93
ssg81
g1958
sg74
(lp1965
S'http_host'
p1966
asbag67
(g88
g69
NtRp1967
(dp1968
g72
(dp1969
g99
g100
ssg81
g1958
sg74
(lp1970
S':'
asbag67
(g88
g69
NtRp1971
(dp1972
g72
(dp1973
sg81
g1958
sg74
(lp1974
g67
(g68
g69
NtRp1975
(dp1976
g72
(dp1977
g80
I4
ssg81
g1971
sg74
(lp1978
S'127.0.0.1:8000'
p1979
asbasbasbag67
(g83
g69
NtRp1980
(dp1981
g72
(dp1982
sg81
g1579
sg74
(lp1983
g67
(g88
g69
NtRp1984
(dp1985
g72
(dp1986
g92
g93
ssg81
g1980
sg74
(lp1987
S'http_origin'
p1988
asbag67
(g88
g69
NtRp1989
(dp1990
g72
(dp1991
g99
g100
ssg81
g1980
sg74
(lp1992
S':'
asbag67
(g88
g69
NtRp1993
(dp1994
g72
(dp1995
sg81
g1980
sg74
(lp1996
g67
(g68
g69
NtRp1997
(dp1998
g72
(dp1999
g80
I4
ssg81
g1993
sg74
(lp2000
S'http://127.0.0.1:8000'
p2001
asbasbasbag67
(g83
g69
NtRp2002
(dp2003
g72
(dp2004
sg81
g1579
sg74
(lp2005
g67
(g88
g69
NtRp2006
(dp2007
g72
(dp2008
g92
g93
ssg81
g2002
sg74
(lp2009
S'http_referer'
p2010
asbag67
(g88
g69
NtRp2011
(dp2012
g72
(dp2013
g99
g100
ssg81
g2002
sg74
(lp2014
S':'
asbag67
(g88
g69
NtRp2015
(dp2016
g72
(dp2017
sg81
g2002
sg74
(lp2018
g67
(g68
g69
NtRp2019
(dp2020
g72
(dp2021
g80
I4
ssg81
g2015
sg74
(lp2022
S'http://127.0.0.1:8000/GPIBHWS/default/index'
p2023
asbasbasbag67
(g83
g69
NtRp2024
(dp2025
g72
(dp2026
sg81
g1579
sg74
(lp2027
g67
(g88
g69
NtRp2028
(dp2029
g72
(dp2030
g92
g93
ssg81
g2024
sg74
(lp2031
S'http_user_agent'
p2032
asbag67
(g88
g69
NtRp2033
(dp2034
g72
(dp2035
g99
g100
ssg81
g2024
sg74
(lp2036
S':'
asbag67
(g88
g69
NtRp2037
(dp2038
g72
(dp2039
sg81
g2024
sg74
(lp2040
g67
(g68
g69
NtRp2041
(dp2042
g72
(dp2043
g80
I4
ssg81
g2037
sg74
(lp2044
S'Mozilla/5.0 (Macintosh; Intel Mac OS X 10_6_8) AppleWebKit/536.11 (KHTML, like Gecko) Chrome/20.0.1132.57 Safari/536.11'
p2045
asbasbasbag67
(g83
g69
NtRp2046
(dp2047
g72
(dp2048
sg81
g1579
sg74
(lp2049
g67
(g88
g69
NtRp2050
(dp2051
g72
(dp2052
g92
g93
ssg81
g2046
sg74
(lp2053
S'http_x_requested_with'
p2054
asbag67
(g88
g69
NtRp2055
(dp2056
g72
(dp2057
g99
g100
ssg81
g2046
sg74
(lp2058
S':'
asbag67
(g88
g69
NtRp2059
(dp2060
g72
(dp2061
sg81
g2046
sg74
(lp2062
g67
(g68
g69
NtRp2063
(dp2064
g72
(dp2065
g80
I4
ssg81
g2059
sg74
(lp2066
S'XMLHttpRequest'
p2067
asbasbasbag67
(g83
g69
NtRp2068
(dp2069
g72
(dp2070
sg81
g1579
sg74
(lp2071
g67
(g88
g69
NtRp2072
(dp2073
g72
(dp2074
g92
g93
ssg81
g2068
sg74
(lp2075
S'is_jython'
p2076
asbag67
(g88
g69
NtRp2077
(dp2078
g72
(dp2079
g99
g100
ssg81
g2068
sg74
(lp2080
S':'
asbag67
(g88
g69
NtRp2081
(dp2082
g72
(dp2083
sg81
g2068
sg74
(lp2084
g67
(g68
g69
NtRp2085
(dp2086
g72
(dp2087
g80
I4
ssg81
g2081
sg74
(lp2088
g1761
asbasbasbag67
(g83
g69
NtRp2089
(dp2090
g72
(dp2091
sg81
g1579
sg74
(lp2092
g67
(g88
g69
NtRp2093
(dp2094
g72
(dp2095
g92
g93
ssg81
g2089
sg74
(lp2096
S'is_pypy'
p2097
asbag67
(g88
g69
NtRp2098
(dp2099
g72
(dp2100
g99
g100
ssg81
g2089
sg74
(lp2101
S':'
asbag67
(g88
g69
NtRp2102
(dp2103
g72
(dp2104
sg81
g2089
sg74
(lp2105
g67
(g68
g69
NtRp2106
(dp2107
g72
(dp2108
g80
I4
ssg81
g2102
sg74
(lp2109
g1761
asbasbasbag67
(g83
g69
NtRp2110
(dp2111
g72
(dp2112
sg81
g1579
sg74
(lp2113
g67
(g88
g69
NtRp2114
(dp2115
g72
(dp2116
g92
g93
ssg81
g2110
sg74
(lp2117
S'path_info'
p2118
asbag67
(g88
g69
NtRp2119
(dp2120
g72
(dp2121
g99
g100
ssg81
g2110
sg74
(lp2122
S':'
asbag67
(g88
g69
NtRp2123
(dp2124
g72
(dp2125
sg81
g2110
sg74
(lp2126
g67
(g68
g69
NtRp2127
(dp2128
g72
(dp2129
g80
I4
ssg81
g2123
sg74
(lp2130
S'/GPIBHWS/default/calc_sweep_func'
p2131
asbasbasbag67
(g83
g69
NtRp2132
(dp2133
g72
(dp2134
sg81
g1579
sg74
(lp2135
g67
(g88
g69
NtRp2136
(dp2137
g72
(dp2138
g92
g93
ssg81
g2132
sg74
(lp2139
S'query_string'
p2140
asbag67
(g88
g69
NtRp2141
(dp2142
g72
(dp2143
g99
g100
ssg81
g2132
sg74
(lp2144
S':'
asbag67
(g88
g69
NtRp2145
(dp2146
g72
(dp2147
sg81
g2132
sg74
(lp2148
g67
(g68
g69
NtRp2149
(dp2150
g72
(dp2151
g80
I4
ssg81
g2145
sg74
(lp2152
S''
asbasbasbag67
(g83
g69
NtRp2153
(dp2154
g72
(dp2155
sg81
g1579
sg74
(lp2156
g67
(g88
g69
NtRp2157
(dp2158
g72
(dp2159
g92
g93
ssg81
g2153
sg74
(lp2160
S'remote_addr'
p2161
asbag67
(g88
g69
NtRp2162
(dp2163
g72
(dp2164
g99
g100
ssg81
g2153
sg74
(lp2165
S':'
asbag67
(g88
g69
NtRp2166
(dp2167
g72
(dp2168
sg81
g2153
sg74
(lp2169
g67
(g68
g69
NtRp2170
(dp2171
g72
(dp2172
g80
I4
ssg81
g2166
sg74
(lp2173
g200
asbasbasbag67
(g83
g69
NtRp2174
(dp2175
g72
(dp2176
sg81
g1579
sg74
(lp2177
g67
(g88
g69
NtRp2178
(dp2179
g72
(dp2180
g92
g93
ssg81
g2174
sg74
(lp2181
S'remote_port'
p2182
asbag67
(g88
g69
NtRp2183
(dp2184
g72
(dp2185
g99
g100
ssg81
g2174
sg74
(lp2186
S':'
asbag67
(g88
g69
NtRp2187
(dp2188
g72
(dp2189
sg81
g2174
sg74
(lp2190
g67
(g68
g69
NtRp2191
(dp2192
g72
(dp2193
g80
I4
ssg81
g2187
sg74
(lp2194
S'53891'
p2195
asbasbasbag67
(g83
g69
NtRp2196
(dp2197
g72
(dp2198
sg81
g1579
sg74
(lp2199
g67
(g88
g69
NtRp2200
(dp2201
g72
(dp2202
g92
g93
ssg81
g2196
sg74
(lp2203
S'request_method'
p2204
asbag67
(g88
g69
NtRp2205
(dp2206
g72
(dp2207
g99
g100
ssg81
g2196
sg74
(lp2208
S':'
asbag67
(g88
g69
NtRp2209
(dp2210
g72
(dp2211
sg81
g2196
sg74
(lp2212
g67
(g68
g69
NtRp2213
(dp2214
g72
(dp2215
g80
I4
ssg81
g2209
sg74
(lp2216
S'POST'
p2217
asbasbasbag67
(g83
g69
NtRp2218
(dp2219
g72
(dp2220
sg81
g1579
sg74
(lp2221
g67
(g88
g69
NtRp2222
(dp2223
g72
(dp2224
g92
g93
ssg81
g2218
sg74
(lp2225
S'script_name'
p2226
asbag67
(g88
g69
NtRp2227
(dp2228
g72
(dp2229
g99
g100
ssg81
g2218
sg74
(lp2230
S':'
asbag67
(g88
g69
NtRp2231
(dp2232
g72
(dp2233
sg81
g2218
sg74
(lp2234
g67
(g68
g69
NtRp2235
(dp2236
g72
(dp2237
g80
I4
ssg81
g2231
sg74
(lp2238
S''
asbasbasbag67
(g83
g69
NtRp2239
(dp2240
g72
(dp2241
sg81
g1579
sg74
(lp2242
g67
(g88
g69
NtRp2243
(dp2244
g72
(dp2245
g92
g93
ssg81
g2239
sg74
(lp2246
S'server_name'
p2247
asbag67
(g88
g69
NtRp2248
(dp2249
g72
(dp2250
g99
g100
ssg81
g2239
sg74
(lp2251
S':'
asbag67
(g88
g69
NtRp2252
(dp2253
g72
(dp2254
sg81
g2239
sg74
(lp2255
g67
(g68
g69
NtRp2256
(dp2257
g72
(dp2258
g80
I4
ssg81
g2252
sg74
(lp2259
S'frost.gravity.hws.edu'
p2260
asbasbasbag67
(g83
g69
NtRp2261
(dp2262
g72
(dp2263
sg81
g1579
sg74
(lp2264
g67
(g88
g69
NtRp2265
(dp2266
g72
(dp2267
g92
g93
ssg81
g2261
sg74
(lp2268
S'server_port'
p2269
asbag67
(g88
g69
NtRp2270
(dp2271
g72
(dp2272
g99
g100
ssg81
g2261
sg74
(lp2273
S':'
asbag67
(g88
g69
NtRp2274
(dp2275
g72
(dp2276
sg81
g2261
sg74
(lp2277
g67
(g68
g69
NtRp2278
(dp2279
g72
(dp2280
g80
I4
ssg81
g2274
sg74
(lp2281
S'8000'
p2282
asbasbasbag67
(g83
g69
NtRp2283
(dp2284
g72
(dp2285
sg81
g1579
sg74
(lp2286
g67
(g88
g69
NtRp2287
(dp2288
g72
(dp2289
g92
g93
ssg81
g2283
sg74
(lp2290
S'server_protocol'
p2291
asbag67
(g88
g69
NtRp2292
(dp2293
g72
(dp2294
g99
g100
ssg81
g2283
sg74
(lp2295
S':'
asbag67
(g88
g69
NtRp2296
(dp2297
g72
(dp2298
sg81
g2283
sg74
(lp2299
g67
(g68
g69
NtRp2300
(dp2301
g72
(dp2302
g80
I4
ssg81
g2296
sg74
(lp2303
S'HTTP/1.1'
p2304
asbasbasbag67
(g83
g69
NtRp2305
(dp2306
g72
(dp2307
sg81
g1579
sg74
(lp2308
g67
(g88
g69
NtRp2309
(dp2310
g72
(dp2311
g92
g93
ssg81
g2305
sg74
(lp2312
S'server_software'
p2313
asbag67
(g88
g69
NtRp2314
(dp2315
g72
(dp2316
g99
g100
ssg81
g2305
sg74
(lp2317
S':'
asbag67
(g88
g69
NtRp2318
(dp2319
g72
(dp2320
sg81
g2305
sg74
(lp2321
g67
(g68
g69
NtRp2322
(dp2323
g72
(dp2324
g80
I4
ssg81
g2318
sg74
(lp2325
S'Rocket 1.2.4'
p2326
asbasbasbag67
(g83
g69
NtRp2327
(dp2328
g72
(dp2329
sg81
g1579
sg74
(lp2330
g67
(g88
g69
NtRp2331
(dp2332
g72
(dp2333
g92
g93
ssg81
g2327
sg74
(lp2334
S'web2py_crontype'
p2335
asbag67
(g88
g69
NtRp2336
(dp2337
g72
(dp2338
g99
g100
ssg81
g2327
sg74
(lp2339
S':'
asbag67
(g88
g69
NtRp2340
(dp2341
g72
(dp2342
sg81
g2327
sg74
(lp2343
g67
(g68
g69
NtRp2344
(dp2345
g72
(dp2346
g80
I4
ssg81
g2340
sg74
(lp2347
S'hard'
p2348
asbasbasbag67
(g83
g69
NtRp2349
(dp2350
g72
(dp2351
sg81
g1579
sg74
(lp2352
g67
(g88
g69
NtRp2353
(dp2354
g72
(dp2355
g92
g93
ssg81
g2349
sg74
(lp2356
S'web2py_path'
p2357
asbag67
(g88
g69
NtRp2358
(dp2359
g72
(dp2360
g99
g100
ssg81
g2349
sg74
(lp2361
S':'
asbag67
(g88
g69
NtRp2362
(dp2363
g72
(dp2364
sg81
g2349
sg74
(lp2365
g67
(g68
g69
NtRp2366
(dp2367
g72
(dp2368
g80
I4
ssg81
g2362
sg74
(lp2369
g1626
asbasbasbag67
(g83
g69
NtRp2370
(dp2371
g72
(dp2372
sg81
g1579
sg74
(lp2373
g67
(g88
g69
NtRp2374
(dp2375
g72
(dp2376
g92
g93
ssg81
g2370
sg74
(lp2377
S'web2py_version'
p2378
asbag67
(g88
g69
NtRp2379
(dp2380
g72
(dp2381
g99
g100
ssg81
g2370
sg74
(lp2382
S':'
asbag67
(g88
g69
NtRp2383
(dp2384
g72
(dp2385
sg81
g2370
sg74
(lp2386
g67
(g68
g69
NtRp2387
(dp2388
g72
(dp2389
g80
I4
ssg81
g2383
sg74
(lp2390
g67
(g76
g69
NtRp2391
(dp2392
g72
(dp2393
g80
I3
ssg81
Nsg74
(lp2394
g67
(g83
g69
NtRp2395
(dp2396
g72
(dp2397
sg81
g2391
sg74
(lp2398
g67
(g88
g69
NtRp2399
(dp2400
g72
(dp2401
sg81
g2395
sg74
(lp2402
g67
(g68
g69
NtRp2403
(dp2404
g72
(dp2405
g80
I3
ssg81
g2399
sg74
(lp2406
S'2'
asbasbasbag67
(g83
g69
NtRp2407
(dp2408
g72
(dp2409
sg81
g2391
sg74
(lp2410
g67
(g88
g69
NtRp2411
(dp2412
g72
(dp2413
sg81
g2407
sg74
(lp2414
g67
(g68
g69
NtRp2415
(dp2416
g72
(dp2417
g80
I3
ssg81
g2411
sg74
(lp2418
S'0'
asbasbasbag67
(g83
g69
NtRp2419
(dp2420
g72
(dp2421
sg81
g2391
sg74
(lp2422
g67
(g88
g69
NtRp2423
(dp2424
g72
(dp2425
sg81
g2419
sg74
(lp2426
g67
(g68
g69
NtRp2427
(dp2428
g72
(dp2429
g80
I3
ssg81
g2423
sg74
(lp2430
S'0'
asbasbasbag67
(g83
g69
NtRp2431
(dp2432
g72
(dp2433
sg81
g2391
sg74
(lp2434
g67
(g88
g69
NtRp2435
(dp2436
g72
(dp2437
sg81
g2431
sg74
(lp2438
g67
(g68
g69
NtRp2439
(dp2440
g72
(dp2441
g80
I3
ssg81
g2435
sg74
(lp2442
S'datetime.datetime(2012, 7, 11, 9, 17, 27)'
p2443
asbasbasbag67
(g83
g69
NtRp2444
(dp2445
g72
(dp2446
sg81
g2391
sg74
(lp2447
g67
(g88
g69
NtRp2448
(dp2449
g72
(dp2450
sg81
g2444
sg74
(lp2451
g67
(g68
g69
NtRp2452
(dp2453
g72
(dp2454
g80
I3
ssg81
g2448
sg74
(lp2455
S'dev'
p2456
asbasbasbasbasbasbasbag67
(g83
g69
NtRp2457
(dp2458
g72
(dp2459
sg81
g1579
sg74
(lp2460
g67
(g88
g69
NtRp2461
(dp2462
g72
(dp2463
g92
g93
ssg81
g2457
sg74
(lp2464
S'wsgi_errors'
p2465
asbag67
(g88
g69
NtRp2466
(dp2467
g72
(dp2468
g99
g100
ssg81
g2457
sg74
(lp2469
S':'
asbag67
(g88
g69
NtRp2470
(dp2471
g72
(dp2472
sg81
g2457
sg74
(lp2473
g67
(g68
g69
NtRp2474
(dp2475
g72
(dp2476
g80
I4
ssg81
g2470
sg74
(lp2477
S"<open file '<stderr>', mode 'w' at 0x3410d0>"
p2478
asbasbasbag67
(g83
g69
NtRp2479
(dp2480
g72
(dp2481
sg81
g1579
sg74
(lp2482
g67
(g88
g69
NtRp2483
(dp2484
g72
(dp2485
g92
g93
ssg81
g2479
sg74
(lp2486
S'wsgi_file_wrapper'
p2487
asbag67
(g88
g69
NtRp2488
(dp2489
g72
(dp2490
g99
g100
ssg81
g2479
sg74
(lp2491
S':'
asbag67
(g88
g69
NtRp2492
(dp2493
g72
(dp2494
sg81
g2479
sg74
(lp2495
g67
(g68
g69
NtRp2496
(dp2497
g72
(dp2498
g80
I4
ssg81
g2492
sg74
(lp2499
S'<class wsgiref.util.FileWrapper at 0x18934b0>'
p2500
asbasbasbag67
(g83
g69
NtRp2501
(dp2502
g72
(dp2503
sg81
g1579
sg74
(lp2504
g67
(g88
g69
NtRp2505
(dp2506
g72
(dp2507
g92
g93
ssg81
g2501
sg74
(lp2508
S'wsgi_input'
p2509
asbag67
(g88
g69
NtRp2510
(dp2511
g72
(dp2512
g99
g100
ssg81
g2501
sg74
(lp2513
S':'
asbag67
(g88
g69
NtRp2514
(dp2515
g72
(dp2516
sg81
g2501
sg74
(lp2517
g67
(g68
g69
NtRp2518
(dp2519
g72
(dp2520
g80
I4
ssg81
g2514
sg74
(lp2521
S'<socket._fileobject object at 0x187ce130>'
p2522
asbasbasbag67
(g83
g69
NtRp2523
(dp2524
g72
(dp2525
sg81
g1579
sg74
(lp2526
g67
(g88
g69
NtRp2527
(dp2528
g72
(dp2529
g92
g93
ssg81
g2523
sg74
(lp2530
S'wsgi_multiprocess'
p2531
asbag67
(g88
g69
NtRp2532
(dp2533
g72
(dp2534
g99
g100
ssg81
g2523
sg74
(lp2535
S':'
asbag67
(g88
g69
NtRp2536
(dp2537
g72
(dp2538
sg81
g2523
sg74
(lp2539
g67
(g68
g69
NtRp2540
(dp2541
g72
(dp2542
g80
I4
ssg81
g2536
sg74
(lp2543
g1761
asbasbasbag67
(g83
g69
NtRp2544
(dp2545
g72
(dp2546
sg81
g1579
sg74
(lp2547
g67
(g88
g69
NtRp2548
(dp2549
g72
(dp2550
g92
g93
ssg81
g2544
sg74
(lp2551
S'wsgi_multithread'
p2552
asbag67
(g88
g69
NtRp2553
(dp2554
g72
(dp2555
g99
g100
ssg81
g2544
sg74
(lp2556
S':'
asbag67
(g88
g69
NtRp2557
(dp2558
g72
(dp2559
sg81
g2544
sg74
(lp2560
g67
(g68
g69
NtRp2561
(dp2562
g72
(dp2563
g80
I4
ssg81
g2557
sg74
(lp2564
g110
asbasbasbag67
(g83
g69
NtRp2565
(dp2566
g72
(dp2567
sg81
g1579
sg74
(lp2568
g67
(g88
g69
NtRp2569
(dp2570
g72
(dp2571
g92
g93
ssg81
g2565
sg74
(lp2572
S'wsgi_run_once'
p2573
asbag67
(g88
g69
NtRp2574
(dp2575
g72
(dp2576
g99
g100
ssg81
g2565
sg74
(lp2577
S':'
asbag67
(g88
g69
NtRp2578
(dp2579
g72
(dp2580
sg81
g2565
sg74
(lp2581
g67
(g68
g69
NtRp2582
(dp2583
g72
(dp2584
g80
I4
ssg81
g2578
sg74
(lp2585
g1761
asbasbasbag67
(g83
g69
NtRp2586
(dp2587
g72
(dp2588
sg81
g1579
sg74
(lp2589
g67
(g88
g69
NtRp2590
(dp2591
g72
(dp2592
g92
g93
ssg81
g2586
sg74
(lp2593
S'wsgi_url_scheme'
p2594
asbag67
(g88
g69
NtRp2595
(dp2596
g72
(dp2597
g99
g100
ssg81
g2586
sg74
(lp2598
S':'
asbag67
(g88
g69
NtRp2599
(dp2600
g72
(dp2601
sg81
g2586
sg74
(lp2602
g67
(g68
g69
NtRp2603
(dp2604
g72
(dp2605
g80
I4
ssg81
g2599
sg74
(lp2606
S'http'
p2607
asbasbasbag67
(g83
g69
NtRp2608
(dp2609
g72
(dp2610
sg81
g1579
sg74
(lp2611
g67
(g88
g69
NtRp2612
(dp2613
g72
(dp2614
g92
g93
ssg81
g2608
sg74
(lp2615
S'wsgi_version'
p2616
asbag67
(g88
g69
NtRp2617
(dp2618
g72
(dp2619
g99
g100
ssg81
g2608
sg74
(lp2620
S':'
asbag67
(g88
g69
NtRp2621
(dp2622
g72
(dp2623
sg81
g2608
sg74
(lp2624
g67
(g68
g69
NtRp2625
(dp2626
g72
(dp2627
g80
I4
ssg81
g2621
sg74
(lp2628
g67
(g76
g69
NtRp2629
(dp2630
g72
(dp2631
g80
I3
ssg81
Nsg74
(lp2632
g67
(g83
g69
NtRp2633
(dp2634
g72
(dp2635
sg81
g2629
sg74
(lp2636
g67
(g88
g69
NtRp2637
(dp2638
g72
(dp2639
sg81
g2633
sg74
(lp2640
g67
(g68
g69
NtRp2641
(dp2642
g72
(dp2643
g80
I3
ssg81
g2637
sg74
(lp2644
S'1'
asbasbasbag67
(g83
g69
NtRp2645
(dp2646
g72
(dp2647
sg81
g2629
sg74
(lp2648
g67
(g88
g69
NtRp2649
(dp2650
g72
(dp2651
sg81
g2645
sg74
(lp2652
g67
(g68
g69
NtRp2653
(dp2654
g72
(dp2655
g80
I3
ssg81
g2649
sg74
(lp2656
S'0'
asbasbasbasbasbasbasbasbasbasbasbag67
(g83
g69
NtRp2657
(dp2658
g72
(dp2659
sg81
g77
sg74
(lp2660
g67
(g88
g69
NtRp2661
(dp2662
g72
(dp2663
g92
g93
ssg81
g2657
sg74
(lp2664
S'extension'
p2665
asbag67
(g88
g69
NtRp2666
(dp2667
g72
(dp2668
g99
g100
ssg81
g2657
sg74
(lp2669
S':'
asbag67
(g88
g69
NtRp2670
(dp2671
g72
(dp2672
sg81
g2657
sg74
(lp2673
g67
(g68
g69
NtRp2674
(dp2675
g72
(dp2676
g80
I5
ssg81
g2670
sg74
(lp2677
S'html'
p2678
asbasbasbag67
(g83
g69
NtRp2679
(dp2680
g72
(dp2681
sg81
g77
sg74
(lp2682
g67
(g88
g69
NtRp2683
(dp2684
g72
(dp2685
g92
g93
ssg81
g2679
sg74
(lp2686
S'folder'
p2687
asbag67
(g88
g69
NtRp2688
(dp2689
g72
(dp2690
g99
g100
ssg81
g2679
sg74
(lp2691
S':'
asbag67
(g88
g69
NtRp2692
(dp2693
g72
(dp2694
sg81
g2679
sg74
(lp2695
g67
(g68
g69
NtRp2696
(dp2697
g72
(dp2698
g80
I5
ssg81
g2692
sg74
(lp2699
S'/web2pyTrunk/applications/GPIBHWS/'
p2700
asbasbasbag67
(g83
g69
NtRp2701
(dp2702
g72
(dp2703
sg81
g77
sg74
(lp2704
g67
(g88
g69
NtRp2705
(dp2706
g72
(dp2707
g92
g93
ssg81
g2701
sg74
(lp2708
S'function'
p2709
asbag67
(g88
g69
NtRp2710
(dp2711
g72
(dp2712
g99
g100
ssg81
g2701
sg74
(lp2713
S':'
asbag67
(g88
g69
NtRp2714
(dp2715
g72
(dp2716
sg81
g2701
sg74
(lp2717
g67
(g68
g69
NtRp2718
(dp2719
g72
(dp2720
g80
I5
ssg81
g2714
sg74
(lp2721
S'calc_sweep_func'
p2722
asbasbasbag67
(g83
g69
NtRp2723
(dp2724
g72
(dp2725
sg81
g77
sg74
(lp2726
g67
(g88
g69
NtRp2727
(dp2728
g72
(dp2729
g92
g93
ssg81
g2723
sg74
(lp2730
S'get_vars'
p2731
asbag67
(g88
g69
NtRp2732
(dp2733
g72
(dp2734
g99
g100
ssg81
g2723
sg74
(lp2735
S':'
asbag67
(g88
g69
NtRp2736
(dp2737
g72
(dp2738
sg81
g2723
sg74
(lp2739
g67
(g68
g69
NtRp2740
(dp2741
g72
(dp2742
g80
I5
ssg81
g2736
sg74
(lp2743
g67
(g76
g69
NtRp2744
(dp2745
g72
(dp2746
g80
I4
ssg81
Nsg74
(lp2747
sbasbasbasbag67
(g83
g69
NtRp2748
(dp2749
g72
(dp2750
sg81
g77
sg74
(lp2751
g67
(g88
g69
NtRp2752
(dp2753
g72
(dp2754
g92
g93
ssg81
g2748
sg74
(lp2755
S'global_settings'
p2756
asbag67
(g88
g69
NtRp2757
(dp2758
g72
(dp2759
g99
g100
ssg81
g2748
sg74
(lp2760
S':'
asbag67
(g88
g69
NtRp2761
(dp2762
g72
(dp2763
sg81
g2748
sg74
(lp2764
g67
(g68
g69
NtRp2765
(dp2766
g72
(dp2767
g80
I5
ssg81
g2761
sg74
(lp2768
g67
(g76
g69
NtRp2769
(dp2770
g72
(dp2771
g80
I4
ssg81
Nsg74
(lp2772
g67
(g83
g69
NtRp2773
(dp2774
g72
(dp2775
sg81
g2769
sg74
(lp2776
g67
(g88
g69
NtRp2777
(dp2778
g72
(dp2779
g92
g93
ssg81
g2773
sg74
(lp2780
g1591
asbag67
(g88
g69
NtRp2781
(dp2782
g72
(dp2783
g99
g100
ssg81
g2773
sg74
(lp2784
S':'
asbag67
(g88
g69
NtRp2785
(dp2786
g72
(dp2787
sg81
g2773
sg74
(lp2788
g67
(g68
g69
NtRp2789
(dp2790
g72
(dp2791
g80
I4
ssg81
g2785
sg74
(lp2792
S"set(['/web2pyTrunk/applications/GPIBHWS/', '/web2pyTrunk/applications/HWSGPIB/', '/web2pyTrunk/applications/welcome/', '/web2pyTrunk/applications/admin/', '/web2pyTrunk/applications/GPIBFinal/'])"
p2793
asbasbasbag67
(g83
g69
NtRp2794
(dp2795
g72
(dp2796
sg81
g2769
sg74
(lp2797
g67
(g88
g69
NtRp2798
(dp2799
g72
(dp2800
g92
g93
ssg81
g2794
sg74
(lp2801
g1613
asbag67
(g88
g69
NtRp2802
(dp2803
g72
(dp2804
g99
g100
ssg81
g2794
sg74
(lp2805
S':'
asbag67
(g88
g69
NtRp2806
(dp2807
g72
(dp2808
sg81
g2794
sg74
(lp2809
g67
(g68
g69
NtRp2810
(dp2811
g72
(dp2812
g80
I4
ssg81
g2806
sg74
(lp2813
g1626
asbasbasbag67
(g83
g69
NtRp2814
(dp2815
g72
(dp2816
sg81
g2769
sg74
(lp2817
g67
(g88
g69
NtRp2818
(dp2819
g72
(dp2820
g92
g93
ssg81
g2814
sg74
(lp2821
g1635
asbag67
(g88
g69
NtRp2822
(dp2823
g72
(dp2824
g99
g100
ssg81
g2814
sg74
(lp2825
S':'
asbag67
(g88
g69
NtRp2826
(dp2827
g72
(dp2828
sg81
g2814
sg74
(lp2829
g67
(g68
g69
NtRp2830
(dp2831
g72
(dp2832
g80
I4
ssg81
g2826
sg74
(lp2833
g67
(g76
g69
NtRp2834
(dp2835
g72
(dp2836
g80
I3
ssg81
Nsg74
(lp2837
sbasbasbasbag67
(g83
g69
NtRp2838
(dp2839
g72
(dp2840
sg81
g2769
sg74
(lp2841
g67
(g88
g69
NtRp2842
(dp2843
g72
(dp2844
g92
g93
ssg81
g2838
sg74
(lp2845
g1660
asbag67
(g88
g69
NtRp2846
(dp2847
g72
(dp2848
g99
g100
ssg81
g2838
sg74
(lp2849
S':'
asbag67
(g88
g69
NtRp2850
(dp2851
g72
(dp2852
sg81
g2838
sg74
(lp2853
g67
(g68
g69
NtRp2854
(dp2855
g72
(dp2856
g80
I4
ssg81
g2850
sg74
(lp2857
S"<Values at 0x18c4990: {'verbose': False, 'ip': '127.0.0.1', 'shutdown_timeout': 5, 'taskbar': False, 'nocron': False, 'pid_filename': 'httpserver.pid', 'maxthreads': None, 'softcron': False, 'server_name': 'frost.gravity.hws.edu', 'bpython': False, 'nogui': False, 'port': 8000, 'extcron': False, 'run_system_tests': False, 'test': None, 'folder': '/web2pyTrunk', 'config': '', 'import_models': False, 'winservice': '', 'shell': None, 'run': '', 'log_filename': 'httpserver.log', 'debuglevel': 30, 'args': [''], 'socket_timeout': 5, 'ssl_ca_certificate': None, 'scheduler': None, 'profiler_filename': None, 'ssl_private_key': '', 'password': '<ask>', 'request_queue_size': 5, 'ssl_certificate': '', 'cronjob': False, 'numthreads': None, 'quiet': False, 'interfaces': None, 'minthreads': None, 'timeout': 10, 'plain': False, 'nobanner': False}>"
p2858
asbasbasbag67
(g83
g69
NtRp2859
(dp2860
g72
(dp2861
sg81
g2769
sg74
(lp2862
g67
(g88
g69
NtRp2863
(dp2864
g72
(dp2865
g92
g93
ssg81
g2859
sg74
(lp2866
g1726
asbag67
(g88
g69
NtRp2867
(dp2868
g72
(dp2869
g99
g100
ssg81
g2859
sg74
(lp2870
S':'
asbag67
(g88
g69
NtRp2871
(dp2872
g72
(dp2873
sg81
g2859
sg74
(lp2874
g67
(g68
g69
NtRp2875
(dp2876
g72
(dp2877
g80
I4
ssg81
g2871
sg74
(lp2878
S'set([])'
p2879
asbasbasbag67
(g83
g69
NtRp2880
(dp2881
g72
(dp2882
sg81
g2769
sg74
(lp2883
g67
(g88
g69
NtRp2884
(dp2885
g72
(dp2886
g92
g93
ssg81
g2880
sg74
(lp2887
g1748
asbag67
(g88
g69
NtRp2888
(dp2889
g72
(dp2890
g99
g100
ssg81
g2880
sg74
(lp2891
S':'
asbag67
(g88
g69
NtRp2892
(dp2893
g72
(dp2894
sg81
g2880
sg74
(lp2895
g67
(g68
g69
NtRp2896
(dp2897
g72
(dp2898
g80
I4
ssg81
g2892
sg74
(lp2899
g1761
asbasbasbag67
(g83
g69
NtRp2900
(dp2901
g72
(dp2902
sg81
g2769
sg74
(lp2903
g67
(g88
g69
NtRp2904
(dp2905
g72
(dp2906
g92
g93
ssg81
g2900
sg74
(lp2907
g1770
asbag67
(g88
g69
NtRp2908
(dp2909
g72
(dp2910
g99
g100
ssg81
g2900
sg74
(lp2911
S':'
asbag67
(g88
g69
NtRp2912
(dp2913
g72
(dp2914
sg81
g2900
sg74
(lp2915
g67
(g68
g69
NtRp2916
(dp2917
g72
(dp2918
g80
I4
ssg81
g2912
sg74
(lp2919
g1783
asbasbasbag67
(g83
g69
NtRp2920
(dp2921
g72
(dp2922
sg81
g2769
sg74
(lp2923
g67
(g88
g69
NtRp2924
(dp2925
g72
(dp2926
g92
g93
ssg81
g2920
sg74
(lp2927
g2076
asbag67
(g88
g69
NtRp2928
(dp2929
g72
(dp2930
g99
g100
ssg81
g2920
sg74
(lp2931
S':'
asbag67
(g88
g69
NtRp2932
(dp2933
g72
(dp2934
sg81
g2920
sg74
(lp2935
g67
(g68
g69
NtRp2936
(dp2937
g72
(dp2938
g80
I4
ssg81
g2932
sg74
(lp2939
g1761
asbasbasbag67
(g83
g69
NtRp2940
(dp2941
g72
(dp2942
sg81
g2769
sg74
(lp2943
g67
(g88
g69
NtRp2944
(dp2945
g72
(dp2946
g92
g93
ssg81
g2940
sg74
(lp2947
g2097
asbag67
(g88
g69
NtRp2948
(dp2949
g72
(dp2950
g99
g100
ssg81
g2940
sg74
(lp2951
S':'
asbag67
(g88
g69
NtRp2952
(dp2953
g72
(dp2954
sg81
g2940
sg74
(lp2955
g67
(g68
g69
NtRp2956
(dp2957
g72
(dp2958
g80
I4
ssg81
g2952
sg74
(lp2959
g1761
asbasbasbag67
(g83
g69
NtRp2960
(dp2961
g72
(dp2962
sg81
g2769
sg74
(lp2963
g67
(g88
g69
NtRp2964
(dp2965
g72
(dp2966
g92
g93
ssg81
g2960
sg74
(lp2967
g2335
asbag67
(g88
g69
NtRp2968
(dp2969
g72
(dp2970
g99
g100
ssg81
g2960
sg74
(lp2971
S':'
asbag67
(g88
g69
NtRp2972
(dp2973
g72
(dp2974
sg81
g2960
sg74
(lp2975
g67
(g68
g69
NtRp2976
(dp2977
g72
(dp2978
g80
I4
ssg81
g2972
sg74
(lp2979
g2348
asbasbasbag67
(g83
g69
NtRp2980
(dp2981
g72
(dp2982
sg81
g2769
sg74
(lp2983
g67
(g88
g69
NtRp2984
(dp2985
g72
(dp2986
g92
g93
ssg81
g2980
sg74
(lp2987
g2378
asbag67
(g88
g69
NtRp2988
(dp2989
g72
(dp2990
g99
g100
ssg81
g2980
sg74
(lp2991
S':'
asbag67
(g88
g69
NtRp2992
(dp2993
g72
(dp2994
sg81
g2980
sg74
(lp2995
g67
(g68
g69
NtRp2996
(dp2997
g72
(dp2998
g80
I4
ssg81
g2992
sg74
(lp2999
g67
(g76
g69
NtRp3000
(dp3001
g72
(dp3002
g80
I3
ssg81
Nsg74
(lp3003
g67
(g83
g69
NtRp3004
(dp3005
g72
(dp3006
sg81
g3000
sg74
(lp3007
g67
(g88
g69
NtRp3008
(dp3009
g72
(dp3010
sg81
g3004
sg74
(lp3011
g67
(g68
g69
NtRp3012
(dp3013
g72
(dp3014
g80
I3
ssg81
g3008
sg74
(lp3015
S'2'
asbasbasbag67
(g83
g69
NtRp3016
(dp3017
g72
(dp3018
sg81
g3000
sg74
(lp3019
g67
(g88
g69
NtRp3020
(dp3021
g72
(dp3022
sg81
g3016
sg74
(lp3023
g67
(g68
g69
NtRp3024
(dp3025
g72
(dp3026
g80
I3
ssg81
g3020
sg74
(lp3027
S'0'
asbasbasbag67
(g83
g69
NtRp3028
(dp3029
g72
(dp3030
sg81
g3000
sg74
(lp3031
g67
(g88
g69
NtRp3032
(dp3033
g72
(dp3034
sg81
g3028
sg74
(lp3035
g67
(g68
g69
NtRp3036
(dp3037
g72
(dp3038
g80
I3
ssg81
g3032
sg74
(lp3039
S'0'
asbasbasbag67
(g83
g69
NtRp3040
(dp3041
g72
(dp3042
sg81
g3000
sg74
(lp3043
g67
(g88
g69
NtRp3044
(dp3045
g72
(dp3046
sg81
g3040
sg74
(lp3047
g67
(g68
g69
NtRp3048
(dp3049
g72
(dp3050
g80
I3
ssg81
g3044
sg74
(lp3051
S'datetime.datetime(2012, 7, 11, 9, 17, 27)'
p3052
asbasbasbag67
(g83
g69
NtRp3053
(dp3054
g72
(dp3055
sg81
g3000
sg74
(lp3056
g67
(g88
g69
NtRp3057
(dp3058
g72
(dp3059
sg81
g3053
sg74
(lp3060
g67
(g68
g69
NtRp3061
(dp3062
g72
(dp3063
g80
I3
ssg81
g3057
sg74
(lp3064
g2456
asbasbasbasbasbasbasbasbasbasbasbag67
(g83
g69
NtRp3065
(dp3066
g72
(dp3067
sg81
g77
sg74
(lp3068
g67
(g88
g69
NtRp3069
(dp3070
g72
(dp3071
g92
g93
ssg81
g3065
sg74
(lp3072
S'is_https'
p3073
asbag67
(g88
g69
NtRp3074
(dp3075
g72
(dp3076
g99
g100
ssg81
g3065
sg74
(lp3077
S':'
asbag67
(g88
g69
NtRp3078
(dp3079
g72
(dp3080
sg81
g3065
sg74
(lp3081
g67
(g68
g69
NtRp3082
(dp3083
g72
(dp3084
g80
I5
ssg81
g3078
sg74
(lp3085
g1761
asbasbasbag67
(g83
g69
NtRp3086
(dp3087
g72
(dp3088
sg81
g77
sg74
(lp3089
g67
(g88
g69
NtRp3090
(dp3091
g72
(dp3092
g92
g93
ssg81
g3086
sg74
(lp3093
S'is_local'
p3094
asbag67
(g88
g69
NtRp3095
(dp3096
g72
(dp3097
g99
g100
ssg81
g3086
sg74
(lp3098
S':'
asbag67
(g88
g69
NtRp3099
(dp3100
g72
(dp3101
sg81
g3086
sg74
(lp3102
g67
(g68
g69
NtRp3103
(dp3104
g72
(dp3105
g80
I5
ssg81
g3099
sg74
(lp3106
g110
asbasbasbag67
(g83
g69
NtRp3107
(dp3108
g72
(dp3109
sg81
g77
sg74
(lp3110
g67
(g88
g69
NtRp3111
(dp3112
g72
(dp3113
g92
g93
ssg81
g3107
sg74
(lp3114
S'is_restful'
p3115
asbag67
(g88
g69
NtRp3116
(dp3117
g72
(dp3118
g99
g100
ssg81
g3107
sg74
(lp3119
S':'
asbag67
(g88
g69
NtRp3120
(dp3121
g72
(dp3122
sg81
g3107
sg74
(lp3123
g67
(g68
g69
NtRp3124
(dp3125
g72
(dp3126
g80
I5
ssg81
g3120
sg74
(lp3127
g1761
asbasbasbag67
(g83
g69
NtRp3128
(dp3129
g72
(dp3130
sg81
g77
sg74
(lp3131
g67
(g88
g69
NtRp3132
(dp3133
g72
(dp3134
g92
g93
ssg81
g3128
sg74
(lp3135
S'now'
p3136
asbag67
(g88
g69
NtRp3137
(dp3138
g72
(dp3139
g99
g100
ssg81
g3128
sg74
(lp3140
S':'
asbag67
(g88
g69
NtRp3141
(dp3142
g72
(dp3143
sg81
g3128
sg74
(lp3144
g67
(g68
g69
NtRp3145
(dp3146
g72
(dp3147
g80
I5
ssg81
g3141
sg74
(lp3148
S'datetime.datetime(2012, 7, 27, 18, 43, 29, 525810)'
p3149
asbasbasbag67
(g83
g69
NtRp3150
(dp3151
g72
(dp3152
sg81
g77
sg74
(lp3153
g67
(g88
g69
NtRp3154
(dp3155
g72
(dp3156
g92
g93
ssg81
g3150
sg74
(lp3157
S'post_vars'
p3158
asbag67
(g88
g69
NtRp3159
(dp3160
g72
(dp3161
g99
g100
ssg81
g3150
sg74
(lp3162
S':'
asbag67
(g88
g69
NtRp3163
(dp3164
g72
(dp3165
sg81
g3150
sg74
(lp3166
g67
(g68
g69
NtRp3167
(dp3168
g72
(dp3169
g80
I5
ssg81
g3163
sg74
(lp3170
g67
(g76
g69
NtRp3171
(dp3172
g72
(dp3173
g80
I4
ssg81
Nsg74
(lp3174
g67
(g83
g69
NtRp3175
(dp3176
g72
(dp3177
sg81
g3171
sg74
(lp3178
g67
(g88
g69
NtRp3179
(dp3180
g72
(dp3181
g92
g93
ssg81
g3175
sg74
(lp3182
S'device'
p3183
asbag67
(g88
g69
NtRp3184
(dp3185
g72
(dp3186
g99
g100
ssg81
g3175
sg74
(lp3187
S':'
asbag67
(g88
g69
NtRp3188
(dp3189
g72
(dp3190
sg81
g3175
sg74
(lp3191
g67
(g68
g69
NtRp3192
(dp3193
g72
(dp3194
g80
I4
ssg81
g3188
sg74
(lp3195
S'Glass'
p3196
asbasbasbag67
(g83
g69
NtRp3197
(dp3198
g72
(dp3199
sg81
g3171
sg74
(lp3200
g67
(g88
g69
NtRp3201
(dp3202
g72
(dp3203
g92
g93
ssg81
g3197
sg74
(lp3204
S'frequency_range'
p3205
asbag67
(g88
g69
NtRp3206
(dp3207
g72
(dp3208
g99
g100
ssg81
g3197
sg74
(lp3209
S':'
asbag67
(g88
g69
NtRp3210
(dp3211
g72
(dp3212
sg81
g3197
sg74
(lp3213
g67
(g68
g69
NtRp3214
(dp3215
g72
(dp3216
g80
I4
ssg81
g3210
sg74
(lp3217
S'5'
asbasbasbag67
(g83
g69
NtRp3218
(dp3219
g72
(dp3220
sg81
g3171
sg74
(lp3221
g67
(g88
g69
NtRp3222
(dp3223
g72
(dp3224
g92
g93
ssg81
g3218
sg74
(lp3225
S'frequency_start'
p3226
asbag67
(g88
g69
NtRp3227
(dp3228
g72
(dp3229
g99
g100
ssg81
g3218
sg74
(lp3230
S':'
asbag67
(g88
g69
NtRp3231
(dp3232
g72
(dp3233
sg81
g3218
sg74
(lp3234
g67
(g68
g69
NtRp3235
(dp3236
g72
(dp3237
g80
I4
ssg81
g3231
sg74
(lp3238
S'5000'
p3239
asbasbasbasbasbasbasbag67
(g83
g69
NtRp3240
(dp3241
g72
(dp3242
sg81
g77
sg74
(lp3243
g67
(g88
g69
NtRp3244
(dp3245
g72
(dp3246
g92
g93
ssg81
g3240
sg74
(lp3247
S'url'
p3248
asbag67
(g88
g69
NtRp3249
(dp3250
g72
(dp3251
g99
g100
ssg81
g3240
sg74
(lp3252
S':'
asbag67
(g88
g69
NtRp3253
(dp3254
g72
(dp3255
sg81
g3240
sg74
(lp3256
g67
(g68
g69
NtRp3257
(dp3258
g72
(dp3259
g80
I5
ssg81
g3253
sg74
(lp3260
S'/GPIBHWS/default/calc_sweep_func'
p3261
asbasbasbag67
(g83
g69
NtRp3262
(dp3263
g72
(dp3264
sg81
g77
sg74
(lp3265
g67
(g88
g69
NtRp3266
(dp3267
g72
(dp3268
g92
g93
ssg81
g3262
sg74
(lp3269
S'utcnow'
p3270
asbag67
(g88
g69
NtRp3271
(dp3272
g72
(dp3273
g99
g100
ssg81
g3262
sg74
(lp3274
S':'
asbag67
(g88
g69
NtRp3275
(dp3276
g72
(dp3277
sg81
g3262
sg74
(lp3278
g67
(g68
g69
NtRp3279
(dp3280
g72
(dp3281
g80
I5
ssg81
g3275
sg74
(lp3282
S'datetime.datetime(2012, 7, 27, 22, 43, 29, 525838)'
p3283
asbasbasbag67
(g83
g69
NtRp3284
(dp3285
g72
(dp3286
sg81
g77
sg74
(lp3287
g67
(g88
g69
NtRp3288
(dp3289
g72
(dp3290
g92
g93
ssg81
g3284
sg74
(lp3291
S'uuid'
p3292
asbag67
(g88
g69
NtRp3293
(dp3294
g72
(dp3295
g99
g100
ssg81
g3284
sg74
(lp3296
S':'
asbag67
(g88
g69
NtRp3297
(dp3298
g72
(dp3299
sg81
g3284
sg74
(lp3300
g67
(g68
g69
NtRp3301
(dp3302
g72
(dp3303
g80
I5
ssg81
g3297
sg74
(lp3304
S'GPIBHWS/127.0.0.1.2012-07-27.18-43-29.e4a65943-9e41-4e22-9827-4273d23462f7'
p3305
asbasbasbag67
(g83
g69
NtRp3306
(dp3307
g72
(dp3308
sg81
g77
sg74
(lp3309
g67
(g88
g69
NtRp3310
(dp3311
g72
(dp3312
g92
g93
ssg81
g3306
sg74
(lp3313
S'vars'
p3314
asbag67
(g88
g69
NtRp3315
(dp3316
g72
(dp3317
g99
g100
ssg81
g3306
sg74
(lp3318
S':'
asbag67
(g88
g69
NtRp3319
(dp3320
g72
(dp3321
sg81
g3306
sg74
(lp3322
g67
(g68
g69
NtRp3323
(dp3324
g72
(dp3325
g80
I5
ssg81
g3319
sg74
(lp3326
g67
(g76
g69
NtRp3327
(dp3328
g72
(dp3329
g80
I4
ssg81
Nsg74
(lp3330
g67
(g83
g69
NtRp3331
(dp3332
g72
(dp3333
sg81
g3327
sg74
(lp3334
g67
(g88
g69
NtRp3335
(dp3336
g72
(dp3337
g92
g93
ssg81
g3331
sg74
(lp3338
g3183
asbag67
(g88
g69
NtRp3339
(dp3340
g72
(dp3341
g99
g100
ssg81
g3331
sg74
(lp3342
S':'
asbag67
(g88
g69
NtRp3343
(dp3344
g72
(dp3345
sg81
g3331
sg74
(lp3346
g67
(g68
g69
NtRp3347
(dp3348
g72
(dp3349
g80
I4
ssg81
g3343
sg74
(lp3350
g3196
asbasbasbag67
(g83
g69
NtRp3351
(dp3352
g72
(dp3353
sg81
g3327
sg74
(lp3354
g67
(g88
g69
NtRp3355
(dp3356
g72
(dp3357
g92
g93
ssg81
g3351
sg74
(lp3358
g3205
asbag67
(g88
g69
NtRp3359
(dp3360
g72
(dp3361
g99
g100
ssg81
g3351
sg74
(lp3362
S':'
asbag67
(g88
g69
NtRp3363
(dp3364
g72
(dp3365
sg81
g3351
sg74
(lp3366
g67
(g68
g69
NtRp3367
(dp3368
g72
(dp3369
g80
I4
ssg81
g3363
sg74
(lp3370
S'5'
asbasbasbag67
(g83
g69
NtRp3371
(dp3372
g72
(dp3373
sg81
g3327
sg74
(lp3374
g67
(g88
g69
NtRp3375
(dp3376
g72
(dp3377
g92
g93
ssg81
g3371
sg74
(lp3378
g3226
asbag67
(g88
g69
NtRp3379
(dp3380
g72
(dp3381
g99
g100
ssg81
g3371
sg74
(lp3382
S':'
asbag67
(g88
g69
NtRp3383
(dp3384
g72
(dp3385
sg81
g3371
sg74
(lp3386
g67
(g68
g69
NtRp3387
(dp3388
g72
(dp3389
g80
I4
ssg81
g3383
sg74
(lp3390
g3239
asbasbasbasbasbasbasbag67
(g83
g69
NtRp3391
(dp3392
g72
(dp3393
sg81
g77
sg74
(lp3394
g67
(g88
g69
NtRp3395
(dp3396
g72
(dp3397
g92
g93
ssg81
g3391
sg74
(lp3398
S'wsgi'
p3399
asbag67
(g88
g69
NtRp3400
(dp3401
g72
(dp3402
g99
g100
ssg81
g3391
sg74
(lp3403
S':'
asbag67
(g88
g69
NtRp3404
(dp3405
g72
(dp3406
sg81
g3391
sg74
(lp3407
g67
(g68
g69
NtRp3408
(dp3409
g72
(dp3410
g80
I5
ssg81
g3404
sg74
(lp3411
g67
(g76
g69
NtRp3412
(dp3413
g72
(dp3414
g80
I4
ssg81
Nsg74
(lp3415
g67
(g83
g69
NtRp3416
(dp3417
g72
(dp3418
sg81
g3412
sg74
(lp3419
g67
(g88
g69
NtRp3420
(dp3421
g72
(dp3422
g92
g93
ssg81
g3416
sg74
(lp3423
S'environ'
p3424
asbag67
(g88
g69
NtRp3425
(dp3426
g72
(dp3427
g99
g100
ssg81
g3416
sg74
(lp3428
S':'
asbag67
(g88
g69
NtRp3429
(dp3430
g72
(dp3431
sg81
g3416
sg74
(lp3432
g67
(g68
g69
NtRp3433
(dp3434
g72
(dp3435
g80
I4
ssg81
g3429
sg74
(lp3436
g67
(g76
g69
NtRp3437
(dp3438
g72
(dp3439
g80
I3
ssg81
Nsg74
(lp3440
g67
(g83
g69
NtRp3441
(dp3442
g72
(dp3443
sg81
g3437
sg74
(lp3444
g67
(g88
g69
NtRp3445
(dp3446
g72
(dp3447
g92
g93
ssg81
g3441
sg74
(lp3448
S'CONTENT_LENGTH'
p3449
asbag67
(g88
g69
NtRp3450
(dp3451
g72
(dp3452
g99
g100
ssg81
g3441
sg74
(lp3453
S':'
asbag67
(g88
g69
NtRp3454
(dp3455
g72
(dp3456
sg81
g3441
sg74
(lp3457
g67
(g68
g69
NtRp3458
(dp3459
g72
(dp3460
g80
I3
ssg81
g3454
sg74
(lp3461
g1695
asbasbasbag67
(g83
g69
NtRp3462
(dp3463
g72
(dp3464
sg81
g3437
sg74
(lp3465
g67
(g88
g69
NtRp3466
(dp3467
g72
(dp3468
g92
g93
ssg81
g3462
sg74
(lp3469
S'CONTENT_TYPE'
p3470
asbag67
(g88
g69
NtRp3471
(dp3472
g72
(dp3473
g99
g100
ssg81
g3462
sg74
(lp3474
S':'
asbag67
(g88
g69
NtRp3475
(dp3476
g72
(dp3477
sg81
g3462
sg74
(lp3478
g67
(g68
g69
NtRp3479
(dp3480
g72
(dp3481
g80
I3
ssg81
g3475
sg74
(lp3482
g1717
asbasbasbag67
(g83
g69
NtRp3483
(dp3484
g72
(dp3485
sg81
g3437
sg74
(lp3486
g67
(g88
g69
NtRp3487
(dp3488
g72
(dp3489
g92
g93
ssg81
g3483
sg74
(lp3490
S'HTTP_ACCEPT'
p3491
asbag67
(g88
g69
NtRp3492
(dp3493
g72
(dp3494
g99
g100
ssg81
g3483
sg74
(lp3495
S':'
asbag67
(g88
g69
NtRp3496
(dp3497
g72
(dp3498
sg81
g3483
sg74
(lp3499
g67
(g68
g69
NtRp3500
(dp3501
g72
(dp3502
g80
I3
ssg81
g3496
sg74
(lp3503
g1805
asbasbasbag67
(g83
g69
NtRp3504
(dp3505
g72
(dp3506
sg81
g3437
sg74
(lp3507
g67
(g88
g69
NtRp3508
(dp3509
g72
(dp3510
g92
g93
ssg81
g3504
sg74
(lp3511
S'HTTP_ACCEPT_CHARSET'
p3512
asbag67
(g88
g69
NtRp3513
(dp3514
g72
(dp3515
g99
g100
ssg81
g3504
sg74
(lp3516
S':'
asbag67
(g88
g69
NtRp3517
(dp3518
g72
(dp3519
sg81
g3504
sg74
(lp3520
g67
(g68
g69
NtRp3521
(dp3522
g72
(dp3523
g80
I3
ssg81
g3517
sg74
(lp3524
g1827
asbasbasbag67
(g83
g69
NtRp3525
(dp3526
g72
(dp3527
sg81
g3437
sg74
(lp3528
g67
(g88
g69
NtRp3529
(dp3530
g72
(dp3531
g92
g93
ssg81
g3525
sg74
(lp3532
S'HTTP_ACCEPT_ENCODING'
p3533
asbag67
(g88
g69
NtRp3534
(dp3535
g72
(dp3536
g99
g100
ssg81
g3525
sg74
(lp3537
S':'
asbag67
(g88
g69
NtRp3538
(dp3539
g72
(dp3540
sg81
g3525
sg74
(lp3541
g67
(g68
g69
NtRp3542
(dp3543
g72
(dp3544
g80
I3
ssg81
g3538
sg74
(lp3545
g1849
asbasbasbag67
(g83
g69
NtRp3546
(dp3547
g72
(dp3548
sg81
g3437
sg74
(lp3549
g67
(g88
g69
NtRp3550
(dp3551
g72
(dp3552
g92
g93
ssg81
g3546
sg74
(lp3553
S'HTTP_ACCEPT_LANGUAGE'
p3554
asbag67
(g88
g69
NtRp3555
(dp3556
g72
(dp3557
g99
g100
ssg81
g3546
sg74
(lp3558
S':'
asbag67
(g88
g69
NtRp3559
(dp3560
g72
(dp3561
sg81
g3546
sg74
(lp3562
g67
(g68
g69
NtRp3563
(dp3564
g72
(dp3565
g80
I3
ssg81
g3559
sg74
(lp3566
g1871
asbasbasbag67
(g83
g69
NtRp3567
(dp3568
g72
(dp3569
sg81
g3437
sg74
(lp3570
g67
(g88
g69
NtRp3571
(dp3572
g72
(dp3573
g92
g93
ssg81
g3567
sg74
(lp3574
S'HTTP_CONNECTION'
p3575
asbag67
(g88
g69
NtRp3576
(dp3577
g72
(dp3578
g99
g100
ssg81
g3567
sg74
(lp3579
S':'
asbag67
(g88
g69
NtRp3580
(dp3581
g72
(dp3582
sg81
g3567
sg74
(lp3583
g67
(g68
g69
NtRp3584
(dp3585
g72
(dp3586
g80
I3
ssg81
g3580
sg74
(lp3587
g1893
asbasbasbag67
(g83
g69
NtRp3588
(dp3589
g72
(dp3590
sg81
g3437
sg74
(lp3591
g67
(g88
g69
NtRp3592
(dp3593
g72
(dp3594
g92
g93
ssg81
g3588
sg74
(lp3595
S'HTTP_CONTENT_LENGTH'
p3596
asbag67
(g88
g69
NtRp3597
(dp3598
g72
(dp3599
g99
g100
ssg81
g3588
sg74
(lp3600
S':'
asbag67
(g88
g69
NtRp3601
(dp3602
g72
(dp3603
sg81
g3588
sg74
(lp3604
g67
(g68
g69
NtRp3605
(dp3606
g72
(dp3607
g80
I3
ssg81
g3601
sg74
(lp3608
g1695
asbasbasbag67
(g83
g69
NtRp3609
(dp3610
g72
(dp3611
sg81
g3437
sg74
(lp3612
g67
(g88
g69
NtRp3613
(dp3614
g72
(dp3615
g92
g93
ssg81
g3609
sg74
(lp3616
S'HTTP_CONTENT_TYPE'
p3617
asbag67
(g88
g69
NtRp3618
(dp3619
g72
(dp3620
g99
g100
ssg81
g3609
sg74
(lp3621
S':'
asbag67
(g88
g69
NtRp3622
(dp3623
g72
(dp3624
sg81
g3609
sg74
(lp3625
g67
(g68
g69
NtRp3626
(dp3627
g72
(dp3628
g80
I3
ssg81
g3622
sg74
(lp3629
g1717
asbasbasbag67
(g83
g69
NtRp3630
(dp3631
g72
(dp3632
sg81
g3437
sg74
(lp3633
g67
(g88
g69
NtRp3634
(dp3635
g72
(dp3636
g92
g93
ssg81
g3630
sg74
(lp3637
S'HTTP_COOKIE'
p3638
asbag67
(g88
g69
NtRp3639
(dp3640
g72
(dp3641
g99
g100
ssg81
g3630
sg74
(lp3642
S':'
asbag67
(g88
g69
NtRp3643
(dp3644
g72
(dp3645
sg81
g3630
sg74
(lp3646
g67
(g68
g69
NtRp3647
(dp3648
g72
(dp3649
g80
I3
ssg81
g3643
sg74
(lp3650
g1957
asbasbasbag67
(g83
g69
NtRp3651
(dp3652
g72
(dp3653
sg81
g3437
sg74
(lp3654
g67
(g88
g69
NtRp3655
(dp3656
g72
(dp3657
g92
g93
ssg81
g3651
sg74
(lp3658
S'HTTP_HOST'
p3659
asbag67
(g88
g69
NtRp3660
(dp3661
g72
(dp3662
g99
g100
ssg81
g3651
sg74
(lp3663
S':'
asbag67
(g88
g69
NtRp3664
(dp3665
g72
(dp3666
sg81
g3651
sg74
(lp3667
g67
(g68
g69
NtRp3668
(dp3669
g72
(dp3670
g80
I3
ssg81
g3664
sg74
(lp3671
g1979
asbasbasbag67
(g83
g69
NtRp3672
(dp3673
g72
(dp3674
sg81
g3437
sg74
(lp3675
g67
(g88
g69
NtRp3676
(dp3677
g72
(dp3678
g92
g93
ssg81
g3672
sg74
(lp3679
S'HTTP_ORIGIN'
p3680
asbag67
(g88
g69
NtRp3681
(dp3682
g72
(dp3683
g99
g100
ssg81
g3672
sg74
(lp3684
S':'
asbag67
(g88
g69
NtRp3685
(dp3686
g72
(dp3687
sg81
g3672
sg74
(lp3688
g67
(g68
g69
NtRp3689
(dp3690
g72
(dp3691
g80
I3
ssg81
g3685
sg74
(lp3692
g2001
asbasbasbag67
(g83
g69
NtRp3693
(dp3694
g72
(dp3695
sg81
g3437
sg74
(lp3696
g67
(g88
g69
NtRp3697
(dp3698
g72
(dp3699
g92
g93
ssg81
g3693
sg74
(lp3700
S'HTTP_REFERER'
p3701
asbag67
(g88
g69
NtRp3702
(dp3703
g72
(dp3704
g99
g100
ssg81
g3693
sg74
(lp3705
S':'
asbag67
(g88
g69
NtRp3706
(dp3707
g72
(dp3708
sg81
g3693
sg74
(lp3709
g67
(g68
g69
NtRp3710
(dp3711
g72
(dp3712
g80
I3
ssg81
g3706
sg74
(lp3713
g2023
asbasbasbag67
(g83
g69
NtRp3714
(dp3715
g72
(dp3716
sg81
g3437
sg74
(lp3717
g67
(g88
g69
NtRp3718
(dp3719
g72
(dp3720
g92
g93
ssg81
g3714
sg74
(lp3721
S'HTTP_USER_AGENT'
p3722
asbag67
(g88
g69
NtRp3723
(dp3724
g72
(dp3725
g99
g100
ssg81
g3714
sg74
(lp3726
S':'
asbag67
(g88
g69
NtRp3727
(dp3728
g72
(dp3729
sg81
g3714
sg74
(lp3730
g67
(g68
g69
NtRp3731
(dp3732
g72
(dp3733
g80
I3
ssg81
g3727
sg74
(lp3734
g2045
asbasbasbag67
(g83
g69
NtRp3735
(dp3736
g72
(dp3737
sg81
g3437
sg74
(lp3738
g67
(g88
g69
NtRp3739
(dp3740
g72
(dp3741
g92
g93
ssg81
g3735
sg74
(lp3742
S'HTTP_X_REQUESTED_WITH'
p3743
asbag67
(g88
g69
NtRp3744
(dp3745
g72
(dp3746
g99
g100
ssg81
g3735
sg74
(lp3747
S':'
asbag67
(g88
g69
NtRp3748
(dp3749
g72
(dp3750
sg81
g3735
sg74
(lp3751
g67
(g68
g69
NtRp3752
(dp3753
g72
(dp3754
g80
I3
ssg81
g3748
sg74
(lp3755
g2067
asbasbasbag67
(g83
g69
NtRp3756
(dp3757
g72
(dp3758
sg81
g3437
sg74
(lp3759
g67
(g88
g69
NtRp3760
(dp3761
g72
(dp3762
g92
g93
ssg81
g3756
sg74
(lp3763
S'PATH_INFO'
p3764
asbag67
(g88
g69
NtRp3765
(dp3766
g72
(dp3767
g99
g100
ssg81
g3756
sg74
(lp3768
S':'
asbag67
(g88
g69
NtRp3769
(dp3770
g72
(dp3771
sg81
g3756
sg74
(lp3772
g67
(g68
g69
NtRp3773
(dp3774
g72
(dp3775
g80
I3
ssg81
g3769
sg74
(lp3776
g2131
asbasbasbag67
(g83
g69
NtRp3777
(dp3778
g72
(dp3779
sg81
g3437
sg74
(lp3780
g67
(g88
g69
NtRp3781
(dp3782
g72
(dp3783
g92
g93
ssg81
g3777
sg74
(lp3784
S'QUERY_STRING'
p3785
asbag67
(g88
g69
NtRp3786
(dp3787
g72
(dp3788
g99
g100
ssg81
g3777
sg74
(lp3789
S':'
asbag67
(g88
g69
NtRp3790
(dp3791
g72
(dp3792
sg81
g3777
sg74
(lp3793
g67
(g68
g69
NtRp3794
(dp3795
g72
(dp3796
g80
I3
ssg81
g3790
sg74
(lp3797
S''
asbasbasbag67
(g83
g69
NtRp3798
(dp3799
g72
(dp3800
sg81
g3437
sg74
(lp3801
g67
(g88
g69
NtRp3802
(dp3803
g72
(dp3804
g92
g93
ssg81
g3798
sg74
(lp3805
S'REMOTE_ADDR'
p3806
asbag67
(g88
g69
NtRp3807
(dp3808
g72
(dp3809
g99
g100
ssg81
g3798
sg74
(lp3810
S':'
asbag67
(g88
g69
NtRp3811
(dp3812
g72
(dp3813
sg81
g3798
sg74
(lp3814
g67
(g68
g69
NtRp3815
(dp3816
g72
(dp3817
g80
I3
ssg81
g3811
sg74
(lp3818
g200
asbasbasbag67
(g83
g69
NtRp3819
(dp3820
g72
(dp3821
sg81
g3437
sg74
(lp3822
g67
(g88
g69
NtRp3823
(dp3824
g72
(dp3825
g92
g93
ssg81
g3819
sg74
(lp3826
S'REMOTE_PORT'
p3827
asbag67
(g88
g69
NtRp3828
(dp3829
g72
(dp3830
g99
g100
ssg81
g3819
sg74
(lp3831
S':'
asbag67
(g88
g69
NtRp3832
(dp3833
g72
(dp3834
sg81
g3819
sg74
(lp3835
g67
(g68
g69
NtRp3836
(dp3837
g72
(dp3838
g80
I3
ssg81
g3832
sg74
(lp3839
g2195
asbasbasbag67
(g83
g69
NtRp3840
(dp3841
g72
(dp3842
sg81
g3437
sg74
(lp3843
g67
(g88
g69
NtRp3844
(dp3845
g72
(dp3846
g92
g93
ssg81
g3840
sg74
(lp3847
S'REQUEST_METHOD'
p3848
asbag67
(g88
g69
NtRp3849
(dp3850
g72
(dp3851
g99
g100
ssg81
g3840
sg74
(lp3852
S':'
asbag67
(g88
g69
NtRp3853
(dp3854
g72
(dp3855
sg81
g3840
sg74
(lp3856
g67
(g68
g69
NtRp3857
(dp3858
g72
(dp3859
g80
I3
ssg81
g3853
sg74
(lp3860
g2217
asbasbasbag67
(g83
g69
NtRp3861
(dp3862
g72
(dp3863
sg81
g3437
sg74
(lp3864
g67
(g88
g69
NtRp3865
(dp3866
g72
(dp3867
g92
g93
ssg81
g3861
sg74
(lp3868
S'SCRIPT_NAME'
p3869
asbag67
(g88
g69
NtRp3870
(dp3871
g72
(dp3872
g99
g100
ssg81
g3861
sg74
(lp3873
S':'
asbag67
(g88
g69
NtRp3874
(dp3875
g72
(dp3876
sg81
g3861
sg74
(lp3877
g67
(g68
g69
NtRp3878
(dp3879
g72
(dp3880
g80
I3
ssg81
g3874
sg74
(lp3881
S''
asbasbasbag67
(g83
g69
NtRp3882
(dp3883
g72
(dp3884
sg81
g3437
sg74
(lp3885
g67
(g88
g69
NtRp3886
(dp3887
g72
(dp3888
g92
g93
ssg81
g3882
sg74
(lp3889
S'SERVER_NAME'
p3890
asbag67
(g88
g69
NtRp3891
(dp3892
g72
(dp3893
g99
g100
ssg81
g3882
sg74
(lp3894
S':'
asbag67
(g88
g69
NtRp3895
(dp3896
g72
(dp3897
sg81
g3882
sg74
(lp3898
g67
(g68
g69
NtRp3899
(dp3900
g72
(dp3901
g80
I3
ssg81
g3895
sg74
(lp3902
g2260
asbasbasbag67
(g83
g69
NtRp3903
(dp3904
g72
(dp3905
sg81
g3437
sg74
(lp3906
g67
(g88
g69
NtRp3907
(dp3908
g72
(dp3909
g92
g93
ssg81
g3903
sg74
(lp3910
S'SERVER_PORT'
p3911
asbag67
(g88
g69
NtRp3912
(dp3913
g72
(dp3914
g99
g100
ssg81
g3903
sg74
(lp3915
S':'
asbag67
(g88
g69
NtRp3916
(dp3917
g72
(dp3918
sg81
g3903
sg74
(lp3919
g67
(g68
g69
NtRp3920
(dp3921
g72
(dp3922
g80
I3
ssg81
g3916
sg74
(lp3923
g2282
asbasbasbag67
(g83
g69
NtRp3924
(dp3925
g72
(dp3926
sg81
g3437
sg74
(lp3927
g67
(g88
g69
NtRp3928
(dp3929
g72
(dp3930
g92
g93
ssg81
g3924
sg74
(lp3931
S'SERVER_PROTOCOL'
p3932
asbag67
(g88
g69
NtRp3933
(dp3934
g72
(dp3935
g99
g100
ssg81
g3924
sg74
(lp3936
S':'
asbag67
(g88
g69
NtRp3937
(dp3938
g72
(dp3939
sg81
g3924
sg74
(lp3940
g67
(g68
g69
NtRp3941
(dp3942
g72
(dp3943
g80
I3
ssg81
g3937
sg74
(lp3944
g2304
asbasbasbag67
(g83
g69
NtRp3945
(dp3946
g72
(dp3947
sg81
g3437
sg74
(lp3948
g67
(g88
g69
NtRp3949
(dp3950
g72
(dp3951
g92
g93
ssg81
g3945
sg74
(lp3952
S'SERVER_SOFTWARE'
p3953
asbag67
(g88
g69
NtRp3954
(dp3955
g72
(dp3956
g99
g100
ssg81
g3945
sg74
(lp3957
S':'
asbag67
(g88
g69
NtRp3958
(dp3959
g72
(dp3960
sg81
g3945
sg74
(lp3961
g67
(g68
g69
NtRp3962
(dp3963
g72
(dp3964
g80
I3
ssg81
g3958
sg74
(lp3965
g2326
asbasbasbag67
(g83
g69
NtRp3966
(dp3967
g72
(dp3968
sg81
g3437
sg74
(lp3969
g67
(g88
g69
NtRp3970
(dp3971
g72
(dp3972
g92
g93
ssg81
g3966
sg74
(lp3973
S'wsgi.errors'
p3974
asbag67
(g88
g69
NtRp3975
(dp3976
g72
(dp3977
g99
g100
ssg81
g3966
sg74
(lp3978
S':'
asbag67
(g88
g69
NtRp3979
(dp3980
g72
(dp3981
sg81
g3966
sg74
(lp3982
g67
(g68
g69
NtRp3983
(dp3984
g72
(dp3985
g80
I3
ssg81
g3979
sg74
(lp3986
S"<open file '<stderr>', mode 'w' at 0x3410d0>"
p3987
asbasbasbag67
(g83
g69
NtRp3988
(dp3989
g72
(dp3990
sg81
g3437
sg74
(lp3991
g67
(g88
g69
NtRp3992
(dp3993
g72
(dp3994
g92
g93
ssg81
g3988
sg74
(lp3995
S'wsgi.file_wrapper'
p3996
asbag67
(g88
g69
NtRp3997
(dp3998
g72
(dp3999
g99
g100
ssg81
g3988
sg74
(lp4000
S':'
asbag67
(g88
g69
NtRp4001
(dp4002
g72
(dp4003
sg81
g3988
sg74
(lp4004
g67
(g68
g69
NtRp4005
(dp4006
g72
(dp4007
g80
I3
ssg81
g4001
sg74
(lp4008
S'<class wsgiref.util.FileWrapper at 0x18934b0>'
p4009
asbasbasbag67
(g83
g69
NtRp4010
(dp4011
g72
(dp4012
sg81
g3437
sg74
(lp4013
g67
(g88
g69
NtRp4014
(dp4015
g72
(dp4016
g92
g93
ssg81
g4010
sg74
(lp4017
S'wsgi.input'
p4018
asbag67
(g88
g69
NtRp4019
(dp4020
g72
(dp4021
g99
g100
ssg81
g4010
sg74
(lp4022
S':'
asbag67
(g88
g69
NtRp4023
(dp4024
g72
(dp4025
sg81
g4010
sg74
(lp4026
g67
(g68
g69
NtRp4027
(dp4028
g72
(dp4029
g80
I3
ssg81
g4023
sg74
(lp4030
S"<open file '<fdopen>', mode 'w+b' at 0x1873f0d0>"
p4031
asbasbasbag67
(g83
g69
NtRp4032
(dp4033
g72
(dp4034
sg81
g3437
sg74
(lp4035
g67
(g88
g69
NtRp4036
(dp4037
g72
(dp4038
g92
g93
ssg81
g4032
sg74
(lp4039
S'wsgi.multiprocess'
p4040
asbag67
(g88
g69
NtRp4041
(dp4042
g72
(dp4043
g99
g100
ssg81
g4032
sg74
(lp4044
S':'
asbag67
(g88
g69
NtRp4045
(dp4046
g72
(dp4047
sg81
g4032
sg74
(lp4048
g67
(g68
g69
NtRp4049
(dp4050
g72
(dp4051
g80
I3
ssg81
g4045
sg74
(lp4052
g1761
asbasbasbag67
(g83
g69
NtRp4053
(dp4054
g72
(dp4055
sg81
g3437
sg74
(lp4056
g67
(g88
g69
NtRp4057
(dp4058
g72
(dp4059
g92
g93
ssg81
g4053
sg74
(lp4060
S'wsgi.multithread'
p4061
asbag67
(g88
g69
NtRp4062
(dp4063
g72
(dp4064
g99
g100
ssg81
g4053
sg74
(lp4065
S':'
asbag67
(g88
g69
NtRp4066
(dp4067
g72
(dp4068
sg81
g4053
sg74
(lp4069
g67
(g68
g69
NtRp4070
(dp4071
g72
(dp4072
g80
I3
ssg81
g4066
sg74
(lp4073
g110
asbasbasbag67
(g83
g69
NtRp4074
(dp4075
g72
(dp4076
sg81
g3437
sg74
(lp4077
g67
(g88
g69
NtRp4078
(dp4079
g72
(dp4080
g92
g93
ssg81
g4074
sg74
(lp4081
S'wsgi.run_once'
p4082
asbag67
(g88
g69
NtRp4083
(dp4084
g72
(dp4085
g99
g100
ssg81
g4074
sg74
(lp4086
S':'
asbag67
(g88
g69
NtRp4087
(dp4088
g72
(dp4089
sg81
g4074
sg74
(lp4090
g67
(g68
g69
NtRp4091
(dp4092
g72
(dp4093
g80
I3
ssg81
g4087
sg74
(lp4094
g1761
asbasbasbag67
(g83
g69
NtRp4095
(dp4096
g72
(dp4097
sg81
g3437
sg74
(lp4098
g67
(g88
g69
NtRp4099
(dp4100
g72
(dp4101
g92
g93
ssg81
g4095
sg74
(lp4102
S'wsgi.url_scheme'
p4103
asbag67
(g88
g69
NtRp4104
(dp4105
g72
(dp4106
g99
g100
ssg81
g4095
sg74
(lp4107
S':'
asbag67
(g88
g69
NtRp4108
(dp4109
g72
(dp4110
sg81
g4095
sg74
(lp4111
g67
(g68
g69
NtRp4112
(dp4113
g72
(dp4114
g80
I3
ssg81
g4108
sg74
(lp4115
g2607
asbasbasbag67
(g83
g69
NtRp4116
(dp4117
g72
(dp4118
sg81
g3437
sg74
(lp4119
g67
(g88
g69
NtRp4120
(dp4121
g72
(dp4122
g92
g93
ssg81
g4116
sg74
(lp4123
S'wsgi.version'
p4124
asbag67
(g88
g69
NtRp4125
(dp4126
g72
(dp4127
g99
g100
ssg81
g4116
sg74
(lp4128
S':'
asbag67
(g88
g69
NtRp4129
(dp4130
g72
(dp4131
sg81
g4116
sg74
(lp4132
g67
(g68
g69
NtRp4133
(dp4134
g72
(dp4135
g80
I3
ssg81
g4129
sg74
(lp4136
S'1'
asbasbasbasbasbasbasbasbasbasbasbasbasbsS'frames'
p4137
(lp4138
(dp4139
S'file'
p4140
S'/web2pyTrunk/gluon/restricted.py'
p4141
sS'dump'
p4142
(dp4143
S'environment'
p4144
S"{'A': <class 'gluon.html.A'>, 'ALLOW_THREADS': 1, 'Annotation': <class 'matplotlib.text.Annotation'>, 'Arrow': <class 'matplotlib.patches.Arrow'>, 'Artist': <class 'matplotlib.artist.Artist'>, 'Auth': <class 'gluon.tools.Auth'>, 'AutoLocator': <class matplotlib.ticker.AutoLocator>, 'Axes': <class 'matplotlib.axes.Axes'>, 'B': <class 'gluon.html.B'>, 'BEAUTIFY': <class 'gluon.html.BEAUTIFY'>, ...}"
p4145
sS'ccode'
p4146
S'<code object <module> at 0x19f40608, file "/web2...cations/GPIBHWS/controllers/default.py", line 10>'
p4147
ssS'lnum'
p4148
I205
sS'lines'
p4149
(dp4150
I200
S'    try:'
p4151
sI201
S'        if type(code) == types.CodeType:'
p4152
sI202
S'            ccode = code'
p4153
sI203
S'        else:'
p4154
sI204
S'            ccode = compile2(code,layer)'
p4155
sI205
S'        exec ccode in environment'
p4156
sI206
S'    except HTTP:'
p4157
sI207
S'        raise'
p4158
sI208
S'    except RestrictedError:'
p4159
sI209
S'        # do not encapsulate (obfuscate) the original RestrictedError'
p4160
ssS'call'
p4161
S"(code='# -*- coding: utf-8 -*-\\n\\n#######################...response._vars=response._caller(calc_sweep_func)\\n', environment={'A': <class 'gluon.html.A'>, 'ALLOW_THREADS': 1, 'Annotation': <class 'matplotlib.text.Annotation'>, 'Arrow': <class 'matplotlib.patches.Arrow'>, 'Artist': <class 'matplotlib.artist.Artist'>, 'Auth': <class 'gluon.tools.Auth'>, 'AutoLocator': <class matplotlib.ticker.AutoLocator>, 'Axes': <class 'matplotlib.axes.Axes'>, 'B': <class 'gluon.html.B'>, 'BEAUTIFY': <class 'gluon.html.BEAUTIFY'>, ...}, layer='/web2pyTrunk/applications/GPIBHWS/controllers/default.py')"
p4162
sS'func'
p4163
S'restricted'
p4164
sa(dp4165
g4140
S'/web2pyTrunk/applications/GPIBHWS/controllers/default.py'
p4166
sg4142
(dp4167
sg4148
I689
sg4149
(dp4168
I678
S'    http://..../[app]/default/data/update/[table]/[id]'
p4169
sI679
S'    http://..../[app]/default/data/delete/[table]/[id]'
p4170
sI680
S'    http://..../[app]/default/data/select/[table]'
p4171
sI681
S'    http://..../[app]/default/data/search/[table]'
p4172
sI682
S'    but URLs must be signed, i.e. linked with'
p4173
sI683
S"      A('table',_href=URL('data/tables',user_signature=True))"
p4174
sI684
S'    or with the signed load operator'
p4175
sI685
S"      LOAD('default','data.load',args='tables',ajax=True,user_signature=True)"
p4176
sI686
S'    """'
p4177
sI687
S'    return dict(form=crud())'
p4178
ssg4161
S'()'
p4179
sg4163
S'<module>'
p4180
sa(dp4181
g4140
S'/web2pyTrunk/gluon/globals.py'
p4182
sg4142
(dp4183
S'self'
p4184
S'undefined'
p4185
sS'f'
S'<function calc_sweep_func>'
p4186
ssg4148
I182
sg4149
(dp4187
I177
S'        self.menu = []             # used by the default view layout'
p4188
sI178
S'        self.files = []            # used by web2py_ajax.html'
p4189
sI179
S'        self.generic_patterns = [] # patterns to allow generic views'
p4190
sI180
S"        self.delimiters = ('{{','}}')"
p4191
sI181
S'        self._vars = None'
p4192
sI182
S'        self._caller = lambda f: f()'
p4193
sI183
S'        self._view_environment = None'
p4194
sI184
S'        self._custom_commit = None'
p4195
sI185
S'        self._custom_rollback = None'
p4196
sI186
S''
ssg4161
S'(f=<function calc_sweep_func>)'
p4197
sg4163
S'<lambda>'
p4198
sa(dp4199
g4140
S'/web2pyTrunk/applications/GPIBHWS/controllers/default.py'
p4200
sg4142
(dp4201
S'swp_el'
p4202
g4185
sS'sock.recv'
p4203
S'<built-in method recv of _socket.socket object>'
p4204
sS'sock'
p4205
S'<socket._socketobject object>'
p4206
ssg4148
I572
sg4149
(dp4207
I576
S''
sI567
S'    sock.send("SWRT;" + NL)'
p4208
sI568
S'    time.sleep(0.5)'
p4209
sI569
S'    sock.send("SWRT?" + NL)'
p4210
sI570
S'    time.sleep(6)'
p4211
sI571
S'    sock.send("++read eoi" + NL)'
p4212
sI572
S'    swp_el = sock.recv(64)'
p4213
sI573
S"    swp_el = swp_el.split('\\r\\n')[0]"
p4214
sI574
S''
sI575
S'    return "jQuery(\'#gpib_sweep_rate\').val(%s);" % repr(swp_el)'
p4215
ssg4161
S'()'
p4216
sg4163
S'calc_sweep_func'
p4217
sasS'pyver'
p4218
S'Python 2.6.6: /Library/Frameworks/Python.framework/Versions/2.6/Resources/Python.app/Contents/MacOS/Python'
p4219
sS'session'
p4220
g67
(g68
g69
NtRp4221
(dp4222
g72
(dp4223
sg74
(lp4224
g67
(g76
g69
NtRp4225
(dp4226
g72
(dp4227
g80
I5
ssg81
Nsg74
(lp4228
g67
(g83
g69
NtRp4229
(dp4230
g72
(dp4231
sg81
g4225
sg74
(lp4232
g67
(g88
g69
NtRp4233
(dp4234
g72
(dp4235
g92
g93
ssg81
g4229
sg74
(lp4236
S'run_type'
p4237
asbag67
(g88
g69
NtRp4238
(dp4239
g72
(dp4240
g99
g100
ssg81
g4229
sg74
(lp4241
S':'
asbag67
(g88
g69
NtRp4242
(dp4243
g72
(dp4244
sg81
g4229
sg74
(lp4245
g67
(g68
g69
NtRp4246
(dp4247
g72
(dp4248
g80
I5
ssg81
g4242
sg74
(lp4249
S'Sweep'
p4250
asbasbasbasbasbsS'etype'
p4251
S"<class 'socket.timeout'>"
p4252
sS'date'
p4253
S'Fri Jul 27 18:43:47 2012'
p4254
sS'response'
p4255
g67
(g68
g69
NtRp4256
(dp4257
g72
(dp4258
sg74
(lp4259
g67
(g76
g69
NtRp4260
(dp4261
g72
(dp4262
g80
I5
ssg81
Nsg74
(lp4263
g67
(g83
g69
NtRp4264
(dp4265
g72
(dp4266
sg81
g4260
sg74
(lp4267
g67
(g88
g69
NtRp4268
(dp4269
g72
(dp4270
g92
g93
ssg81
g4264
sg74
(lp4271
g165
asbag67
(g88
g69
NtRp4272
(dp4273
g72
(dp4274
g99
g100
ssg81
g4264
sg74
(lp4275
S':'
asbag67
(g88
g69
NtRp4276
(dp4277
g72
(dp4278
sg81
g4264
sg74
(lp4279
g67
(g68
g69
NtRp4280
(dp4281
g72
(dp4282
g80
I5
ssg81
g4276
sg74
(lp4283
S'<cStringIO.StringO object at 0x1ac59c80>'
p4284
asbasbasbag67
(g83
g69
NtRp4285
(dp4286
g72
(dp4287
sg81
g4260
sg74
(lp4288
g67
(g88
g69
NtRp4289
(dp4290
g72
(dp4291
g92
g93
ssg81
g4285
sg74
(lp4292
g231
asbag67
(g88
g69
NtRp4293
(dp4294
g72
(dp4295
g99
g100
ssg81
g4285
sg74
(lp4296
S':'
asbag67
(g88
g69
NtRp4297
(dp4298
g72
(dp4299
sg81
g4285
sg74
(lp4300
g67
(g68
g69
NtRp4301
(dp4302
g72
(dp4303
g80
I5
ssg81
g4297
sg74
(lp4304
g67
(g76
g69
NtRp4305
(dp4306
g72
(dp4307
g80
I4
ssg81
Nsg74
(lp4308
g67
(g83
g69
NtRp4309
(dp4310
g72
(dp4311
sg81
g4305
sg74
(lp4312
g67
(g88
g69
NtRp4313
(dp4314
g72
(dp4315
g92
g93
ssg81
g4309
sg74
(lp4316
S'session_id_gpibhws'
p4317
asbag67
(g88
g69
NtRp4318
(dp4319
g72
(dp4320
g99
g100
ssg81
g4309
sg74
(lp4321
S':'
asbag67
(g88
g69
NtRp4322
(dp4323
g72
(dp4324
sg81
g4309
sg74
(lp4325
g67
(g68
g69
NtRp4326
(dp4327
g72
(dp4328
g80
I4
ssg81
g4322
sg74
(lp4329
g835
ag67
(g76
g69
NtRp4330
(dp4331
g72
(dp4332
g80
I3
ssg81
Nsg74
(lp4333
g67
(g83
g69
NtRp4334
(dp4335
g72
(dp4336
sg81
g4330
sg74
(lp4337
g67
(g88
g69
NtRp4338
(dp4339
g72
(dp4340
g92
g93
ssg81
g4334
sg74
(lp4341
g282
asbag67
(g88
g69
NtRp4342
(dp4343
g72
(dp4344
g99
g100
ssg81
g4334
sg74
(lp4345
S':'
asbag67
(g88
g69
NtRp4346
(dp4347
g72
(dp4348
sg81
g4334
sg74
(lp4349
g67
(g68
g69
NtRp4350
(dp4351
g72
(dp4352
g80
I3
ssg81
g4346
sg74
(lp4353
S''
asbasbasbag67
(g83
g69
NtRp4354
(dp4355
g72
(dp4356
sg81
g4330
sg74
(lp4357
g67
(g88
g69
NtRp4358
(dp4359
g72
(dp4360
g92
g93
ssg81
g4354
sg74
(lp4361
g303
asbag67
(g88
g69
NtRp4362
(dp4363
g72
(dp4364
g99
g100
ssg81
g4354
sg74
(lp4365
S':'
asbag67
(g88
g69
NtRp4366
(dp4367
g72
(dp4368
sg81
g4354
sg74
(lp4369
g67
(g68
g69
NtRp4370
(dp4371
g72
(dp4372
g80
I3
ssg81
g4366
sg74
(lp4373
S''
asbasbasbag67
(g83
g69
NtRp4374
(dp4375
g72
(dp4376
sg81
g4330
sg74
(lp4377
g67
(g88
g69
NtRp4378
(dp4379
g72
(dp4380
g92
g93
ssg81
g4374
sg74
(lp4381
g324
asbag67
(g88
g69
NtRp4382
(dp4383
g72
(dp4384
g99
g100
ssg81
g4374
sg74
(lp4385
S':'
asbag67
(g88
g69
NtRp4386
(dp4387
g72
(dp4388
sg81
g4374
sg74
(lp4389
g67
(g68
g69
NtRp4390
(dp4391
g72
(dp4392
g80
I3
ssg81
g4386
sg74
(lp4393
S''
asbasbasbag67
(g83
g69
NtRp4394
(dp4395
g72
(dp4396
sg81
g4330
sg74
(lp4397
g67
(g88
g69
NtRp4398
(dp4399
g72
(dp4400
g92
g93
ssg81
g4394
sg74
(lp4401
g345
asbag67
(g88
g69
NtRp4402
(dp4403
g72
(dp4404
g99
g100
ssg81
g4394
sg74
(lp4405
S':'
asbag67
(g88
g69
NtRp4406
(dp4407
g72
(dp4408
sg81
g4394
sg74
(lp4409
g67
(g68
g69
NtRp4410
(dp4411
g72
(dp4412
g80
I3
ssg81
g4406
sg74
(lp4413
S''
asbasbasbag67
(g83
g69
NtRp4414
(dp4415
g72
(dp4416
sg81
g4330
sg74
(lp4417
g67
(g88
g69
NtRp4418
(dp4419
g72
(dp4420
g92
g93
ssg81
g4414
sg74
(lp4421
g366
asbag67
(g88
g69
NtRp4422
(dp4423
g72
(dp4424
g99
g100
ssg81
g4414
sg74
(lp4425
S':'
asbag67
(g88
g69
NtRp4426
(dp4427
g72
(dp4428
sg81
g4414
sg74
(lp4429
g67
(g68
g69
NtRp4430
(dp4431
g72
(dp4432
g80
I3
ssg81
g4426
sg74
(lp4433
S''
asbasbasbag67
(g83
g69
NtRp4434
(dp4435
g72
(dp4436
sg81
g4330
sg74
(lp4437
g67
(g88
g69
NtRp4438
(dp4439
g72
(dp4440
g92
g93
ssg81
g4434
sg74
(lp4441
g387
asbag67
(g88
g69
NtRp4442
(dp4443
g72
(dp4444
g99
g100
ssg81
g4434
sg74
(lp4445
S':'
asbag67
(g88
g69
NtRp4446
(dp4447
g72
(dp4448
sg81
g4434
sg74
(lp4449
g67
(g68
g69
NtRp4450
(dp4451
g72
(dp4452
g80
I3
ssg81
g4446
sg74
(lp4453
S'/'
asbasbasbag67
(g83
g69
NtRp4454
(dp4455
g72
(dp4456
sg81
g4330
sg74
(lp4457
g67
(g88
g69
NtRp4458
(dp4459
g72
(dp4460
g92
g93
ssg81
g4454
sg74
(lp4461
g408
asbag67
(g88
g69
NtRp4462
(dp4463
g72
(dp4464
g99
g100
ssg81
g4454
sg74
(lp4465
S':'
asbag67
(g88
g69
NtRp4466
(dp4467
g72
(dp4468
sg81
g4454
sg74
(lp4469
g67
(g68
g69
NtRp4470
(dp4471
g72
(dp4472
g80
I3
ssg81
g4466
sg74
(lp4473
S''
asbasbasbag67
(g83
g69
NtRp4474
(dp4475
g72
(dp4476
sg81
g4330
sg74
(lp4477
g67
(g88
g69
NtRp4478
(dp4479
g72
(dp4480
g92
g93
ssg81
g4474
sg74
(lp4481
g429
asbag67
(g88
g69
NtRp4482
(dp4483
g72
(dp4484
g99
g100
ssg81
g4474
sg74
(lp4485
S':'
asbag67
(g88
g69
NtRp4486
(dp4487
g72
(dp4488
sg81
g4474
sg74
(lp4489
g67
(g68
g69
NtRp4490
(dp4491
g72
(dp4492
g80
I3
ssg81
g4486
sg74
(lp4493
S''
asbasbasbasbasbasbasbasbasbasbasbag67
(g83
g69
NtRp4494
(dp4495
g72
(dp4496
sg81
g4260
sg74
(lp4497
g67
(g88
g69
NtRp4498
(dp4499
g72
(dp4500
g92
g93
ssg81
g4494
sg74
(lp4501
S'delimiters'
p4502
asbag67
(g88
g69
NtRp4503
(dp4504
g72
(dp4505
g99
g100
ssg81
g4494
sg74
(lp4506
S':'
asbag67
(g88
g69
NtRp4507
(dp4508
g72
(dp4509
sg81
g4494
sg74
(lp4510
g67
(g68
g69
NtRp4511
(dp4512
g72
(dp4513
g80
I5
ssg81
g4507
sg74
(lp4514
g67
(g76
g69
NtRp4515
(dp4516
g72
(dp4517
g80
I4
ssg81
Nsg74
(lp4518
g67
(g83
g69
NtRp4519
(dp4520
g72
(dp4521
sg81
g4515
sg74
(lp4522
g67
(g88
g69
NtRp4523
(dp4524
g72
(dp4525
sg81
g4519
sg74
(lp4526
g67
(g68
g69
NtRp4527
(dp4528
g72
(dp4529
g80
I4
ssg81
g4523
sg74
(lp4530
S'{{'
p4531
asbasbasbag67
(g83
g69
NtRp4532
(dp4533
g72
(dp4534
sg81
g4515
sg74
(lp4535
g67
(g88
g69
NtRp4536
(dp4537
g72
(dp4538
sg81
g4532
sg74
(lp4539
g67
(g68
g69
NtRp4540
(dp4541
g72
(dp4542
g80
I4
ssg81
g4536
sg74
(lp4543
S'}}'
p4544
asbasbasbasbasbasbasbag67
(g83
g69
NtRp4545
(dp4546
g72
(dp4547
sg81
g4260
sg74
(lp4548
g67
(g88
g69
NtRp4549
(dp4550
g72
(dp4551
g92
g93
ssg81
g4545
sg74
(lp4552
S'files'
p4553
asbag67
(g88
g69
NtRp4554
(dp4555
g72
(dp4556
g99
g100
ssg81
g4545
sg74
(lp4557
S':'
asbag67
(g88
g69
NtRp4558
(dp4559
g72
(dp4560
sg81
g4545
sg74
(lp4561
g67
(g68
g69
NtRp4562
(dp4563
g72
(dp4564
g80
I5
ssg81
g4558
sg74
(lp4565
g67
(g76
g69
NtRp4566
(dp4567
g72
(dp4568
g80
I4
ssg81
Nsg74
(lp4569
sbasbasbasbag67
(g83
g69
NtRp4570
(dp4571
g72
(dp4572
sg81
g4260
sg74
(lp4573
g67
(g88
g69
NtRp4574
(dp4575
g72
(dp4576
g92
g93
ssg81
g4570
sg74
(lp4577
S'flash'
p4578
asbag67
(g88
g69
NtRp4579
(dp4580
g72
(dp4581
g99
g100
ssg81
g4570
sg74
(lp4582
S':'
asbag67
(g88
g69
NtRp4583
(dp4584
g72
(dp4585
sg81
g4570
sg74
(lp4586
g67
(g68
g69
NtRp4587
(dp4588
g72
(dp4589
g80
I5
ssg81
g4583
sg74
(lp4590
S''
asbasbasbag67
(g83
g69
NtRp4591
(dp4592
g72
(dp4593
sg81
g4260
sg74
(lp4594
g67
(g88
g69
NtRp4595
(dp4596
g72
(dp4597
g92
g93
ssg81
g4591
sg74
(lp4598
S'generic_patterns'
p4599
asbag67
(g88
g69
NtRp4600
(dp4601
g72
(dp4602
g99
g100
ssg81
g4591
sg74
(lp4603
S':'
asbag67
(g88
g69
NtRp4604
(dp4605
g72
(dp4606
sg81
g4591
sg74
(lp4607
g67
(g68
g69
NtRp4608
(dp4609
g72
(dp4610
g80
I5
ssg81
g4604
sg74
(lp4611
g67
(g76
g69
NtRp4612
(dp4613
g72
(dp4614
g80
I4
ssg81
Nsg74
(lp4615
g67
(g83
g69
NtRp4616
(dp4617
g72
(dp4618
sg81
g4612
sg74
(lp4619
g67
(g88
g69
NtRp4620
(dp4621
g72
(dp4622
sg81
g4616
sg74
(lp4623
g67
(g68
g69
NtRp4624
(dp4625
g72
(dp4626
g80
I4
ssg81
g4620
sg74
(lp4627
S'*'
asbasbasbasbasbasbasbag67
(g83
g69
NtRp4628
(dp4629
g72
(dp4630
sg81
g4260
sg74
(lp4631
g67
(g88
g69
NtRp4632
(dp4633
g72
(dp4634
g92
g93
ssg81
g4628
sg74
(lp4635
S'headers'
p4636
asbag67
(g88
g69
NtRp4637
(dp4638
g72
(dp4639
g99
g100
ssg81
g4628
sg74
(lp4640
S':'
asbag67
(g88
g69
NtRp4641
(dp4642
g72
(dp4643
sg81
g4628
sg74
(lp4644
g67
(g68
g69
NtRp4645
(dp4646
g72
(dp4647
g80
I5
ssg81
g4641
sg74
(lp4648
g67
(g76
g69
NtRp4649
(dp4650
g72
(dp4651
g80
I4
ssg81
Nsg74
(lp4652
g67
(g83
g69
NtRp4653
(dp4654
g72
(dp4655
sg81
g4649
sg74
(lp4656
g67
(g88
g69
NtRp4657
(dp4658
g72
(dp4659
g92
g93
ssg81
g4653
sg74
(lp4660
S'Cache-Control'
p4661
asbag67
(g88
g69
NtRp4662
(dp4663
g72
(dp4664
g99
g100
ssg81
g4653
sg74
(lp4665
S':'
asbag67
(g88
g69
NtRp4666
(dp4667
g72
(dp4668
sg81
g4653
sg74
(lp4669
g67
(g68
g69
NtRp4670
(dp4671
g72
(dp4672
g80
I4
ssg81
g4666
sg74
(lp4673
S'no-store, no-cache, must-revalidate, post-check=0, pre-check=0'
p4674
asbasbasbag67
(g83
g69
NtRp4675
(dp4676
g72
(dp4677
sg81
g4649
sg74
(lp4678
g67
(g88
g69
NtRp4679
(dp4680
g72
(dp4681
g92
g93
ssg81
g4675
sg74
(lp4682
S'Content-Type'
p4683
asbag67
(g88
g69
NtRp4684
(dp4685
g72
(dp4686
g99
g100
ssg81
g4675
sg74
(lp4687
S':'
asbag67
(g88
g69
NtRp4688
(dp4689
g72
(dp4690
sg81
g4675
sg74
(lp4691
g67
(g68
g69
NtRp4692
(dp4693
g72
(dp4694
g80
I4
ssg81
g4688
sg74
(lp4695
S'text/html; charset=utf-8'
p4696
asbasbasbag67
(g83
g69
NtRp4697
(dp4698
g72
(dp4699
sg81
g4649
sg74
(lp4700
g67
(g88
g69
NtRp4701
(dp4702
g72
(dp4703
g92
g93
ssg81
g4697
sg74
(lp4704
S'Expires'
p4705
asbag67
(g88
g69
NtRp4706
(dp4707
g72
(dp4708
g99
g100
ssg81
g4697
sg74
(lp4709
S':'
asbag67
(g88
g69
NtRp4710
(dp4711
g72
(dp4712
sg81
g4697
sg74
(lp4713
g67
(g68
g69
NtRp4714
(dp4715
g72
(dp4716
g80
I4
ssg81
g4710
sg74
(lp4717
S'Fri, 27 Jul 2012 22:43:29 GMT'
p4718
asbasbasbag67
(g83
g69
NtRp4719
(dp4720
g72
(dp4721
sg81
g4649
sg74
(lp4722
g67
(g88
g69
NtRp4723
(dp4724
g72
(dp4725
g92
g93
ssg81
g4719
sg74
(lp4726
S'Pragma'
p4727
asbag67
(g88
g69
NtRp4728
(dp4729
g72
(dp4730
g99
g100
ssg81
g4719
sg74
(lp4731
S':'
asbag67
(g88
g69
NtRp4732
(dp4733
g72
(dp4734
sg81
g4719
sg74
(lp4735
g67
(g68
g69
NtRp4736
(dp4737
g72
(dp4738
g80
I4
ssg81
g4732
sg74
(lp4739
S'no-cache'
p4740
asbasbasbag67
(g83
g69
NtRp4741
(dp4742
g72
(dp4743
sg81
g4649
sg74
(lp4744
g67
(g88
g69
NtRp4745
(dp4746
g72
(dp4747
g92
g93
ssg81
g4741
sg74
(lp4748
S'X-Powered-By'
p4749
asbag67
(g88
g69
NtRp4750
(dp4751
g72
(dp4752
g99
g100
ssg81
g4741
sg74
(lp4753
S':'
asbag67
(g88
g69
NtRp4754
(dp4755
g72
(dp4756
sg81
g4741
sg74
(lp4757
g67
(g68
g69
NtRp4758
(dp4759
g72
(dp4760
g80
I4
ssg81
g4754
sg74
(lp4761
S'web2py'
p4762
asbasbasbasbasbasbasbag67
(g83
g69
NtRp4763
(dp4764
g72
(dp4765
sg81
g4260
sg74
(lp4766
g67
(g88
g69
NtRp4767
(dp4768
g72
(dp4769
g92
g93
ssg81
g4763
sg74
(lp4770
S'menu'
p4771
asbag67
(g88
g69
NtRp4772
(dp4773
g72
(dp4774
g99
g100
ssg81
g4763
sg74
(lp4775
S':'
asbag67
(g88
g69
NtRp4776
(dp4777
g72
(dp4778
sg81
g4763
sg74
(lp4779
g67
(g68
g69
NtRp4780
(dp4781
g72
(dp4782
g80
I5
ssg81
g4776
sg74
(lp4783
g67
(g76
g69
NtRp4784
(dp4785
g72
(dp4786
g80
I4
ssg81
Nsg74
(lp4787
g67
(g83
g69
NtRp4788
(dp4789
g72
(dp4790
sg81
g4784
sg74
(lp4791
g67
(g88
g69
NtRp4792
(dp4793
g72
(dp4794
sg81
g4788
sg74
(lp4795
g67
(g68
g69
NtRp4796
(dp4797
g72
(dp4798
g80
I4
ssg81
g4792
sg74
(lp4799
g67
(g76
g69
NtRp4800
(dp4801
g72
(dp4802
g80
I3
ssg81
Nsg74
(lp4803
g67
(g83
g69
NtRp4804
(dp4805
g72
(dp4806
sg81
g4800
sg74
(lp4807
g67
(g88
g69
NtRp4808
(dp4809
g72
(dp4810
sg81
g4804
sg74
(lp4811
g67
(g68
g69
NtRp4812
(dp4813
g72
(dp4814
g80
I3
ssg81
g4808
sg74
(lp4815
cgluon.languages
lazyT_unpickle
p4816
(S's\x04\x00\x00\x00Home'
tRp4817
asbasbasbag67
(g83
g69
NtRp4818
(dp4819
g72
(dp4820
sg81
g4800
sg74
(lp4821
g67
(g88
g69
NtRp4822
(dp4823
g72
(dp4824
sg81
g4818
sg74
(lp4825
g67
(g68
g69
NtRp4826
(dp4827
g72
(dp4828
g80
I3
ssg81
g4822
sg74
(lp4829
g1761
asbasbasbag67
(g83
g69
NtRp4830
(dp4831
g72
(dp4832
sg81
g4800
sg74
(lp4833
g67
(g88
g69
NtRp4834
(dp4835
g72
(dp4836
sg81
g4830
sg74
(lp4837
g67
(g68
g69
NtRp4838
(dp4839
g72
(dp4840
g80
I3
ssg81
g4834
sg74
(lp4841
S'/GPIBHWS/default/index'
p4842
asbasbasbag67
(g83
g69
NtRp4843
(dp4844
g72
(dp4845
sg81
g4800
sg74
(lp4846
g67
(g88
g69
NtRp4847
(dp4848
g72
(dp4849
sg81
g4843
sg74
(lp4850
g67
(g68
g69
NtRp4851
(dp4852
g72
(dp4853
g80
I3
ssg81
g4847
sg74
(lp4854
g67
(g76
g69
NtRp4855
(dp4856
g72
(dp4857
g80
I2
ssg81
Nsg74
(lp4858
sbasbasbasbasbasbasbasbag67
(g83
g69
NtRp4859
(dp4860
g72
(dp4861
sg81
g4784
sg74
(lp4862
g67
(g88
g69
NtRp4863
(dp4864
g72
(dp4865
sg81
g4859
sg74
(lp4866
g67
(g68
g69
NtRp4867
(dp4868
g72
(dp4869
g80
I4
ssg81
g4863
sg74
(lp4870
g67
(g76
g69
NtRp4871
(dp4872
g72
(dp4873
g80
I3
ssg81
Nsg74
(lp4874
g67
(g83
g69
NtRp4875
(dp4876
g72
(dp4877
sg81
g4871
sg74
(lp4878
g67
(g88
g69
NtRp4879
(dp4880
g72
(dp4881
sg81
g4875
sg74
(lp4882
g67
(g68
g69
NtRp4883
(dp4884
g72
(dp4885
g80
I3
ssg81
g4879
sg74
(lp4886
g67
(cgluon.html
SPAN
p4887
g69
NtRp4888
(dp4889
g72
(dp4890
g92
S'color:yellow'
p4891
ssg81
Nsg74
(lp4892
g4762
asbasbasbasbag67
(g83
g69
NtRp4893
(dp4894
g72
(dp4895
sg81
g4871
sg74
(lp4896
g67
(g88
g69
NtRp4897
(dp4898
g72
(dp4899
sg81
g4893
sg74
(lp4900
g67
(g68
g69
NtRp4901
(dp4902
g72
(dp4903
g80
I3
ssg81
g4897
sg74
(lp4904
g1761
asbasbasbag67
(g83
g69
NtRp4905
(dp4906
g72
(dp4907
sg81
g4871
sg74
(lp4908
g67
(g88
g69
NtRp4909
(dp4910
g72
(dp4911
sg81
g4905
sg74
(lp4912
g67
(g68
g69
NtRp4913
(dp4914
g72
(dp4915
g80
I3
ssg81
g4909
sg74
(lp4916
S'None'
p4917
asbasbasbag67
(g83
g69
NtRp4918
(dp4919
g72
(dp4920
sg81
g4871
sg74
(lp4921
g67
(g88
g69
NtRp4922
(dp4923
g72
(dp4924
sg81
g4918
sg74
(lp4925
g67
(g68
g69
NtRp4926
(dp4927
g72
(dp4928
g80
I3
ssg81
g4922
sg74
(lp4929
g67
(g76
g69
NtRp4930
(dp4931
g72
(dp4932
g80
I2
ssg81
Nsg74
(lp4933
g67
(g83
g69
NtRp4934
(dp4935
g72
(dp4936
sg81
g4930
sg74
(lp4937
g67
(g88
g69
NtRp4938
(dp4939
g72
(dp4940
sg81
g4934
sg74
(lp4941
g67
(g68
g69
NtRp4942
(dp4943
g72
(dp4944
g80
I2
ssg81
g4938
sg74
(lp4945
g67
(g76
g69
NtRp4946
(dp4947
g72
(dp4948
g80
I1
ssg81
Nsg74
(lp4949
g67
(g83
g69
NtRp4950
(dp4951
g72
(dp4952
sg81
g4946
sg74
(lp4953
g67
(g88
g69
NtRp4954
(dp4955
g72
(dp4956
sg81
g4950
sg74
(lp4957
g67
(g68
g69
NtRp4958
(dp4959
g72
(dp4960
g80
I1
ssg81
g4954
sg74
(lp4961
g4816
(S's\x08\x00\x00\x00My Sites'
tRp4962
asbasbasbag67
(g83
g69
NtRp4963
(dp4964
g72
(dp4965
sg81
g4946
sg74
(lp4966
g67
(g88
g69
NtRp4967
(dp4968
g72
(dp4969
sg81
g4963
sg74
(lp4970
g67
(g68
g69
NtRp4971
(dp4972
g72
(dp4973
g80
I1
ssg81
g4967
sg74
(lp4974
I00
asbasbasbag67
(g83
g69
NtRp4975
(dp4976
g72
(dp4977
sg81
g4946
sg74
(lp4978
g67
(g88
g69
NtRp4979
(dp4980
g72
(dp4981
sg81
g4975
sg74
(lp4982
g67
(g68
g69
NtRp4983
(dp4984
g72
(dp4985
g80
I1
ssg81
g4979
sg74
(lp4986
S'/admin/default/site'
p4987
asbasbasbasbasbasbasbag67
(g83
g69
NtRp4988
(dp4989
g72
(dp4990
sg81
g4930
sg74
(lp4991
g67
(g88
g69
NtRp4992
(dp4993
g72
(dp4994
sg81
g4988
sg74
(lp4995
g67
(g68
g69
NtRp4996
(dp4997
g72
(dp4998
g80
I2
ssg81
g4992
sg74
(lp4999
g67
(g76
g69
NtRp5000
(dp5001
g72
(dp5002
g80
I1
ssg81
Nsg74
(lp5003
g67
(g83
g69
NtRp5004
(dp5005
g72
(dp5006
sg81
g5000
sg74
(lp5007
g67
(g88
g69
NtRp5008
(dp5009
g72
(dp5010
sg81
g5004
sg74
(lp5011
g67
(g68
g69
NtRp5012
(dp5013
g72
(dp5014
g80
I1
ssg81
g5008
sg74
(lp5015
g4816
(S's\x08\x00\x00\x00This App'
tRp5016
asbasbasbag67
(g83
g69
NtRp5017
(dp5018
g72
(dp5019
sg81
g5000
sg74
(lp5020
g67
(g88
g69
NtRp5021
(dp5022
g72
(dp5023
sg81
g5017
sg74
(lp5024
g67
(g68
g69
NtRp5025
(dp5026
g72
(dp5027
g80
I1
ssg81
g5021
sg74
(lp5028
I00
asbasbasbag67
(g83
g69
NtRp5029
(dp5030
g72
(dp5031
sg81
g5000
sg74
(lp5032
g67
(g88
g69
NtRp5033
(dp5034
g72
(dp5035
sg81
g5029
sg74
(lp5036
g67
(g68
g69
NtRp5037
(dp5038
g72
(dp5039
g80
I1
ssg81
g5033
sg74
(lp5040
S'/admin/default/design/GPIBHWS'
p5041
asbasbasbag67
(g83
g69
NtRp5042
(dp5043
g72
(dp5044
sg81
g5000
sg74
(lp5045
g67
(g88
g69
NtRp5046
(dp5047
g72
(dp5048
sg81
g5042
sg74
(lp5049
g67
(g68
g69
NtRp5050
(dp5051
g72
(dp5052
g80
I1
ssg81
g5046
sg74
(lp5053
(lp5054
(g4816
(S's\n\x00\x00\x00Controller'
tRp5055
I00
S'/admin/default/edit/GPIBHWS/controllers/default.py'
tp5056
a(g4816
(S's\x04\x00\x00\x00View'
tRp5057
I00
S'/admin/default/edit/GPIBHWS/views/default/calc_sweep_func.html'
tp5058
a(g4816
(S's\x06\x00\x00\x00Layout'
tRp5059
I00
S'/admin/default/edit/GPIBHWS/views/layout.html'
tp5060
a(g4816
(S's\n\x00\x00\x00Stylesheet'
tRp5061
I00
S'/admin/default/edit/GPIBHWS/static/css/web2py.css'
tp5062
a(g4816
(S's\x08\x00\x00\x00DB Model'
tRp5063
I00
S'/admin/default/edit/GPIBHWS/models/db.py'
tp5064
a(g4816
(S's\n\x00\x00\x00Menu Model'
tRp5065
I00
S'/admin/default/edit/GPIBHWS/models/menu.py'
tp5066
a(g4816
(S's\x08\x00\x00\x00Database'
tRp5067
I00
S'/GPIBHWS/appadmin/index'
tp5068
a(g4816
(S's\x06\x00\x00\x00Errors'
tRp5069
I00
S'/admin/default/errors/GPIBHWS'
tp5070
a(g4816
(S's\x05\x00\x00\x00About'
tRp5071
I00
S'/admin/default/about/GPIBHWS'
tp5072
aasbasbasbasbasbasbasbag67
(g83
g69
NtRp5073
(dp5074
g72
(dp5075
sg81
g4930
sg74
(lp5076
g67
(g88
g69
NtRp5077
(dp5078
g72
(dp5079
sg81
g5073
sg74
(lp5080
g67
(g68
g69
NtRp5081
(dp5082
g72
(dp5083
g80
I2
ssg81
g5077
sg74
(lp5084
g67
(g76
g69
NtRp5085
(dp5086
g72
(dp5087
g80
I1
ssg81
Nsg74
(lp5088
g67
(g83
g69
NtRp5089
(dp5090
g72
(dp5091
sg81
g5085
sg74
(lp5092
g67
(g88
g69
NtRp5093
(dp5094
g72
(dp5095
sg81
g5089
sg74
(lp5096
g67
(g68
g69
NtRp5097
(dp5098
g72
(dp5099
g80
I1
ssg81
g5093
sg74
(lp5100
S'web2py.com'
p5101
asbasbasbag67
(g83
g69
NtRp5102
(dp5103
g72
(dp5104
sg81
g5085
sg74
(lp5105
g67
(g88
g69
NtRp5106
(dp5107
g72
(dp5108
sg81
g5102
sg74
(lp5109
g67
(g68
g69
NtRp5110
(dp5111
g72
(dp5112
g80
I1
ssg81
g5106
sg74
(lp5113
I00
asbasbasbag67
(g83
g69
NtRp5114
(dp5115
g72
(dp5116
sg81
g5085
sg74
(lp5117
g67
(g88
g69
NtRp5118
(dp5119
g72
(dp5120
sg81
g5114
sg74
(lp5121
g67
(g68
g69
NtRp5122
(dp5123
g72
(dp5124
g80
I1
ssg81
g5118
sg74
(lp5125
S'http://www.web2py.com'
p5126
asbasbasbag67
(g83
g69
NtRp5127
(dp5128
g72
(dp5129
sg81
g5085
sg74
(lp5130
g67
(g88
g69
NtRp5131
(dp5132
g72
(dp5133
sg81
g5127
sg74
(lp5134
g67
(g68
g69
NtRp5135
(dp5136
g72
(dp5137
g80
I1
ssg81
g5131
sg74
(lp5138
(lp5139
(g4816
(S's\x08\x00\x00\x00Download'
tRp5140
I00
S'http://www.web2py.com/examples/default/download'
p5141
tp5142
a(g4816
(S's\x07\x00\x00\x00Support'
tRp5143
I00
S'http://www.web2py.com/examples/default/support'
p5144
tp5145
a(g4816
(S's\x04\x00\x00\x00Demo'
tRp5146
I00
S'http://web2py.com/demo_admin'
p5147
tp5148
a(g4816
(S's\x0e\x00\x00\x00Quick Examples'
tRp5149
I00
S'http://web2py.com/examples/default/examples'
p5150
tp5151
a(g4816
(S's\x03\x00\x00\x00FAQ'
tRp5152
I00
S'http://web2py.com/AlterEgo'
p5153
tp5154
a(g4816
(S's\x06\x00\x00\x00Videos'
tRp5155
I00
S'http://www.web2py.com/examples/default/videos/'
p5156
tp5157
a(g4816
(S's\x11\x00\x00\x00Free Applications'
tRp5158
I00
S'http://web2py.com/appliances'
p5159
tp5160
a(g4816
(S's\x07\x00\x00\x00Plugins'
tRp5161
I00
S'http://web2py.com/plugins'
p5162
tp5163
a(g4816
(S's\x07\x00\x00\x00Layouts'
tRp5164
I00
S'http://web2py.com/layouts'
p5165
tp5166
a(g4816
(S's\x07\x00\x00\x00Recipes'
tRp5167
I00
S'http://web2pyslices.com/'
p5168
tp5169
a(g4816
(S's\x08\x00\x00\x00Semantic'
tRp5170
I00
S'http://web2py.com/semantic'
p5171
tp5172
aasbasbasbasbasbasbasbag67
(g83
g69
NtRp5173
(dp5174
g72
(dp5175
sg81
g4930
sg74
(lp5176
g67
(g88
g69
NtRp5177
(dp5178
g72
(dp5179
sg81
g5173
sg74
(lp5180
g67
(g68
g69
NtRp5181
(dp5182
g72
(dp5183
g80
I2
ssg81
g5177
sg74
(lp5184
g67
(g76
g69
NtRp5185
(dp5186
g72
(dp5187
g80
I1
ssg81
Nsg74
(lp5188
g67
(g83
g69
NtRp5189
(dp5190
g72
(dp5191
sg81
g5185
sg74
(lp5192
g67
(g88
g69
NtRp5193
(dp5194
g72
(dp5195
sg81
g5189
sg74
(lp5196
g67
(g68
g69
NtRp5197
(dp5198
g72
(dp5199
g80
I1
ssg81
g5193
sg74
(lp5200
g4816
(S's\r\x00\x00\x00Documentation'
tRp5201
asbasbasbag67
(g83
g69
NtRp5202
(dp5203
g72
(dp5204
sg81
g5185
sg74
(lp5205
g67
(g88
g69
NtRp5206
(dp5207
g72
(dp5208
sg81
g5202
sg74
(lp5209
g67
(g68
g69
NtRp5210
(dp5211
g72
(dp5212
g80
I1
ssg81
g5206
sg74
(lp5213
I00
asbasbasbag67
(g83
g69
NtRp5214
(dp5215
g72
(dp5216
sg81
g5185
sg74
(lp5217
g67
(g88
g69
NtRp5218
(dp5219
g72
(dp5220
sg81
g5214
sg74
(lp5221
g67
(g68
g69
NtRp5222
(dp5223
g72
(dp5224
g80
I1
ssg81
g5218
sg74
(lp5225
S'http://www.web2py.com/book'
p5226
asbasbasbag67
(g83
g69
NtRp5227
(dp5228
g72
(dp5229
sg81
g5185
sg74
(lp5230
g67
(g88
g69
NtRp5231
(dp5232
g72
(dp5233
sg81
g5227
sg74
(lp5234
g67
(g68
g69
NtRp5235
(dp5236
g72
(dp5237
g80
I1
ssg81
g5231
sg74
(lp5238
(lp5239
(g4816
(S's\x07\x00\x00\x00Preface'
tRp5240
I00
S'http://www.web2py.com/book/default/chapter/00'
p5241
tp5242
a(g4816
(S's\x0c\x00\x00\x00Introduction'
tRp5243
I00
S'http://www.web2py.com/book/default/chapter/01'
p5244
tp5245
a(g4816
(S's\x06\x00\x00\x00Python'
tRp5246
I00
S'http://www.web2py.com/book/default/chapter/02'
p5247
tp5248
a(g4816
(S's\x08\x00\x00\x00Overview'
tRp5249
I00
S'http://www.web2py.com/book/default/chapter/03'
p5250
tp5251
a(g4816
(S's\x08\x00\x00\x00The Core'
tRp5252
I00
S'http://www.web2py.com/book/default/chapter/04'
p5253
tp5254
a(g4816
(S's\t\x00\x00\x00The Views'
tRp5255
I00
S'http://www.web2py.com/book/default/chapter/05'
p5256
tp5257
a(g4816
(S's\x08\x00\x00\x00Database'
tRp5258
I00
S'http://www.web2py.com/book/default/chapter/06'
p5259
tp5260
a(g4816
(S's\x14\x00\x00\x00Forms and Validators'
tRp5261
I00
S'http://www.web2py.com/book/default/chapter/07'
p5262
tp5263
a(g4816
(S's\r\x00\x00\x00Email and SMS'
tRp5264
I00
S'http://www.web2py.com/book/default/chapter/08'
p5265
tp5266
a(g4816
(S's\x0e\x00\x00\x00Access Control'
tRp5267
I00
S'http://www.web2py.com/book/default/chapter/09'
p5268
tp5269
a(g4816
(S's\x08\x00\x00\x00Services'
tRp5270
I00
S'http://www.web2py.com/book/default/chapter/10'
p5271
tp5272
a(g4816
(S's\x0c\x00\x00\x00Ajax Recipes'
tRp5273
I00
S'http://www.web2py.com/book/default/chapter/11'
p5274
tp5275
a(g4816
(S's\x16\x00\x00\x00Components and Plugins'
tRp5276
I00
S'http://www.web2py.com/book/default/chapter/12'
p5277
tp5278
a(g4816
(S's\x12\x00\x00\x00Deployment Recipes'
tRp5279
I00
S'http://www.web2py.com/book/default/chapter/13'
p5280
tp5281
a(g4816
(S's\r\x00\x00\x00Other Recipes'
tRp5282
I00
S'http://www.web2py.com/book/default/chapter/14'
p5283
tp5284
a(g4816
(S's\r\x00\x00\x00Buy this book'
tRp5285
I00
S'http://stores.lulu.com/web2py'
p5286
tp5287
aasbasbasbasbasbasbasbag67
(g83
g69
NtRp5288
(dp5289
g72
(dp5290
sg81
g4930
sg74
(lp5291
g67
(g88
g69
NtRp5292
(dp5293
g72
(dp5294
sg81
g5288
sg74
(lp5295
g67
(g68
g69
NtRp5296
(dp5297
g72
(dp5298
g80
I2
ssg81
g5292
sg74
(lp5299
g67
(g76
g69
NtRp5300
(dp5301
g72
(dp5302
g80
I1
ssg81
Nsg74
(lp5303
g67
(g83
g69
NtRp5304
(dp5305
g72
(dp5306
sg81
g5300
sg74
(lp5307
g67
(g88
g69
NtRp5308
(dp5309
g72
(dp5310
sg81
g5304
sg74
(lp5311
g67
(g68
g69
NtRp5312
(dp5313
g72
(dp5314
g80
I1
ssg81
g5308
sg74
(lp5315
g4816
(S's\t\x00\x00\x00Community'
tRp5316
asbasbasbag67
(g83
g69
NtRp5317
(dp5318
g72
(dp5319
sg81
g5300
sg74
(lp5320
g67
(g88
g69
NtRp5321
(dp5322
g72
(dp5323
sg81
g5317
sg74
(lp5324
g67
(g68
g69
NtRp5325
(dp5326
g72
(dp5327
g80
I1
ssg81
g5321
sg74
(lp5328
I00
asbasbasbag67
(g83
g69
NtRp5329
(dp5330
g72
(dp5331
sg81
g5300
sg74
(lp5332
g67
(g88
g69
NtRp5333
(dp5334
g72
(dp5335
sg81
g5329
sg74
(lp5336
g67
(g68
g69
NtRp5337
(dp5338
g72
(dp5339
g80
I1
ssg81
g5333
sg74
(lp5340
Nasbasbasbag67
(g83
g69
NtRp5341
(dp5342
g72
(dp5343
sg81
g5300
sg74
(lp5344
g67
(g88
g69
NtRp5345
(dp5346
g72
(dp5347
sg81
g5341
sg74
(lp5348
g67
(g68
g69
NtRp5349
(dp5350
g72
(dp5351
g80
I1
ssg81
g5345
sg74
(lp5352
(lp5353
(g4816
(S's\x06\x00\x00\x00Groups'
tRp5354
I00
S'http://www.web2py.com/examples/default/usergroups'
p5355
tp5356
a(g4816
(S's\x07\x00\x00\x00Twitter'
tRp5357
I00
S'http://twitter.com/web2py'
p5358
tp5359
a(g4816
(S's\t\x00\x00\x00Live Chat'
tRp5360
I00
S'http://webchat.freenode.net/?channels=web2py'
p5361
tp5362
aasbasbasbasbasbasbasbag67
(g83
g69
NtRp5363
(dp5364
g72
(dp5365
sg81
g4930
sg74
(lp5366
g67
(g88
g69
NtRp5367
(dp5368
g72
(dp5369
sg81
g5363
sg74
(lp5370
g67
(g68
g69
NtRp5371
(dp5372
g72
(dp5373
g80
I2
ssg81
g5367
sg74
(lp5374
g67
(g76
g69
NtRp5375
(dp5376
g72
(dp5377
g80
I1
ssg81
Nsg74
(lp5378
g67
(g83
g69
NtRp5379
(dp5380
g72
(dp5381
sg81
g5375
sg74
(lp5382
g67
(g88
g69
NtRp5383
(dp5384
g72
(dp5385
sg81
g5379
sg74
(lp5386
g67
(g68
g69
NtRp5387
(dp5388
g72
(dp5389
g80
I1
ssg81
g5383
sg74
(lp5390
g4816
(S's\x07\x00\x00\x00Plugins'
tRp5391
asbasbasbag67
(g83
g69
NtRp5392
(dp5393
g72
(dp5394
sg81
g5375
sg74
(lp5395
g67
(g88
g69
NtRp5396
(dp5397
g72
(dp5398
sg81
g5392
sg74
(lp5399
g67
(g68
g69
NtRp5400
(dp5401
g72
(dp5402
g80
I1
ssg81
g5396
sg74
(lp5403
I00
asbasbasbag67
(g83
g69
NtRp5404
(dp5405
g72
(dp5406
sg81
g5375
sg74
(lp5407
g67
(g88
g69
NtRp5408
(dp5409
g72
(dp5410
sg81
g5404
sg74
(lp5411
g67
(g68
g69
NtRp5412
(dp5413
g72
(dp5414
g80
I1
ssg81
g5408
sg74
(lp5415
Nasbasbasbag67
(g83
g69
NtRp5416
(dp5417
g72
(dp5418
sg81
g5375
sg74
(lp5419
g67
(g88
g69
NtRp5420
(dp5421
g72
(dp5422
sg81
g5416
sg74
(lp5423
g67
(g68
g69
NtRp5424
(dp5425
g72
(dp5426
g80
I1
ssg81
g5420
sg74
(lp5427
(lp5428
(S'plugin_wiki'
p5429
I00
S'http://web2py.com/examples/default/download'
p5430
tp5431
a(g4816
(S's\r\x00\x00\x00Other Plugins'
tRp5432
I00
g5162
tp5433
a(g4816
(S's\x0e\x00\x00\x00Layout Plugins'
tRp5434
I00
g5165
tp5435
aasbasbasbasbasbasbasbasbasbasbasbasbasbasbasbasbasbasbasbag67
(g83
g69
NtRp5436
(dp5437
g72
(dp5438
sg81
g4260
sg74
(lp5439
g67
(g88
g69
NtRp5440
(dp5441
g72
(dp5442
g92
g93
ssg81
g5436
sg74
(lp5443
S'meta'
p5444
asbag67
(g88
g69
NtRp5445
(dp5446
g72
(dp5447
g99
g100
ssg81
g5436
sg74
(lp5448
S':'
asbag67
(g88
g69
NtRp5449
(dp5450
g72
(dp5451
sg81
g5436
sg74
(lp5452
g67
(g68
g69
NtRp5453
(dp5454
g72
(dp5455
g80
I5
ssg81
g5449
sg74
(lp5456
g67
(g76
g69
NtRp5457
(dp5458
g72
(dp5459
g80
I4
ssg81
Nsg74
(lp5460
g67
(g83
g69
NtRp5461
(dp5462
g72
(dp5463
sg81
g5457
sg74
(lp5464
g67
(g88
g69
NtRp5465
(dp5466
g72
(dp5467
g92
g93
ssg81
g5461
sg74
(lp5468
S'author'
p5469
asbag67
(g88
g69
NtRp5470
(dp5471
g72
(dp5472
g99
g100
ssg81
g5461
sg74
(lp5473
S':'
asbag67
(g88
g69
NtRp5474
(dp5475
g72
(dp5476
sg81
g5461
sg74
(lp5477
g67
(g68
g69
NtRp5478
(dp5479
g72
(dp5480
g80
I4
ssg81
g5474
sg74
(lp5481
S'Your Name <you@example.com>'
p5482
asbasbasbag67
(g83
g69
NtRp5483
(dp5484
g72
(dp5485
sg81
g5457
sg74
(lp5486
g67
(g88
g69
NtRp5487
(dp5488
g72
(dp5489
g92
g93
ssg81
g5483
sg74
(lp5490
S'copyright'
p5491
asbag67
(g88
g69
NtRp5492
(dp5493
g72
(dp5494
g99
g100
ssg81
g5483
sg74
(lp5495
S':'
asbag67
(g88
g69
NtRp5496
(dp5497
g72
(dp5498
sg81
g5483
sg74
(lp5499
g67
(g68
g69
NtRp5500
(dp5501
g72
(dp5502
g80
I4
ssg81
g5496
sg74
(lp5503
S'Copyright 2011'
p5504
asbasbasbag67
(g83
g69
NtRp5505
(dp5506
g72
(dp5507
sg81
g5457
sg74
(lp5508
g67
(g88
g69
NtRp5509
(dp5510
g72
(dp5511
g92
g93
ssg81
g5505
sg74
(lp5512
S'description'
p5513
asbag67
(g88
g69
NtRp5514
(dp5515
g72
(dp5516
g99
g100
ssg81
g5505
sg74
(lp5517
S':'
asbag67
(g88
g69
NtRp5518
(dp5519
g72
(dp5520
sg81
g5505
sg74
(lp5521
g67
(g68
g69
NtRp5522
(dp5523
g72
(dp5524
g80
I4
ssg81
g5518
sg74
(lp5525
S'a cool new app'
p5526
asbasbasbag67
(g83
g69
NtRp5527
(dp5528
g72
(dp5529
sg81
g5457
sg74
(lp5530
g67
(g88
g69
NtRp5531
(dp5532
g72
(dp5533
g92
g93
ssg81
g5527
sg74
(lp5534
S'generator'
p5535
asbag67
(g88
g69
NtRp5536
(dp5537
g72
(dp5538
g99
g100
ssg81
g5527
sg74
(lp5539
S':'
asbag67
(g88
g69
NtRp5540
(dp5541
g72
(dp5542
sg81
g5527
sg74
(lp5543
g67
(g68
g69
NtRp5544
(dp5545
g72
(dp5546
g80
I4
ssg81
g5540
sg74
(lp5547
S'Web2py Web Framework'
p5548
asbasbasbag67
(g83
g69
NtRp5549
(dp5550
g72
(dp5551
sg81
g5457
sg74
(lp5552
g67
(g88
g69
NtRp5553
(dp5554
g72
(dp5555
g92
g93
ssg81
g5549
sg74
(lp5556
S'keywords'
p5557
asbag67
(g88
g69
NtRp5558
(dp5559
g72
(dp5560
g99
g100
ssg81
g5549
sg74
(lp5561
S':'
asbag67
(g88
g69
NtRp5562
(dp5563
g72
(dp5564
sg81
g5549
sg74
(lp5565
g67
(g68
g69
NtRp5566
(dp5567
g72
(dp5568
g80
I4
ssg81
g5562
sg74
(lp5569
S'web2py, python, framework'
p5570
asbasbasbasbasbasbasbag67
(g83
g69
NtRp5571
(dp5572
g72
(dp5573
sg81
g4260
sg74
(lp5574
g67
(g88
g69
NtRp5575
(dp5576
g72
(dp5577
g92
g93
ssg81
g5571
sg74
(lp5578
S'postprocessing'
p5579
asbag67
(g88
g69
NtRp5580
(dp5581
g72
(dp5582
g99
g100
ssg81
g5571
sg74
(lp5583
S':'
asbag67
(g88
g69
NtRp5584
(dp5585
g72
(dp5586
sg81
g5571
sg74
(lp5587
g67
(g68
g69
NtRp5588
(dp5589
g72
(dp5590
g80
I5
ssg81
g5584
sg74
(lp5591
g67
(g76
g69
NtRp5592
(dp5593
g72
(dp5594
g80
I4
ssg81
Nsg74
(lp5595
sbasbasbasbag67
(g83
g69
NtRp5596
(dp5597
g72
(dp5598
sg81
g4260
sg74
(lp5599
g67
(g88
g69
NtRp5600
(dp5601
g72
(dp5602
g92
g93
ssg81
g5596
sg74
(lp5603
S'session_file'
p5604
asbag67
(g88
g69
NtRp5605
(dp5606
g72
(dp5607
g99
g100
ssg81
g5596
sg74
(lp5608
S':'
asbag67
(g88
g69
NtRp5609
(dp5610
g72
(dp5611
sg81
g5596
sg74
(lp5612
g67
(g68
g69
NtRp5613
(dp5614
g72
(dp5615
g80
I5
ssg81
g5609
sg74
(lp5616
S"<open file '/web2pyTrunk/applications/GPIBHWS/sessions/127.0.0.1-6f11aa51-d759-4ec6-a0c2-b8d4140bb744', mode 'rb+' at 0x184cb180>"
p5617
asbasbasbag67
(g83
g69
NtRp5618
(dp5619
g72
(dp5620
sg81
g4260
sg74
(lp5621
g67
(g88
g69
NtRp5622
(dp5623
g72
(dp5624
g92
g93
ssg81
g5618
sg74
(lp5625
S'session_filename'
p5626
asbag67
(g88
g69
NtRp5627
(dp5628
g72
(dp5629
g99
g100
ssg81
g5618
sg74
(lp5630
S':'
asbag67
(g88
g69
NtRp5631
(dp5632
g72
(dp5633
sg81
g5618
sg74
(lp5634
g67
(g68
g69
NtRp5635
(dp5636
g72
(dp5637
g80
I5
ssg81
g5631
sg74
(lp5638
S'/web2pyTrunk/applications/GPIBHWS/sessions/127.0.0.1-6f11aa51-d759-4ec6-a0c2-b8d4140bb744'
p5639
asbasbasbag67
(g83
g69
NtRp5640
(dp5641
g72
(dp5642
sg81
g4260
sg74
(lp5643
g67
(g88
g69
NtRp5644
(dp5645
g72
(dp5646
g92
g93
ssg81
g5640
sg74
(lp5647
S'session_id'
p5648
asbag67
(g88
g69
NtRp5649
(dp5650
g72
(dp5651
g99
g100
ssg81
g5640
sg74
(lp5652
S':'
asbag67
(g88
g69
NtRp5653
(dp5654
g72
(dp5655
sg81
g5640
sg74
(lp5656
g67
(g68
g69
NtRp5657
(dp5658
g72
(dp5659
g80
I5
ssg81
g5653
sg74
(lp5660
g835
asbasbasbag67
(g83
g69
NtRp5661
(dp5662
g72
(dp5663
sg81
g4260
sg74
(lp5664
g67
(g88
g69
NtRp5665
(dp5666
g72
(dp5667
g92
g93
ssg81
g5661
sg74
(lp5668
S'session_id_name'
p5669
asbag67
(g88
g69
NtRp5670
(dp5671
g72
(dp5672
g99
g100
ssg81
g5661
sg74
(lp5673
S':'
asbag67
(g88
g69
NtRp5674
(dp5675
g72
(dp5676
sg81
g5661
sg74
(lp5677
g67
(g68
g69
NtRp5678
(dp5679
g72
(dp5680
g80
I5
ssg81
g5674
sg74
(lp5681
g4317
asbasbasbag67
(g83
g69
NtRp5682
(dp5683
g72
(dp5684
sg81
g4260
sg74
(lp5685
g67
(g88
g69
NtRp5686
(dp5687
g72
(dp5688
g92
g93
ssg81
g5682
sg74
(lp5689
S'session_locked'
p5690
asbag67
(g88
g69
NtRp5691
(dp5692
g72
(dp5693
g99
g100
ssg81
g5682
sg74
(lp5694
S':'
asbag67
(g88
g69
NtRp5695
(dp5696
g72
(dp5697
sg81
g5682
sg74
(lp5698
g67
(g68
g69
NtRp5699
(dp5700
g72
(dp5701
g80
I5
ssg81
g5695
sg74
(lp5702
g110
asbasbasbag67
(g83
g69
NtRp5703
(dp5704
g72
(dp5705
sg81
g4260
sg74
(lp5706
g67
(g88
g69
NtRp5707
(dp5708
g72
(dp5709
g92
g93
ssg81
g5703
sg74
(lp5710
S'session_new'
p5711
asbag67
(g88
g69
NtRp5712
(dp5713
g72
(dp5714
g99
g100
ssg81
g5703
sg74
(lp5715
S':'
asbag67
(g88
g69
NtRp5716
(dp5717
g72
(dp5718
sg81
g5703
sg74
(lp5719
g67
(g68
g69
NtRp5720
(dp5721
g72
(dp5722
g80
I5
ssg81
g5716
sg74
(lp5723
g1761
asbasbasbag67
(g83
g69
NtRp5724
(dp5725
g72
(dp5726
sg81
g4260
sg74
(lp5727
g67
(g88
g69
NtRp5728
(dp5729
g72
(dp5730
g92
g93
ssg81
g5724
sg74
(lp5731
S'status'
p5732
asbag67
(g88
g69
NtRp5733
(dp5734
g72
(dp5735
g99
g100
ssg81
g5724
sg74
(lp5736
S':'
asbag67
(g88
g69
NtRp5737
(dp5738
g72
(dp5739
sg81
g5724
sg74
(lp5740
g67
(g68
g69
NtRp5741
(dp5742
g72
(dp5743
g80
I5
ssg81
g5737
sg74
(lp5744
S'200'
p5745
asbasbasbag67
(g83
g69
NtRp5746
(dp5747
g72
(dp5748
sg81
g4260
sg74
(lp5749
g67
(g88
g69
NtRp5750
(dp5751
g72
(dp5752
g92
g93
ssg81
g5746
sg74
(lp5753
S'subtitle'
p5754
asbag67
(g88
g69
NtRp5755
(dp5756
g72
(dp5757
g99
g100
ssg81
g5746
sg74
(lp5758
S':'
asbag67
(g88
g69
NtRp5759
(dp5760
g72
(dp5761
sg81
g5746
sg74
(lp5762
g67
(g68
g69
NtRp5763
(dp5764
g72
(dp5765
g80
I5
ssg81
g5759
sg74
(lp5766
g4816
(S's\r\x00\x00\x00customize me!'
tRp5767
asbasbasbag67
(g83
g69
NtRp5768
(dp5769
g72
(dp5770
sg81
g4260
sg74
(lp5771
g67
(g88
g69
NtRp5772
(dp5773
g72
(dp5774
g92
g93
ssg81
g5768
sg74
(lp5775
S'title'
p5776
asbag67
(g88
g69
NtRp5777
(dp5778
g72
(dp5779
g99
g100
ssg81
g5768
sg74
(lp5780
S':'
asbag67
(g88
g69
NtRp5781
(dp5782
g72
(dp5783
sg81
g5768
sg74
(lp5784
g67
(g68
g69
NtRp5785
(dp5786
g72
(dp5787
g80
I5
ssg81
g5781
sg74
(lp5788
S'Gpibhws'
p5789
asbasbasbag67
(g83
g69
NtRp5790
(dp5791
g72
(dp5792
sg81
g4260
sg74
(lp5793
g67
(g88
g69
NtRp5794
(dp5795
g72
(dp5796
g92
g93
ssg81
g5790
sg74
(lp5797
g3292
asbag67
(g88
g69
NtRp5798
(dp5799
g72
(dp5800
g99
g100
ssg81
g5790
sg74
(lp5801
S':'
asbag67
(g88
g69
NtRp5802
(dp5803
g72
(dp5804
sg81
g5790
sg74
(lp5805
g67
(g68
g69
NtRp5806
(dp5807
g72
(dp5808
g80
I5
ssg81
g5802
sg74
(lp5809
g3305
asbasbasbag67
(g83
g69
NtRp5810
(dp5811
g72
(dp5812
sg81
g4260
sg74
(lp5813
g67
(g88
g69
NtRp5814
(dp5815
g72
(dp5816
g92
g93
ssg81
g5810
sg74
(lp5817
S'view'
p5818
asbag67
(g88
g69
NtRp5819
(dp5820
g72
(dp5821
g99
g100
ssg81
g5810
sg74
(lp5822
S':'
asbag67
(g88
g69
NtRp5823
(dp5824
g72
(dp5825
sg81
g5810
sg74
(lp5826
g67
(g68
g69
NtRp5827
(dp5828
g72
(dp5829
g80
I5
ssg81
g5823
sg74
(lp5830
S'default/calc_sweep_func.html'
p5831
asbasbasbasbasbsS'locals'
p5832
(dp5833
S'NL'
p5834
S"'\\r\\n'"
p5835
sS'SF_in'
p5836
S"'5000'"
p5837
sS'SF_var'
p5838
S"'SF 5000 HZ;\\r\\n'"
p5839
sS'sock'
p5840
S'<socket._socketobject object>'
p5841
sS'FRS_var'
p5842
S"'FRS 5 HZ;\\r\\n'"
p5843
sS'HOST'
p5844
S"'172.21.7.69'"
p5845
sS'SF_pre'
p5846
S"'SF '"
p5847
sS'HZ_suf'
p5848
S"' HZ;\\r\\n'"
p5849
sS'device'
p5850
S"'Glass'"
p5851
sS'FRS_in'
p5852
S"'5'"
p5853
sS'PORT'
p5854
S'1234'
p5855
sS'FRS_pre'
p5856
S"'FRS '"
p5857
sssS'traceback'
p5858
S'Traceback (most recent call last):\n  File "/web2pyTrunk/gluon/restricted.py", line 205, in restricted\n    exec ccode in environment\n  File "/web2pyTrunk/applications/GPIBHWS/controllers/default.py", line 689, in <module>\n  File "/web2pyTrunk/gluon/globals.py", line 182, in <lambda>\n    self._caller = lambda f: f()\n  File "/web2pyTrunk/applications/GPIBHWS/controllers/default.py", line 572, in calc_sweep_func\n    swp_el = sock.recv(64)\ntimeout: timed out\n'
p5859
s.