(dp1
S'output'
p2
S"<class 'sqlite3.OperationalError'> table auth_cas already exists"
p3
sS'layer'
p4
S'/web2pyTrunk/applications/GPIBHWS/models/db.py'
p5
sS'code'
p6
S'# -*- coding: utf-8 -*-\n\n#########################################################################\n## This scaffolding model makes your app work on Google App Engine too\n## File is released under public domain and you can use without limitations\n#########################################################################\n\n## if SSL/HTTPS is properly configured and you want all HTTP requests to\n## be redirected to HTTPS, uncomment the line below:\n# request.requires_https()\n\nif not request.env.web2py_runtime_gae:\n    ## if NOT running on Google App Engine use SQLite or other DB\n    db = DAL(\'sqlite://storage.sqlite\')\nelse:\n    ## connect to Google BigTable (optional \'google:datastore://namespace\')\n    db = DAL(\'google:datastore\')\n    ## store sessions and tickets there\n    session.connect(request, response, db = db)\n    ## or store session in Memcache, Redis, etc.\n    ## from gluon.contrib.memdb import MEMDB\n    ## from google.appengine.api.memcache import Client\n    ## session.connect(request, response, db = MEMDB(Client()))\n\n## by default give a view/generic.extension to all actions from localhost\n## none otherwise. a pattern can be \'controller/function.extension\'\nresponse.generic_patterns = [\'*\'] if request.is_local else []\n## (optional) optimize handling of static files\n# response.optimize_css = \'concat,minify,inline\'\n# response.optimize_js = \'concat,minify,inline\'\n\n#########################################################################\n## Here is sample code if you need for\n## - email capabilities\n## - authentication (registration, login, logout, ... )\n## - authorization (role based authorization)\n## - services (xml, csv, json, xmlrpc, jsonrpc, amf, rss)\n## - old style crud actions\n## (more options discussed in gluon/tools.py)\n#########################################################################\n\nfrom gluon.tools import Auth, Crud, Service, PluginManager, prettydate\nauth = Auth(db, hmac_key=Auth.get_or_create_key(), salt=True)\ncrud, service, plugins = Crud(db), Service(), PluginManager()\n\n## create all tables needed by auth if not custom tables\nauth.define_tables()\n\n## configure email\nmail=auth.settings.mailer\nmail.settings.server = \'logging\' or \'smtp.gmail.com:587\'\nmail.settings.sender = \'you@gmail.com\'\nmail.settings.login = \'username:password\'\n\n## configure auth policy\nauth.settings.registration_requires_verification = False\nauth.settings.registration_requires_approval = True\nauth.settings.reset_password_requires_verification = True\n\n## if you need to use OpenID, Facebook, MySpace, Twitter, Linkedin, etc.\n## register with janrain.com, write your domain:api_key in private/janrain.key\nfrom gluon.contrib.login_methods.rpx_account import use_janrain\nuse_janrain(auth,filename=\'private/janrain.key\')\n\n#########################################################################\n## Define your tables below (or better in another model file) for example\n##\n## >>> db.define_table(\'mytable\',Field(\'myfield\',\'string\'))\n##\n## Fields can be \'string\',\'text\',\'password\',\'integer\',\'double\',\'boolean\'\n##       \'date\',\'time\',\'datetime\',\'blob\',\'upload\', \'reference TABLENAME\'\n## There is an implicit \'id integer autoincrement\' field\n## Consult manual for more options, validators, etc.\n##\n## More API examples for controllers:\n##\n## >>> db.mytable.insert(myfield=\'value\')\n## >>> rows=db(db.mytable.myfield==\'value\').select(db.mytable.ALL)\n## >>> for row in rows: print row.id, row.myfield\n#########################################################################\n\n## after defining tables, uncomment below to enable auditing\nauth.enable_record_versioning(db)\n\ndef sweep_up_btn(field, value):\n    return INPUT(_name=field.name,\n                 _type=\'button\',\n                 _id="%s_%s" % (field._tablename, field.name),\n                 _class=field.type,\n                 _value=\'UP\',\n                 requires=field.requires)\n                 \ndef sweep_down_btn(field, value):\n    return INPUT(_name=field.name,\n                 _type=\'button\',\n                 _id="%s_%s" % (field._tablename, field.name),\n                 _class=field.type,\n                 _value=\'DOWN\',\n                 requires=field.requires)\n                 \ndef calc_sweep_btn(field, value):\n    return INPUT(_name=field.name,\n                 _type=\'button\',\n                 _id="%s_%s" % (field._tablename, field.name),\n                 _class=field.type,\n                 _value=\'Calculate\',\n                 requires=field.requires)                  \n\ndb = DAL(\'sqlite://db.db\')\ndb.define_table(\'gpib\',\n    Field(\'device\',requires=IS_IN_SET([\'Glass\',\'Medium\'])),\n    Field(\'run_type\',requires=IS_IN_SET([\'PSD\',\'Sweep\'])),\n    Field(\'multiple_runs\',\'boolean\'),\n    Field(\'number_runs\',\'integer\'),\n    Field(\'frequency_start\',requires=IS_NOT_EMPTY()),\n    Field(\'frequency_range\',requires=IS_NOT_EMPTY()),\n    Field(\'source_level\',requires=IS_NOT_EMPTY()),\n    Field(\'source_offset\',requires=IS_NOT_EMPTY()),\n    Field(\'sweep_rate\'),\n    Field(\'calculate_sweep_rate\',widget=calc_sweep_btn),\n    Field(\'sweep_up\',widget=sweep_up_btn),\n    Field(\'sweep_down\',widget=sweep_down_btn))\n\ndb.gpib.frequency_range.label = \'Frequency Range/Step Size\'\ndb.gpib.number_runs.label = \'Number of Runs\'\n\ndb.gpib.source_level.default = \'1\'\ndb.gpib.source_offset.default = \'1\'\n\ndb.define_table(\'results\',\n    Field(\'time\',\'datetime\'),\n\tField(\'device\'),\n    Field(\'run_type\'),\n    Field(\'start_frequency\'),\n    Field(\'frequency_range\'),\n    Field(\'source_level\'),\n    Field(\'source_offset\'),\n\tField(\'sweep_rate\'))\n\ndb.define_table(\'data\',\n    Field(\'x\'),\n    Field(\'yr\'),\n    Field(\'ya\'),\n    Field(\'plot_link\'))\n\n\n#db.data.id.represent=lambda id: SPAN(A(IMG(_src=URL(r=request,c=\'default\',f=\'plot_thumb\',args=id),_href=URL(r=request,c=\'default\',f=\'plot_data\',args=id))))\ndb.data.id.represent=lambda id: SPAN(A(IMG(_src=URL(r=request,c=\'default\',f=\'plot_thumb\',args=id),_width="80px",_height="64px",_title=request.vars.start_frequency),\n      _href=URL(r=request,c=\'default\',f=\'plot_data\',args=id),_rel="lightbox[gpib]"))\n\ndb.data.id.label=\'Data Plot\'\n'
p7
sS'snapshot'
p8
(dp9
S'exception'
p10
(dp11
S'__module__'
p12
S"'sqlite3'"
p13
sS'__getslice__'
p14
S"<method-wrapper '__getslice__' of OperationalError object>"
p15
sS'__str__'
p16
S"<method-wrapper '__str__' of OperationalError object>"
p17
sS'__reduce__'
p18
S'<built-in method __reduce__ of OperationalError object>'
p19
sS'__dict__'
p20
S'{}'
p21
sS'__sizeof__'
p22
S'<built-in method __sizeof__ of OperationalError object>'
p23
sS'__weakref__'
p24
S'None'
p25
sS'__init__'
p26
S"<method-wrapper '__init__' of OperationalError object>"
p27
sS'__setattr__'
p28
S"<method-wrapper '__setattr__' of OperationalError object>"
p29
sS'__reduce_ex__'
p30
S'<built-in method __reduce_ex__ of OperationalError object>'
p31
sS'__new__'
p32
S'<built-in method __new__ of type object>'
p33
sS'__format__'
p34
S'<built-in method __format__ of OperationalError object>'
p35
sS'__class__'
p36
S"<class 'sqlite3.OperationalError'>"
p37
sS'__doc__'
p38
S'None'
p39
sS'__getitem__'
p40
S"<method-wrapper '__getitem__' of OperationalError object>"
p41
sS'__setstate__'
p42
S'<built-in method __setstate__ of OperationalError object>'
p43
sS'__getattribute__'
p44
S"<method-wrapper '__getattribute__' of OperationalError object>"
p45
sS'args'
p46
S"('table auth_cas already exists',)"
p47
sS'__subclasshook__'
p48
S'<built-in method __subclasshook__ of type object>'
p49
sS'__unicode__'
p50
S'<built-in method __unicode__ of OperationalError object>'
p51
sS'__delattr__'
p52
S"<method-wrapper '__delattr__' of OperationalError object>"
p53
sS'__repr__'
p54
S"<method-wrapper '__repr__' of OperationalError object>"
p55
sS'__hash__'
p56
S"<method-wrapper '__hash__' of OperationalError object>"
p57
ssS'evalue'
p58
S'table auth_cas already exists'
p59
sS'request'
p60
ccopy_reg
_reconstructor
p61
(cgluon.html
BEAUTIFY
p62
c__builtin__
object
p63
NtRp64
(dp65
S'attributes'
p66
(dp67
sS'components'
p68
(lp69
g61
(cgluon.html
TABLE
p70
g63
NtRp71
(dp72
g66
(dp73
S'level'
p74
I5
ssS'parent'
p75
Nsg68
(lp76
g61
(cgluon.html
TR
p77
g63
NtRp78
(dp79
g66
(dp80
sg75
g71
sg68
(lp81
g61
(cgluon.html
TD
p82
g63
NtRp83
(dp84
g66
(dp85
S'_style'
p86
S'font-weight:bold;vertical-align:top'
p87
ssg75
g78
sg68
(lp88
S'ajax'
p89
asbag61
(g82
g63
NtRp90
(dp91
g66
(dp92
S'_valign'
p93
S'top'
p94
ssg75
g78
sg68
(lp95
S':'
asbag61
(g82
g63
NtRp96
(dp97
g66
(dp98
sg75
g78
sg68
(lp99
g61
(g62
g63
NtRp100
(dp101
g66
(dp102
g74
I5
ssg75
g96
sg68
(lp103
S'False'
p104
asbasbasbag61
(g77
g63
NtRp105
(dp106
g66
(dp107
sg75
g71
sg68
(lp108
g61
(g82
g63
NtRp109
(dp110
g66
(dp111
g86
g87
ssg75
g105
sg68
(lp112
S'application'
p113
asbag61
(g82
g63
NtRp114
(dp115
g66
(dp116
g93
g94
ssg75
g105
sg68
(lp117
S':'
asbag61
(g82
g63
NtRp118
(dp119
g66
(dp120
sg75
g105
sg68
(lp121
g61
(g62
g63
NtRp122
(dp123
g66
(dp124
g74
I5
ssg75
g118
sg68
(lp125
S'GPIBHWS'
p126
asbasbasbag61
(g77
g63
NtRp127
(dp128
g66
(dp129
sg75
g71
sg68
(lp130
g61
(g82
g63
NtRp131
(dp132
g66
(dp133
g86
g87
ssg75
g127
sg68
(lp134
g46
asbag61
(g82
g63
NtRp135
(dp136
g66
(dp137
g93
g94
ssg75
g127
sg68
(lp138
S':'
asbag61
(g82
g63
NtRp139
(dp140
g66
(dp141
sg75
g127
sg68
(lp142
g61
(g62
g63
NtRp143
(dp144
g66
(dp145
g74
I5
ssg75
g139
sg68
(lp146
g61
(g70
g63
NtRp147
(dp148
g66
(dp149
g74
I4
ssg75
Nsg68
(lp150
sbasbasbasbag61
(g77
g63
NtRp151
(dp152
g66
(dp153
sg75
g71
sg68
(lp154
g61
(g82
g63
NtRp155
(dp156
g66
(dp157
g86
g87
ssg75
g151
sg68
(lp158
S'body'
p159
asbag61
(g82
g63
NtRp160
(dp161
g66
(dp162
g93
g94
ssg75
g151
sg68
(lp163
S':'
asbag61
(g82
g63
NtRp164
(dp165
g66
(dp166
sg75
g151
sg68
(lp167
g61
(g62
g63
NtRp168
(dp169
g66
(dp170
g74
I5
ssg75
g164
sg68
(lp171
S'<cStringIO.StringO object at 0x1ad3b040>'
p172
asbasbasbag61
(g77
g63
NtRp173
(dp174
g66
(dp175
sg75
g71
sg68
(lp176
g61
(g82
g63
NtRp177
(dp178
g66
(dp179
g86
g87
ssg75
g173
sg68
(lp180
S'client'
p181
asbag61
(g82
g63
NtRp182
(dp183
g66
(dp184
g93
g94
ssg75
g173
sg68
(lp185
S':'
asbag61
(g82
g63
NtRp186
(dp187
g66
(dp188
sg75
g173
sg68
(lp189
g61
(g62
g63
NtRp190
(dp191
g66
(dp192
g74
I5
ssg75
g186
sg68
(lp193
S'127.0.0.1'
p194
asbasbasbag61
(g77
g63
NtRp195
(dp196
g66
(dp197
sg75
g71
sg68
(lp198
g61
(g82
g63
NtRp199
(dp200
g66
(dp201
g86
g87
ssg75
g195
sg68
(lp202
S'controller'
p203
asbag61
(g82
g63
NtRp204
(dp205
g66
(dp206
g93
g94
ssg75
g195
sg68
(lp207
S':'
asbag61
(g82
g63
NtRp208
(dp209
g66
(dp210
sg75
g195
sg68
(lp211
g61
(g62
g63
NtRp212
(dp213
g66
(dp214
g74
I5
ssg75
g208
sg68
(lp215
S'appadmin'
p216
asbasbasbag61
(g77
g63
NtRp217
(dp218
g66
(dp219
sg75
g71
sg68
(lp220
g61
(g82
g63
NtRp221
(dp222
g66
(dp223
g86
g87
ssg75
g217
sg68
(lp224
S'cookies'
p225
asbag61
(g82
g63
NtRp226
(dp227
g66
(dp228
g93
g94
ssg75
g217
sg68
(lp229
S':'
asbag61
(g82
g63
NtRp230
(dp231
g66
(dp232
sg75
g217
sg68
(lp233
g61
(g62
g63
NtRp234
(dp235
g66
(dp236
g74
I5
ssg75
g230
sg68
(lp237
g61
(g70
g63
NtRp238
(dp239
g66
(dp240
g74
I4
ssg75
Nsg68
(lp241
g61
(g77
g63
NtRp242
(dp243
g66
(dp244
sg75
g238
sg68
(lp245
g61
(g82
g63
NtRp246
(dp247
g66
(dp248
g86
g87
ssg75
g242
sg68
(lp249
S'session_id_admin'
p250
asbag61
(g82
g63
NtRp251
(dp252
g66
(dp253
g93
g94
ssg75
g242
sg68
(lp254
S':'
asbag61
(g82
g63
NtRp255
(dp256
g66
(dp257
sg75
g242
sg68
(lp258
g61
(g62
g63
NtRp259
(dp260
g66
(dp261
g74
I4
ssg75
g255
sg68
(lp262
S'127.0.0.1-aa4f76c9-9d67-46ca-a892-d9c6fd0665fe'
p263
ag61
(g70
g63
NtRp264
(dp265
g66
(dp266
g74
I3
ssg75
Nsg68
(lp267
g61
(g77
g63
NtRp268
(dp269
g66
(dp270
sg75
g264
sg68
(lp271
g61
(g82
g63
NtRp272
(dp273
g66
(dp274
g86
g87
ssg75
g268
sg68
(lp275
S'comment'
p276
asbag61
(g82
g63
NtRp277
(dp278
g66
(dp279
g93
g94
ssg75
g268
sg68
(lp280
S':'
asbag61
(g82
g63
NtRp281
(dp282
g66
(dp283
sg75
g268
sg68
(lp284
g61
(g62
g63
NtRp285
(dp286
g66
(dp287
g74
I3
ssg75
g281
sg68
(lp288
S''
asbasbasbag61
(g77
g63
NtRp289
(dp290
g66
(dp291
sg75
g264
sg68
(lp292
g61
(g82
g63
NtRp293
(dp294
g66
(dp295
g86
g87
ssg75
g289
sg68
(lp296
S'domain'
p297
asbag61
(g82
g63
NtRp298
(dp299
g66
(dp300
g93
g94
ssg75
g289
sg68
(lp301
S':'
asbag61
(g82
g63
NtRp302
(dp303
g66
(dp304
sg75
g289
sg68
(lp305
g61
(g62
g63
NtRp306
(dp307
g66
(dp308
g74
I3
ssg75
g302
sg68
(lp309
S''
asbasbasbag61
(g77
g63
NtRp310
(dp311
g66
(dp312
sg75
g264
sg68
(lp313
g61
(g82
g63
NtRp314
(dp315
g66
(dp316
g86
g87
ssg75
g310
sg68
(lp317
S'expires'
p318
asbag61
(g82
g63
NtRp319
(dp320
g66
(dp321
g93
g94
ssg75
g310
sg68
(lp322
S':'
asbag61
(g82
g63
NtRp323
(dp324
g66
(dp325
sg75
g310
sg68
(lp326
g61
(g62
g63
NtRp327
(dp328
g66
(dp329
g74
I3
ssg75
g323
sg68
(lp330
S''
asbasbasbag61
(g77
g63
NtRp331
(dp332
g66
(dp333
sg75
g264
sg68
(lp334
g61
(g82
g63
NtRp335
(dp336
g66
(dp337
g86
g87
ssg75
g331
sg68
(lp338
S'httponly'
p339
asbag61
(g82
g63
NtRp340
(dp341
g66
(dp342
g93
g94
ssg75
g331
sg68
(lp343
S':'
asbag61
(g82
g63
NtRp344
(dp345
g66
(dp346
sg75
g331
sg68
(lp347
g61
(g62
g63
NtRp348
(dp349
g66
(dp350
g74
I3
ssg75
g344
sg68
(lp351
S''
asbasbasbag61
(g77
g63
NtRp352
(dp353
g66
(dp354
sg75
g264
sg68
(lp355
g61
(g82
g63
NtRp356
(dp357
g66
(dp358
g86
g87
ssg75
g352
sg68
(lp359
S'max-age'
p360
asbag61
(g82
g63
NtRp361
(dp362
g66
(dp363
g93
g94
ssg75
g352
sg68
(lp364
S':'
asbag61
(g82
g63
NtRp365
(dp366
g66
(dp367
sg75
g352
sg68
(lp368
g61
(g62
g63
NtRp369
(dp370
g66
(dp371
g74
I3
ssg75
g365
sg68
(lp372
S''
asbasbasbag61
(g77
g63
NtRp373
(dp374
g66
(dp375
sg75
g264
sg68
(lp376
g61
(g82
g63
NtRp377
(dp378
g66
(dp379
g86
g87
ssg75
g373
sg68
(lp380
S'path'
p381
asbag61
(g82
g63
NtRp382
(dp383
g66
(dp384
g93
g94
ssg75
g373
sg68
(lp385
S':'
asbag61
(g82
g63
NtRp386
(dp387
g66
(dp388
sg75
g373
sg68
(lp389
g61
(g62
g63
NtRp390
(dp391
g66
(dp392
g74
I3
ssg75
g386
sg68
(lp393
S''
asbasbasbag61
(g77
g63
NtRp394
(dp395
g66
(dp396
sg75
g264
sg68
(lp397
g61
(g82
g63
NtRp398
(dp399
g66
(dp400
g86
g87
ssg75
g394
sg68
(lp401
S'secure'
p402
asbag61
(g82
g63
NtRp403
(dp404
g66
(dp405
g93
g94
ssg75
g394
sg68
(lp406
S':'
asbag61
(g82
g63
NtRp407
(dp408
g66
(dp409
sg75
g394
sg68
(lp410
g61
(g62
g63
NtRp411
(dp412
g66
(dp413
g74
I3
ssg75
g407
sg68
(lp414
S''
asbasbasbag61
(g77
g63
NtRp415
(dp416
g66
(dp417
sg75
g264
sg68
(lp418
g61
(g82
g63
NtRp419
(dp420
g66
(dp421
g86
g87
ssg75
g415
sg68
(lp422
S'version'
p423
asbag61
(g82
g63
NtRp424
(dp425
g66
(dp426
g93
g94
ssg75
g415
sg68
(lp427
S':'
asbag61
(g82
g63
NtRp428
(dp429
g66
(dp430
sg75
g415
sg68
(lp431
g61
(g62
g63
NtRp432
(dp433
g66
(dp434
g74
I3
ssg75
g428
sg68
(lp435
S''
asbasbasbasbasbasbasbag61
(g77
g63
NtRp436
(dp437
g66
(dp438
sg75
g238
sg68
(lp439
g61
(g82
g63
NtRp440
(dp441
g66
(dp442
g86
g87
ssg75
g436
sg68
(lp443
S'session_id_examples'
p444
asbag61
(g82
g63
NtRp445
(dp446
g66
(dp447
g93
g94
ssg75
g436
sg68
(lp448
S':'
asbag61
(g82
g63
NtRp449
(dp450
g66
(dp451
sg75
g436
sg68
(lp452
g61
(g62
g63
NtRp453
(dp454
g66
(dp455
g74
I4
ssg75
g449
sg68
(lp456
S'127.0.0.1-61239a9a-fb10-4020-8808-609e5f9f8439'
p457
ag61
(g70
g63
NtRp458
(dp459
g66
(dp460
g74
I3
ssg75
Nsg68
(lp461
g61
(g77
g63
NtRp462
(dp463
g66
(dp464
sg75
g458
sg68
(lp465
g61
(g82
g63
NtRp466
(dp467
g66
(dp468
g86
g87
ssg75
g462
sg68
(lp469
g276
asbag61
(g82
g63
NtRp470
(dp471
g66
(dp472
g93
g94
ssg75
g462
sg68
(lp473
S':'
asbag61
(g82
g63
NtRp474
(dp475
g66
(dp476
sg75
g462
sg68
(lp477
g61
(g62
g63
NtRp478
(dp479
g66
(dp480
g74
I3
ssg75
g474
sg68
(lp481
S''
asbasbasbag61
(g77
g63
NtRp482
(dp483
g66
(dp484
sg75
g458
sg68
(lp485
g61
(g82
g63
NtRp486
(dp487
g66
(dp488
g86
g87
ssg75
g482
sg68
(lp489
g297
asbag61
(g82
g63
NtRp490
(dp491
g66
(dp492
g93
g94
ssg75
g482
sg68
(lp493
S':'
asbag61
(g82
g63
NtRp494
(dp495
g66
(dp496
sg75
g482
sg68
(lp497
g61
(g62
g63
NtRp498
(dp499
g66
(dp500
g74
I3
ssg75
g494
sg68
(lp501
S''
asbasbasbag61
(g77
g63
NtRp502
(dp503
g66
(dp504
sg75
g458
sg68
(lp505
g61
(g82
g63
NtRp506
(dp507
g66
(dp508
g86
g87
ssg75
g502
sg68
(lp509
g318
asbag61
(g82
g63
NtRp510
(dp511
g66
(dp512
g93
g94
ssg75
g502
sg68
(lp513
S':'
asbag61
(g82
g63
NtRp514
(dp515
g66
(dp516
sg75
g502
sg68
(lp517
g61
(g62
g63
NtRp518
(dp519
g66
(dp520
g74
I3
ssg75
g514
sg68
(lp521
S''
asbasbasbag61
(g77
g63
NtRp522
(dp523
g66
(dp524
sg75
g458
sg68
(lp525
g61
(g82
g63
NtRp526
(dp527
g66
(dp528
g86
g87
ssg75
g522
sg68
(lp529
g339
asbag61
(g82
g63
NtRp530
(dp531
g66
(dp532
g93
g94
ssg75
g522
sg68
(lp533
S':'
asbag61
(g82
g63
NtRp534
(dp535
g66
(dp536
sg75
g522
sg68
(lp537
g61
(g62
g63
NtRp538
(dp539
g66
(dp540
g74
I3
ssg75
g534
sg68
(lp541
S''
asbasbasbag61
(g77
g63
NtRp542
(dp543
g66
(dp544
sg75
g458
sg68
(lp545
g61
(g82
g63
NtRp546
(dp547
g66
(dp548
g86
g87
ssg75
g542
sg68
(lp549
g360
asbag61
(g82
g63
NtRp550
(dp551
g66
(dp552
g93
g94
ssg75
g542
sg68
(lp553
S':'
asbag61
(g82
g63
NtRp554
(dp555
g66
(dp556
sg75
g542
sg68
(lp557
g61
(g62
g63
NtRp558
(dp559
g66
(dp560
g74
I3
ssg75
g554
sg68
(lp561
S''
asbasbasbag61
(g77
g63
NtRp562
(dp563
g66
(dp564
sg75
g458
sg68
(lp565
g61
(g82
g63
NtRp566
(dp567
g66
(dp568
g86
g87
ssg75
g562
sg68
(lp569
g381
asbag61
(g82
g63
NtRp570
(dp571
g66
(dp572
g93
g94
ssg75
g562
sg68
(lp573
S':'
asbag61
(g82
g63
NtRp574
(dp575
g66
(dp576
sg75
g562
sg68
(lp577
g61
(g62
g63
NtRp578
(dp579
g66
(dp580
g74
I3
ssg75
g574
sg68
(lp581
S''
asbasbasbag61
(g77
g63
NtRp582
(dp583
g66
(dp584
sg75
g458
sg68
(lp585
g61
(g82
g63
NtRp586
(dp587
g66
(dp588
g86
g87
ssg75
g582
sg68
(lp589
g402
asbag61
(g82
g63
NtRp590
(dp591
g66
(dp592
g93
g94
ssg75
g582
sg68
(lp593
S':'
asbag61
(g82
g63
NtRp594
(dp595
g66
(dp596
sg75
g582
sg68
(lp597
g61
(g62
g63
NtRp598
(dp599
g66
(dp600
g74
I3
ssg75
g594
sg68
(lp601
S''
asbasbasbag61
(g77
g63
NtRp602
(dp603
g66
(dp604
sg75
g458
sg68
(lp605
g61
(g82
g63
NtRp606
(dp607
g66
(dp608
g86
g87
ssg75
g602
sg68
(lp609
g423
asbag61
(g82
g63
NtRp610
(dp611
g66
(dp612
g93
g94
ssg75
g602
sg68
(lp613
S':'
asbag61
(g82
g63
NtRp614
(dp615
g66
(dp616
sg75
g602
sg68
(lp617
g61
(g62
g63
NtRp618
(dp619
g66
(dp620
g74
I3
ssg75
g614
sg68
(lp621
S''
asbasbasbasbasbasbasbag61
(g77
g63
NtRp622
(dp623
g66
(dp624
sg75
g238
sg68
(lp625
g61
(g82
g63
NtRp626
(dp627
g66
(dp628
g86
g87
ssg75
g622
sg68
(lp629
S'session_id_gpib3562a'
p630
asbag61
(g82
g63
NtRp631
(dp632
g66
(dp633
g93
g94
ssg75
g622
sg68
(lp634
S':'
asbag61
(g82
g63
NtRp635
(dp636
g66
(dp637
sg75
g622
sg68
(lp638
g61
(g62
g63
NtRp639
(dp640
g66
(dp641
g74
I4
ssg75
g635
sg68
(lp642
S'127.0.0.1-d49cba14-6f33-40cd-983c-34bd052e67de'
p643
ag61
(g70
g63
NtRp644
(dp645
g66
(dp646
g74
I3
ssg75
Nsg68
(lp647
g61
(g77
g63
NtRp648
(dp649
g66
(dp650
sg75
g644
sg68
(lp651
g61
(g82
g63
NtRp652
(dp653
g66
(dp654
g86
g87
ssg75
g648
sg68
(lp655
g276
asbag61
(g82
g63
NtRp656
(dp657
g66
(dp658
g93
g94
ssg75
g648
sg68
(lp659
S':'
asbag61
(g82
g63
NtRp660
(dp661
g66
(dp662
sg75
g648
sg68
(lp663
g61
(g62
g63
NtRp664
(dp665
g66
(dp666
g74
I3
ssg75
g660
sg68
(lp667
S''
asbasbasbag61
(g77
g63
NtRp668
(dp669
g66
(dp670
sg75
g644
sg68
(lp671
g61
(g82
g63
NtRp672
(dp673
g66
(dp674
g86
g87
ssg75
g668
sg68
(lp675
g297
asbag61
(g82
g63
NtRp676
(dp677
g66
(dp678
g93
g94
ssg75
g668
sg68
(lp679
S':'
asbag61
(g82
g63
NtRp680
(dp681
g66
(dp682
sg75
g668
sg68
(lp683
g61
(g62
g63
NtRp684
(dp685
g66
(dp686
g74
I3
ssg75
g680
sg68
(lp687
S''
asbasbasbag61
(g77
g63
NtRp688
(dp689
g66
(dp690
sg75
g644
sg68
(lp691
g61
(g82
g63
NtRp692
(dp693
g66
(dp694
g86
g87
ssg75
g688
sg68
(lp695
g318
asbag61
(g82
g63
NtRp696
(dp697
g66
(dp698
g93
g94
ssg75
g688
sg68
(lp699
S':'
asbag61
(g82
g63
NtRp700
(dp701
g66
(dp702
sg75
g688
sg68
(lp703
g61
(g62
g63
NtRp704
(dp705
g66
(dp706
g74
I3
ssg75
g700
sg68
(lp707
S''
asbasbasbag61
(g77
g63
NtRp708
(dp709
g66
(dp710
sg75
g644
sg68
(lp711
g61
(g82
g63
NtRp712
(dp713
g66
(dp714
g86
g87
ssg75
g708
sg68
(lp715
g339
asbag61
(g82
g63
NtRp716
(dp717
g66
(dp718
g93
g94
ssg75
g708
sg68
(lp719
S':'
asbag61
(g82
g63
NtRp720
(dp721
g66
(dp722
sg75
g708
sg68
(lp723
g61
(g62
g63
NtRp724
(dp725
g66
(dp726
g74
I3
ssg75
g720
sg68
(lp727
S''
asbasbasbag61
(g77
g63
NtRp728
(dp729
g66
(dp730
sg75
g644
sg68
(lp731
g61
(g82
g63
NtRp732
(dp733
g66
(dp734
g86
g87
ssg75
g728
sg68
(lp735
g360
asbag61
(g82
g63
NtRp736
(dp737
g66
(dp738
g93
g94
ssg75
g728
sg68
(lp739
S':'
asbag61
(g82
g63
NtRp740
(dp741
g66
(dp742
sg75
g728
sg68
(lp743
g61
(g62
g63
NtRp744
(dp745
g66
(dp746
g74
I3
ssg75
g740
sg68
(lp747
S''
asbasbasbag61
(g77
g63
NtRp748
(dp749
g66
(dp750
sg75
g644
sg68
(lp751
g61
(g82
g63
NtRp752
(dp753
g66
(dp754
g86
g87
ssg75
g748
sg68
(lp755
g381
asbag61
(g82
g63
NtRp756
(dp757
g66
(dp758
g93
g94
ssg75
g748
sg68
(lp759
S':'
asbag61
(g82
g63
NtRp760
(dp761
g66
(dp762
sg75
g748
sg68
(lp763
g61
(g62
g63
NtRp764
(dp765
g66
(dp766
g74
I3
ssg75
g760
sg68
(lp767
S''
asbasbasbag61
(g77
g63
NtRp768
(dp769
g66
(dp770
sg75
g644
sg68
(lp771
g61
(g82
g63
NtRp772
(dp773
g66
(dp774
g86
g87
ssg75
g768
sg68
(lp775
g402
asbag61
(g82
g63
NtRp776
(dp777
g66
(dp778
g93
g94
ssg75
g768
sg68
(lp779
S':'
asbag61
(g82
g63
NtRp780
(dp781
g66
(dp782
sg75
g768
sg68
(lp783
g61
(g62
g63
NtRp784
(dp785
g66
(dp786
g74
I3
ssg75
g780
sg68
(lp787
S''
asbasbasbag61
(g77
g63
NtRp788
(dp789
g66
(dp790
sg75
g644
sg68
(lp791
g61
(g82
g63
NtRp792
(dp793
g66
(dp794
g86
g87
ssg75
g788
sg68
(lp795
g423
asbag61
(g82
g63
NtRp796
(dp797
g66
(dp798
g93
g94
ssg75
g788
sg68
(lp799
S':'
asbag61
(g82
g63
NtRp800
(dp801
g66
(dp802
sg75
g788
sg68
(lp803
g61
(g62
g63
NtRp804
(dp805
g66
(dp806
g74
I3
ssg75
g800
sg68
(lp807
S''
asbasbasbasbasbasbasbag61
(g77
g63
NtRp808
(dp809
g66
(dp810
sg75
g238
sg68
(lp811
g61
(g82
g63
NtRp812
(dp813
g66
(dp814
g86
g87
ssg75
g808
sg68
(lp815
S'session_id_gpibfinal'
p816
asbag61
(g82
g63
NtRp817
(dp818
g66
(dp819
g93
g94
ssg75
g808
sg68
(lp820
S':'
asbag61
(g82
g63
NtRp821
(dp822
g66
(dp823
sg75
g808
sg68
(lp824
g61
(g62
g63
NtRp825
(dp826
g66
(dp827
g74
I4
ssg75
g821
sg68
(lp828
S'127.0.0.1-b6082bee-e94c-4b95-a41a-f1f299c63111'
p829
ag61
(g70
g63
NtRp830
(dp831
g66
(dp832
g74
I3
ssg75
Nsg68
(lp833
g61
(g77
g63
NtRp834
(dp835
g66
(dp836
sg75
g830
sg68
(lp837
g61
(g82
g63
NtRp838
(dp839
g66
(dp840
g86
g87
ssg75
g834
sg68
(lp841
g276
asbag61
(g82
g63
NtRp842
(dp843
g66
(dp844
g93
g94
ssg75
g834
sg68
(lp845
S':'
asbag61
(g82
g63
NtRp846
(dp847
g66
(dp848
sg75
g834
sg68
(lp849
g61
(g62
g63
NtRp850
(dp851
g66
(dp852
g74
I3
ssg75
g846
sg68
(lp853
S''
asbasbasbag61
(g77
g63
NtRp854
(dp855
g66
(dp856
sg75
g830
sg68
(lp857
g61
(g82
g63
NtRp858
(dp859
g66
(dp860
g86
g87
ssg75
g854
sg68
(lp861
g297
asbag61
(g82
g63
NtRp862
(dp863
g66
(dp864
g93
g94
ssg75
g854
sg68
(lp865
S':'
asbag61
(g82
g63
NtRp866
(dp867
g66
(dp868
sg75
g854
sg68
(lp869
g61
(g62
g63
NtRp870
(dp871
g66
(dp872
g74
I3
ssg75
g866
sg68
(lp873
S''
asbasbasbag61
(g77
g63
NtRp874
(dp875
g66
(dp876
sg75
g830
sg68
(lp877
g61
(g82
g63
NtRp878
(dp879
g66
(dp880
g86
g87
ssg75
g874
sg68
(lp881
g318
asbag61
(g82
g63
NtRp882
(dp883
g66
(dp884
g93
g94
ssg75
g874
sg68
(lp885
S':'
asbag61
(g82
g63
NtRp886
(dp887
g66
(dp888
sg75
g874
sg68
(lp889
g61
(g62
g63
NtRp890
(dp891
g66
(dp892
g74
I3
ssg75
g886
sg68
(lp893
S''
asbasbasbag61
(g77
g63
NtRp894
(dp895
g66
(dp896
sg75
g830
sg68
(lp897
g61
(g82
g63
NtRp898
(dp899
g66
(dp900
g86
g87
ssg75
g894
sg68
(lp901
g339
asbag61
(g82
g63
NtRp902
(dp903
g66
(dp904
g93
g94
ssg75
g894
sg68
(lp905
S':'
asbag61
(g82
g63
NtRp906
(dp907
g66
(dp908
sg75
g894
sg68
(lp909
g61
(g62
g63
NtRp910
(dp911
g66
(dp912
g74
I3
ssg75
g906
sg68
(lp913
S''
asbasbasbag61
(g77
g63
NtRp914
(dp915
g66
(dp916
sg75
g830
sg68
(lp917
g61
(g82
g63
NtRp918
(dp919
g66
(dp920
g86
g87
ssg75
g914
sg68
(lp921
g360
asbag61
(g82
g63
NtRp922
(dp923
g66
(dp924
g93
g94
ssg75
g914
sg68
(lp925
S':'
asbag61
(g82
g63
NtRp926
(dp927
g66
(dp928
sg75
g914
sg68
(lp929
g61
(g62
g63
NtRp930
(dp931
g66
(dp932
g74
I3
ssg75
g926
sg68
(lp933
S''
asbasbasbag61
(g77
g63
NtRp934
(dp935
g66
(dp936
sg75
g830
sg68
(lp937
g61
(g82
g63
NtRp938
(dp939
g66
(dp940
g86
g87
ssg75
g934
sg68
(lp941
g381
asbag61
(g82
g63
NtRp942
(dp943
g66
(dp944
g93
g94
ssg75
g934
sg68
(lp945
S':'
asbag61
(g82
g63
NtRp946
(dp947
g66
(dp948
sg75
g934
sg68
(lp949
g61
(g62
g63
NtRp950
(dp951
g66
(dp952
g74
I3
ssg75
g946
sg68
(lp953
S''
asbasbasbag61
(g77
g63
NtRp954
(dp955
g66
(dp956
sg75
g830
sg68
(lp957
g61
(g82
g63
NtRp958
(dp959
g66
(dp960
g86
g87
ssg75
g954
sg68
(lp961
g402
asbag61
(g82
g63
NtRp962
(dp963
g66
(dp964
g93
g94
ssg75
g954
sg68
(lp965
S':'
asbag61
(g82
g63
NtRp966
(dp967
g66
(dp968
sg75
g954
sg68
(lp969
g61
(g62
g63
NtRp970
(dp971
g66
(dp972
g74
I3
ssg75
g966
sg68
(lp973
S''
asbasbasbag61
(g77
g63
NtRp974
(dp975
g66
(dp976
sg75
g830
sg68
(lp977
g61
(g82
g63
NtRp978
(dp979
g66
(dp980
g86
g87
ssg75
g974
sg68
(lp981
g423
asbag61
(g82
g63
NtRp982
(dp983
g66
(dp984
g93
g94
ssg75
g974
sg68
(lp985
S':'
asbag61
(g82
g63
NtRp986
(dp987
g66
(dp988
sg75
g974
sg68
(lp989
g61
(g62
g63
NtRp990
(dp991
g66
(dp992
g74
I3
ssg75
g986
sg68
(lp993
S''
asbasbasbasbasbasbasbag61
(g77
g63
NtRp994
(dp995
g66
(dp996
sg75
g238
sg68
(lp997
g61
(g82
g63
NtRp998
(dp999
g66
(dp1000
g86
g87
ssg75
g994
sg68
(lp1001
S'session_id_gpibhws'
p1002
asbag61
(g82
g63
NtRp1003
(dp1004
g66
(dp1005
g93
g94
ssg75
g994
sg68
(lp1006
S':'
asbag61
(g82
g63
NtRp1007
(dp1008
g66
(dp1009
sg75
g994
sg68
(lp1010
g61
(g62
g63
NtRp1011
(dp1012
g66
(dp1013
g74
I4
ssg75
g1007
sg68
(lp1014
S'127.0.0.1-6f11aa51-d759-4ec6-a0c2-b8d4140bb744'
p1015
ag61
(g70
g63
NtRp1016
(dp1017
g66
(dp1018
g74
I3
ssg75
Nsg68
(lp1019
g61
(g77
g63
NtRp1020
(dp1021
g66
(dp1022
sg75
g1016
sg68
(lp1023
g61
(g82
g63
NtRp1024
(dp1025
g66
(dp1026
g86
g87
ssg75
g1020
sg68
(lp1027
g276
asbag61
(g82
g63
NtRp1028
(dp1029
g66
(dp1030
g93
g94
ssg75
g1020
sg68
(lp1031
S':'
asbag61
(g82
g63
NtRp1032
(dp1033
g66
(dp1034
sg75
g1020
sg68
(lp1035
g61
(g62
g63
NtRp1036
(dp1037
g66
(dp1038
g74
I3
ssg75
g1032
sg68
(lp1039
S''
asbasbasbag61
(g77
g63
NtRp1040
(dp1041
g66
(dp1042
sg75
g1016
sg68
(lp1043
g61
(g82
g63
NtRp1044
(dp1045
g66
(dp1046
g86
g87
ssg75
g1040
sg68
(lp1047
g297
asbag61
(g82
g63
NtRp1048
(dp1049
g66
(dp1050
g93
g94
ssg75
g1040
sg68
(lp1051
S':'
asbag61
(g82
g63
NtRp1052
(dp1053
g66
(dp1054
sg75
g1040
sg68
(lp1055
g61
(g62
g63
NtRp1056
(dp1057
g66
(dp1058
g74
I3
ssg75
g1052
sg68
(lp1059
S''
asbasbasbag61
(g77
g63
NtRp1060
(dp1061
g66
(dp1062
sg75
g1016
sg68
(lp1063
g61
(g82
g63
NtRp1064
(dp1065
g66
(dp1066
g86
g87
ssg75
g1060
sg68
(lp1067
g318
asbag61
(g82
g63
NtRp1068
(dp1069
g66
(dp1070
g93
g94
ssg75
g1060
sg68
(lp1071
S':'
asbag61
(g82
g63
NtRp1072
(dp1073
g66
(dp1074
sg75
g1060
sg68
(lp1075
g61
(g62
g63
NtRp1076
(dp1077
g66
(dp1078
g74
I3
ssg75
g1072
sg68
(lp1079
S''
asbasbasbag61
(g77
g63
NtRp1080
(dp1081
g66
(dp1082
sg75
g1016
sg68
(lp1083
g61
(g82
g63
NtRp1084
(dp1085
g66
(dp1086
g86
g87
ssg75
g1080
sg68
(lp1087
g339
asbag61
(g82
g63
NtRp1088
(dp1089
g66
(dp1090
g93
g94
ssg75
g1080
sg68
(lp1091
S':'
asbag61
(g82
g63
NtRp1092
(dp1093
g66
(dp1094
sg75
g1080
sg68
(lp1095
g61
(g62
g63
NtRp1096
(dp1097
g66
(dp1098
g74
I3
ssg75
g1092
sg68
(lp1099
S''
asbasbasbag61
(g77
g63
NtRp1100
(dp1101
g66
(dp1102
sg75
g1016
sg68
(lp1103
g61
(g82
g63
NtRp1104
(dp1105
g66
(dp1106
g86
g87
ssg75
g1100
sg68
(lp1107
g360
asbag61
(g82
g63
NtRp1108
(dp1109
g66
(dp1110
g93
g94
ssg75
g1100
sg68
(lp1111
S':'
asbag61
(g82
g63
NtRp1112
(dp1113
g66
(dp1114
sg75
g1100
sg68
(lp1115
g61
(g62
g63
NtRp1116
(dp1117
g66
(dp1118
g74
I3
ssg75
g1112
sg68
(lp1119
S''
asbasbasbag61
(g77
g63
NtRp1120
(dp1121
g66
(dp1122
sg75
g1016
sg68
(lp1123
g61
(g82
g63
NtRp1124
(dp1125
g66
(dp1126
g86
g87
ssg75
g1120
sg68
(lp1127
g381
asbag61
(g82
g63
NtRp1128
(dp1129
g66
(dp1130
g93
g94
ssg75
g1120
sg68
(lp1131
S':'
asbag61
(g82
g63
NtRp1132
(dp1133
g66
(dp1134
sg75
g1120
sg68
(lp1135
g61
(g62
g63
NtRp1136
(dp1137
g66
(dp1138
g74
I3
ssg75
g1132
sg68
(lp1139
S''
asbasbasbag61
(g77
g63
NtRp1140
(dp1141
g66
(dp1142
sg75
g1016
sg68
(lp1143
g61
(g82
g63
NtRp1144
(dp1145
g66
(dp1146
g86
g87
ssg75
g1140
sg68
(lp1147
g402
asbag61
(g82
g63
NtRp1148
(dp1149
g66
(dp1150
g93
g94
ssg75
g1140
sg68
(lp1151
S':'
asbag61
(g82
g63
NtRp1152
(dp1153
g66
(dp1154
sg75
g1140
sg68
(lp1155
g61
(g62
g63
NtRp1156
(dp1157
g66
(dp1158
g74
I3
ssg75
g1152
sg68
(lp1159
S''
asbasbasbag61
(g77
g63
NtRp1160
(dp1161
g66
(dp1162
sg75
g1016
sg68
(lp1163
g61
(g82
g63
NtRp1164
(dp1165
g66
(dp1166
g86
g87
ssg75
g1160
sg68
(lp1167
g423
asbag61
(g82
g63
NtRp1168
(dp1169
g66
(dp1170
g93
g94
ssg75
g1160
sg68
(lp1171
S':'
asbag61
(g82
g63
NtRp1172
(dp1173
g66
(dp1174
sg75
g1160
sg68
(lp1175
g61
(g62
g63
NtRp1176
(dp1177
g66
(dp1178
g74
I3
ssg75
g1172
sg68
(lp1179
S''
asbasbasbasbasbasbasbag61
(g77
g63
NtRp1180
(dp1181
g66
(dp1182
sg75
g238
sg68
(lp1183
g61
(g82
g63
NtRp1184
(dp1185
g66
(dp1186
g86
g87
ssg75
g1180
sg68
(lp1187
S'session_id_gpibtrunk'
p1188
asbag61
(g82
g63
NtRp1189
(dp1190
g66
(dp1191
g93
g94
ssg75
g1180
sg68
(lp1192
S':'
asbag61
(g82
g63
NtRp1193
(dp1194
g66
(dp1195
sg75
g1180
sg68
(lp1196
g61
(g62
g63
NtRp1197
(dp1198
g66
(dp1199
g74
I4
ssg75
g1193
sg68
(lp1200
S'127.0.0.1-33c70933-7db5-4e9b-ab7a-f4656c326e0a'
p1201
ag61
(g70
g63
NtRp1202
(dp1203
g66
(dp1204
g74
I3
ssg75
Nsg68
(lp1205
g61
(g77
g63
NtRp1206
(dp1207
g66
(dp1208
sg75
g1202
sg68
(lp1209
g61
(g82
g63
NtRp1210
(dp1211
g66
(dp1212
g86
g87
ssg75
g1206
sg68
(lp1213
g276
asbag61
(g82
g63
NtRp1214
(dp1215
g66
(dp1216
g93
g94
ssg75
g1206
sg68
(lp1217
S':'
asbag61
(g82
g63
NtRp1218
(dp1219
g66
(dp1220
sg75
g1206
sg68
(lp1221
g61
(g62
g63
NtRp1222
(dp1223
g66
(dp1224
g74
I3
ssg75
g1218
sg68
(lp1225
S''
asbasbasbag61
(g77
g63
NtRp1226
(dp1227
g66
(dp1228
sg75
g1202
sg68
(lp1229
g61
(g82
g63
NtRp1230
(dp1231
g66
(dp1232
g86
g87
ssg75
g1226
sg68
(lp1233
g297
asbag61
(g82
g63
NtRp1234
(dp1235
g66
(dp1236
g93
g94
ssg75
g1226
sg68
(lp1237
S':'
asbag61
(g82
g63
NtRp1238
(dp1239
g66
(dp1240
sg75
g1226
sg68
(lp1241
g61
(g62
g63
NtRp1242
(dp1243
g66
(dp1244
g74
I3
ssg75
g1238
sg68
(lp1245
S''
asbasbasbag61
(g77
g63
NtRp1246
(dp1247
g66
(dp1248
sg75
g1202
sg68
(lp1249
g61
(g82
g63
NtRp1250
(dp1251
g66
(dp1252
g86
g87
ssg75
g1246
sg68
(lp1253
g318
asbag61
(g82
g63
NtRp1254
(dp1255
g66
(dp1256
g93
g94
ssg75
g1246
sg68
(lp1257
S':'
asbag61
(g82
g63
NtRp1258
(dp1259
g66
(dp1260
sg75
g1246
sg68
(lp1261
g61
(g62
g63
NtRp1262
(dp1263
g66
(dp1264
g74
I3
ssg75
g1258
sg68
(lp1265
S''
asbasbasbag61
(g77
g63
NtRp1266
(dp1267
g66
(dp1268
sg75
g1202
sg68
(lp1269
g61
(g82
g63
NtRp1270
(dp1271
g66
(dp1272
g86
g87
ssg75
g1266
sg68
(lp1273
g339
asbag61
(g82
g63
NtRp1274
(dp1275
g66
(dp1276
g93
g94
ssg75
g1266
sg68
(lp1277
S':'
asbag61
(g82
g63
NtRp1278
(dp1279
g66
(dp1280
sg75
g1266
sg68
(lp1281
g61
(g62
g63
NtRp1282
(dp1283
g66
(dp1284
g74
I3
ssg75
g1278
sg68
(lp1285
S''
asbasbasbag61
(g77
g63
NtRp1286
(dp1287
g66
(dp1288
sg75
g1202
sg68
(lp1289
g61
(g82
g63
NtRp1290
(dp1291
g66
(dp1292
g86
g87
ssg75
g1286
sg68
(lp1293
g360
asbag61
(g82
g63
NtRp1294
(dp1295
g66
(dp1296
g93
g94
ssg75
g1286
sg68
(lp1297
S':'
asbag61
(g82
g63
NtRp1298
(dp1299
g66
(dp1300
sg75
g1286
sg68
(lp1301
g61
(g62
g63
NtRp1302
(dp1303
g66
(dp1304
g74
I3
ssg75
g1298
sg68
(lp1305
S''
asbasbasbag61
(g77
g63
NtRp1306
(dp1307
g66
(dp1308
sg75
g1202
sg68
(lp1309
g61
(g82
g63
NtRp1310
(dp1311
g66
(dp1312
g86
g87
ssg75
g1306
sg68
(lp1313
g381
asbag61
(g82
g63
NtRp1314
(dp1315
g66
(dp1316
g93
g94
ssg75
g1306
sg68
(lp1317
S':'
asbag61
(g82
g63
NtRp1318
(dp1319
g66
(dp1320
sg75
g1306
sg68
(lp1321
g61
(g62
g63
NtRp1322
(dp1323
g66
(dp1324
g74
I3
ssg75
g1318
sg68
(lp1325
S''
asbasbasbag61
(g77
g63
NtRp1326
(dp1327
g66
(dp1328
sg75
g1202
sg68
(lp1329
g61
(g82
g63
NtRp1330
(dp1331
g66
(dp1332
g86
g87
ssg75
g1326
sg68
(lp1333
g402
asbag61
(g82
g63
NtRp1334
(dp1335
g66
(dp1336
g93
g94
ssg75
g1326
sg68
(lp1337
S':'
asbag61
(g82
g63
NtRp1338
(dp1339
g66
(dp1340
sg75
g1326
sg68
(lp1341
g61
(g62
g63
NtRp1342
(dp1343
g66
(dp1344
g74
I3
ssg75
g1338
sg68
(lp1345
S''
asbasbasbag61
(g77
g63
NtRp1346
(dp1347
g66
(dp1348
sg75
g1202
sg68
(lp1349
g61
(g82
g63
NtRp1350
(dp1351
g66
(dp1352
g86
g87
ssg75
g1346
sg68
(lp1353
g423
asbag61
(g82
g63
NtRp1354
(dp1355
g66
(dp1356
g93
g94
ssg75
g1346
sg68
(lp1357
S':'
asbag61
(g82
g63
NtRp1358
(dp1359
g66
(dp1360
sg75
g1346
sg68
(lp1361
g61
(g62
g63
NtRp1362
(dp1363
g66
(dp1364
g74
I3
ssg75
g1358
sg68
(lp1365
S''
asbasbasbasbasbasbasbag61
(g77
g63
NtRp1366
(dp1367
g66
(dp1368
sg75
g238
sg68
(lp1369
g61
(g82
g63
NtRp1370
(dp1371
g66
(dp1372
g86
g87
ssg75
g1366
sg68
(lp1373
S'session_id_hwsgpib'
p1374
asbag61
(g82
g63
NtRp1375
(dp1376
g66
(dp1377
g93
g94
ssg75
g1366
sg68
(lp1378
S':'
asbag61
(g82
g63
NtRp1379
(dp1380
g66
(dp1381
sg75
g1366
sg68
(lp1382
g61
(g62
g63
NtRp1383
(dp1384
g66
(dp1385
g74
I4
ssg75
g1379
sg68
(lp1386
S'127.0.0.1-afa8ab56-4fed-4264-a529-a1ab8333277d'
p1387
ag61
(g70
g63
NtRp1388
(dp1389
g66
(dp1390
g74
I3
ssg75
Nsg68
(lp1391
g61
(g77
g63
NtRp1392
(dp1393
g66
(dp1394
sg75
g1388
sg68
(lp1395
g61
(g82
g63
NtRp1396
(dp1397
g66
(dp1398
g86
g87
ssg75
g1392
sg68
(lp1399
g276
asbag61
(g82
g63
NtRp1400
(dp1401
g66
(dp1402
g93
g94
ssg75
g1392
sg68
(lp1403
S':'
asbag61
(g82
g63
NtRp1404
(dp1405
g66
(dp1406
sg75
g1392
sg68
(lp1407
g61
(g62
g63
NtRp1408
(dp1409
g66
(dp1410
g74
I3
ssg75
g1404
sg68
(lp1411
S''
asbasbasbag61
(g77
g63
NtRp1412
(dp1413
g66
(dp1414
sg75
g1388
sg68
(lp1415
g61
(g82
g63
NtRp1416
(dp1417
g66
(dp1418
g86
g87
ssg75
g1412
sg68
(lp1419
g297
asbag61
(g82
g63
NtRp1420
(dp1421
g66
(dp1422
g93
g94
ssg75
g1412
sg68
(lp1423
S':'
asbag61
(g82
g63
NtRp1424
(dp1425
g66
(dp1426
sg75
g1412
sg68
(lp1427
g61
(g62
g63
NtRp1428
(dp1429
g66
(dp1430
g74
I3
ssg75
g1424
sg68
(lp1431
S''
asbasbasbag61
(g77
g63
NtRp1432
(dp1433
g66
(dp1434
sg75
g1388
sg68
(lp1435
g61
(g82
g63
NtRp1436
(dp1437
g66
(dp1438
g86
g87
ssg75
g1432
sg68
(lp1439
g318
asbag61
(g82
g63
NtRp1440
(dp1441
g66
(dp1442
g93
g94
ssg75
g1432
sg68
(lp1443
S':'
asbag61
(g82
g63
NtRp1444
(dp1445
g66
(dp1446
sg75
g1432
sg68
(lp1447
g61
(g62
g63
NtRp1448
(dp1449
g66
(dp1450
g74
I3
ssg75
g1444
sg68
(lp1451
S''
asbasbasbag61
(g77
g63
NtRp1452
(dp1453
g66
(dp1454
sg75
g1388
sg68
(lp1455
g61
(g82
g63
NtRp1456
(dp1457
g66
(dp1458
g86
g87
ssg75
g1452
sg68
(lp1459
g339
asbag61
(g82
g63
NtRp1460
(dp1461
g66
(dp1462
g93
g94
ssg75
g1452
sg68
(lp1463
S':'
asbag61
(g82
g63
NtRp1464
(dp1465
g66
(dp1466
sg75
g1452
sg68
(lp1467
g61
(g62
g63
NtRp1468
(dp1469
g66
(dp1470
g74
I3
ssg75
g1464
sg68
(lp1471
S''
asbasbasbag61
(g77
g63
NtRp1472
(dp1473
g66
(dp1474
sg75
g1388
sg68
(lp1475
g61
(g82
g63
NtRp1476
(dp1477
g66
(dp1478
g86
g87
ssg75
g1472
sg68
(lp1479
g360
asbag61
(g82
g63
NtRp1480
(dp1481
g66
(dp1482
g93
g94
ssg75
g1472
sg68
(lp1483
S':'
asbag61
(g82
g63
NtRp1484
(dp1485
g66
(dp1486
sg75
g1472
sg68
(lp1487
g61
(g62
g63
NtRp1488
(dp1489
g66
(dp1490
g74
I3
ssg75
g1484
sg68
(lp1491
S''
asbasbasbag61
(g77
g63
NtRp1492
(dp1493
g66
(dp1494
sg75
g1388
sg68
(lp1495
g61
(g82
g63
NtRp1496
(dp1497
g66
(dp1498
g86
g87
ssg75
g1492
sg68
(lp1499
g381
asbag61
(g82
g63
NtRp1500
(dp1501
g66
(dp1502
g93
g94
ssg75
g1492
sg68
(lp1503
S':'
asbag61
(g82
g63
NtRp1504
(dp1505
g66
(dp1506
sg75
g1492
sg68
(lp1507
g61
(g62
g63
NtRp1508
(dp1509
g66
(dp1510
g74
I3
ssg75
g1504
sg68
(lp1511
S''
asbasbasbag61
(g77
g63
NtRp1512
(dp1513
g66
(dp1514
sg75
g1388
sg68
(lp1515
g61
(g82
g63
NtRp1516
(dp1517
g66
(dp1518
g86
g87
ssg75
g1512
sg68
(lp1519
g402
asbag61
(g82
g63
NtRp1520
(dp1521
g66
(dp1522
g93
g94
ssg75
g1512
sg68
(lp1523
S':'
asbag61
(g82
g63
NtRp1524
(dp1525
g66
(dp1526
sg75
g1512
sg68
(lp1527
g61
(g62
g63
NtRp1528
(dp1529
g66
(dp1530
g74
I3
ssg75
g1524
sg68
(lp1531
S''
asbasbasbag61
(g77
g63
NtRp1532
(dp1533
g66
(dp1534
sg75
g1388
sg68
(lp1535
g61
(g82
g63
NtRp1536
(dp1537
g66
(dp1538
g86
g87
ssg75
g1532
sg68
(lp1539
g423
asbag61
(g82
g63
NtRp1540
(dp1541
g66
(dp1542
g93
g94
ssg75
g1532
sg68
(lp1543
S':'
asbag61
(g82
g63
NtRp1544
(dp1545
g66
(dp1546
sg75
g1532
sg68
(lp1547
g61
(g62
g63
NtRp1548
(dp1549
g66
(dp1550
g74
I3
ssg75
g1544
sg68
(lp1551
S''
asbasbasbasbasbasbasbag61
(g77
g63
NtRp1552
(dp1553
g66
(dp1554
sg75
g238
sg68
(lp1555
g61
(g82
g63
NtRp1556
(dp1557
g66
(dp1558
g86
g87
ssg75
g1552
sg68
(lp1559
S'session_id_welcome'
p1560
asbag61
(g82
g63
NtRp1561
(dp1562
g66
(dp1563
g93
g94
ssg75
g1552
sg68
(lp1564
S':'
asbag61
(g82
g63
NtRp1565
(dp1566
g66
(dp1567
sg75
g1552
sg68
(lp1568
g61
(g62
g63
NtRp1569
(dp1570
g66
(dp1571
g74
I4
ssg75
g1565
sg68
(lp1572
S'127.0.0.1-5bd988bf-ef0d-4236-8631-f2014dc6917d'
p1573
ag61
(g70
g63
NtRp1574
(dp1575
g66
(dp1576
g74
I3
ssg75
Nsg68
(lp1577
g61
(g77
g63
NtRp1578
(dp1579
g66
(dp1580
sg75
g1574
sg68
(lp1581
g61
(g82
g63
NtRp1582
(dp1583
g66
(dp1584
g86
g87
ssg75
g1578
sg68
(lp1585
g276
asbag61
(g82
g63
NtRp1586
(dp1587
g66
(dp1588
g93
g94
ssg75
g1578
sg68
(lp1589
S':'
asbag61
(g82
g63
NtRp1590
(dp1591
g66
(dp1592
sg75
g1578
sg68
(lp1593
g61
(g62
g63
NtRp1594
(dp1595
g66
(dp1596
g74
I3
ssg75
g1590
sg68
(lp1597
S''
asbasbasbag61
(g77
g63
NtRp1598
(dp1599
g66
(dp1600
sg75
g1574
sg68
(lp1601
g61
(g82
g63
NtRp1602
(dp1603
g66
(dp1604
g86
g87
ssg75
g1598
sg68
(lp1605
g297
asbag61
(g82
g63
NtRp1606
(dp1607
g66
(dp1608
g93
g94
ssg75
g1598
sg68
(lp1609
S':'
asbag61
(g82
g63
NtRp1610
(dp1611
g66
(dp1612
sg75
g1598
sg68
(lp1613
g61
(g62
g63
NtRp1614
(dp1615
g66
(dp1616
g74
I3
ssg75
g1610
sg68
(lp1617
S''
asbasbasbag61
(g77
g63
NtRp1618
(dp1619
g66
(dp1620
sg75
g1574
sg68
(lp1621
g61
(g82
g63
NtRp1622
(dp1623
g66
(dp1624
g86
g87
ssg75
g1618
sg68
(lp1625
g318
asbag61
(g82
g63
NtRp1626
(dp1627
g66
(dp1628
g93
g94
ssg75
g1618
sg68
(lp1629
S':'
asbag61
(g82
g63
NtRp1630
(dp1631
g66
(dp1632
sg75
g1618
sg68
(lp1633
g61
(g62
g63
NtRp1634
(dp1635
g66
(dp1636
g74
I3
ssg75
g1630
sg68
(lp1637
S''
asbasbasbag61
(g77
g63
NtRp1638
(dp1639
g66
(dp1640
sg75
g1574
sg68
(lp1641
g61
(g82
g63
NtRp1642
(dp1643
g66
(dp1644
g86
g87
ssg75
g1638
sg68
(lp1645
g339
asbag61
(g82
g63
NtRp1646
(dp1647
g66
(dp1648
g93
g94
ssg75
g1638
sg68
(lp1649
S':'
asbag61
(g82
g63
NtRp1650
(dp1651
g66
(dp1652
sg75
g1638
sg68
(lp1653
g61
(g62
g63
NtRp1654
(dp1655
g66
(dp1656
g74
I3
ssg75
g1650
sg68
(lp1657
S''
asbasbasbag61
(g77
g63
NtRp1658
(dp1659
g66
(dp1660
sg75
g1574
sg68
(lp1661
g61
(g82
g63
NtRp1662
(dp1663
g66
(dp1664
g86
g87
ssg75
g1658
sg68
(lp1665
g360
asbag61
(g82
g63
NtRp1666
(dp1667
g66
(dp1668
g93
g94
ssg75
g1658
sg68
(lp1669
S':'
asbag61
(g82
g63
NtRp1670
(dp1671
g66
(dp1672
sg75
g1658
sg68
(lp1673
g61
(g62
g63
NtRp1674
(dp1675
g66
(dp1676
g74
I3
ssg75
g1670
sg68
(lp1677
S''
asbasbasbag61
(g77
g63
NtRp1678
(dp1679
g66
(dp1680
sg75
g1574
sg68
(lp1681
g61
(g82
g63
NtRp1682
(dp1683
g66
(dp1684
g86
g87
ssg75
g1678
sg68
(lp1685
g381
asbag61
(g82
g63
NtRp1686
(dp1687
g66
(dp1688
g93
g94
ssg75
g1678
sg68
(lp1689
S':'
asbag61
(g82
g63
NtRp1690
(dp1691
g66
(dp1692
sg75
g1678
sg68
(lp1693
g61
(g62
g63
NtRp1694
(dp1695
g66
(dp1696
g74
I3
ssg75
g1690
sg68
(lp1697
S''
asbasbasbag61
(g77
g63
NtRp1698
(dp1699
g66
(dp1700
sg75
g1574
sg68
(lp1701
g61
(g82
g63
NtRp1702
(dp1703
g66
(dp1704
g86
g87
ssg75
g1698
sg68
(lp1705
g402
asbag61
(g82
g63
NtRp1706
(dp1707
g66
(dp1708
g93
g94
ssg75
g1698
sg68
(lp1709
S':'
asbag61
(g82
g63
NtRp1710
(dp1711
g66
(dp1712
sg75
g1698
sg68
(lp1713
g61
(g62
g63
NtRp1714
(dp1715
g66
(dp1716
g74
I3
ssg75
g1710
sg68
(lp1717
S''
asbasbasbag61
(g77
g63
NtRp1718
(dp1719
g66
(dp1720
sg75
g1574
sg68
(lp1721
g61
(g82
g63
NtRp1722
(dp1723
g66
(dp1724
g86
g87
ssg75
g1718
sg68
(lp1725
g423
asbag61
(g82
g63
NtRp1726
(dp1727
g66
(dp1728
g93
g94
ssg75
g1718
sg68
(lp1729
S':'
asbag61
(g82
g63
NtRp1730
(dp1731
g66
(dp1732
sg75
g1718
sg68
(lp1733
g61
(g62
g63
NtRp1734
(dp1735
g66
(dp1736
g74
I3
ssg75
g1730
sg68
(lp1737
S''
asbasbasbasbasbasbasbasbasbasbasbag61
(g77
g63
NtRp1738
(dp1739
g66
(dp1740
sg75
g71
sg68
(lp1741
g61
(g82
g63
NtRp1742
(dp1743
g66
(dp1744
g86
g87
ssg75
g1738
sg68
(lp1745
S'env'
p1746
asbag61
(g82
g63
NtRp1747
(dp1748
g66
(dp1749
g93
g94
ssg75
g1738
sg68
(lp1750
S':'
asbag61
(g82
g63
NtRp1751
(dp1752
g66
(dp1753
sg75
g1738
sg68
(lp1754
g61
(g62
g63
NtRp1755
(dp1756
g66
(dp1757
g74
I5
ssg75
g1751
sg68
(lp1758
g61
(g70
g63
NtRp1759
(dp1760
g66
(dp1761
g74
I4
ssg75
Nsg68
(lp1762
g61
(g77
g63
NtRp1763
(dp1764
g66
(dp1765
sg75
g1759
sg68
(lp1766
g61
(g82
g63
NtRp1767
(dp1768
g66
(dp1769
g86
g87
ssg75
g1763
sg68
(lp1770
S'app_folders'
p1771
asbag61
(g82
g63
NtRp1772
(dp1773
g66
(dp1774
g93
g94
ssg75
g1763
sg68
(lp1775
S':'
asbag61
(g82
g63
NtRp1776
(dp1777
g66
(dp1778
sg75
g1763
sg68
(lp1779
g61
(g62
g63
NtRp1780
(dp1781
g66
(dp1782
g74
I4
ssg75
g1776
sg68
(lp1783
S"set(['/web2pyTrunk/applications/examples/', '/web2pyTrunk/applications/welcome/', '/web2pyTrunk/applications/HWSGPIB/', '/web2pyTrunk/applications/GPIBFinal/', '/web2pyTrunk/applications/GPIBHWS/', '/web2pyTrunk/applications/admin/'])"
p1784
asbasbasbag61
(g77
g63
NtRp1785
(dp1786
g66
(dp1787
sg75
g1759
sg68
(lp1788
g61
(g82
g63
NtRp1789
(dp1790
g66
(dp1791
g86
g87
ssg75
g1785
sg68
(lp1792
S'applications_parent'
p1793
asbag61
(g82
g63
NtRp1794
(dp1795
g66
(dp1796
g93
g94
ssg75
g1785
sg68
(lp1797
S':'
asbag61
(g82
g63
NtRp1798
(dp1799
g66
(dp1800
sg75
g1785
sg68
(lp1801
g61
(g62
g63
NtRp1802
(dp1803
g66
(dp1804
g74
I4
ssg75
g1798
sg68
(lp1805
S'/web2pyTrunk'
p1806
asbasbasbag61
(g77
g63
NtRp1807
(dp1808
g66
(dp1809
sg75
g1759
sg68
(lp1810
g61
(g82
g63
NtRp1811
(dp1812
g66
(dp1813
g86
g87
ssg75
g1807
sg68
(lp1814
S'cmd_args'
p1815
asbag61
(g82
g63
NtRp1816
(dp1817
g66
(dp1818
g93
g94
ssg75
g1807
sg68
(lp1819
S':'
asbag61
(g82
g63
NtRp1820
(dp1821
g66
(dp1822
sg75
g1807
sg68
(lp1823
g61
(g62
g63
NtRp1824
(dp1825
g66
(dp1826
g74
I4
ssg75
g1820
sg68
(lp1827
g61
(g70
g63
NtRp1828
(dp1829
g66
(dp1830
g74
I3
ssg75
Nsg68
(lp1831
sbasbasbasbag61
(g77
g63
NtRp1832
(dp1833
g66
(dp1834
sg75
g1759
sg68
(lp1835
g61
(g82
g63
NtRp1836
(dp1837
g66
(dp1838
g86
g87
ssg75
g1832
sg68
(lp1839
S'cmd_options'
p1840
asbag61
(g82
g63
NtRp1841
(dp1842
g66
(dp1843
g93
g94
ssg75
g1832
sg68
(lp1844
S':'
asbag61
(g82
g63
NtRp1845
(dp1846
g66
(dp1847
sg75
g1832
sg68
(lp1848
g61
(g62
g63
NtRp1849
(dp1850
g66
(dp1851
g74
I4
ssg75
g1845
sg68
(lp1852
S"<Values at 0x18c4990: {'verbose': False, 'ip': '127.0.0.1', 'shutdown_timeout': 5, 'taskbar': False, 'nocron': False, 'pid_filename': 'httpserver.pid', 'maxthreads': None, 'softcron': False, 'server_name': 'frost.gravity.hws.edu', 'bpython': False, 'nogui': False, 'port': 8000, 'extcron': False, 'run_system_tests': False, 'test': None, 'folder': '/web2pyTrunk', 'config': '', 'import_models': False, 'winservice': '', 'shell': None, 'run': '', 'log_filename': 'httpserver.log', 'debuglevel': 30, 'args': [''], 'socket_timeout': 5, 'ssl_ca_certificate': None, 'scheduler': None, 'profiler_filename': None, 'ssl_private_key': '', 'password': '<ask>', 'request_queue_size': 5, 'ssl_certificate': '', 'cronjob': False, 'numthreads': None, 'quiet': False, 'interfaces': None, 'minthreads': None, 'timeout': 10, 'plain': False, 'nobanner': False}>"
p1853
asbasbasbag61
(g77
g63
NtRp1854
(dp1855
g66
(dp1856
sg75
g1759
sg68
(lp1857
g61
(g82
g63
NtRp1858
(dp1859
g66
(dp1860
g86
g87
ssg75
g1854
sg68
(lp1861
S'db_sessions'
p1862
asbag61
(g82
g63
NtRp1863
(dp1864
g66
(dp1865
g93
g94
ssg75
g1854
sg68
(lp1866
S':'
asbag61
(g82
g63
NtRp1867
(dp1868
g66
(dp1869
sg75
g1854
sg68
(lp1870
g61
(g62
g63
NtRp1871
(dp1872
g66
(dp1873
g74
I4
ssg75
g1867
sg68
(lp1874
S'set([])'
p1875
asbasbasbag61
(g77
g63
NtRp1876
(dp1877
g66
(dp1878
sg75
g1759
sg68
(lp1879
g61
(g82
g63
NtRp1880
(dp1881
g66
(dp1882
g86
g87
ssg75
g1876
sg68
(lp1883
S'debugging'
p1884
asbag61
(g82
g63
NtRp1885
(dp1886
g66
(dp1887
g93
g94
ssg75
g1876
sg68
(lp1888
S':'
asbag61
(g82
g63
NtRp1889
(dp1890
g66
(dp1891
sg75
g1876
sg68
(lp1892
g61
(g62
g63
NtRp1893
(dp1894
g66
(dp1895
g74
I4
ssg75
g1889
sg68
(lp1896
g104
asbasbasbag61
(g77
g63
NtRp1897
(dp1898
g66
(dp1899
sg75
g1759
sg68
(lp1900
g61
(g82
g63
NtRp1901
(dp1902
g66
(dp1903
g86
g87
ssg75
g1897
sg68
(lp1904
S'gluon_parent'
p1905
asbag61
(g82
g63
NtRp1906
(dp1907
g66
(dp1908
g93
g94
ssg75
g1897
sg68
(lp1909
S':'
asbag61
(g82
g63
NtRp1910
(dp1911
g66
(dp1912
sg75
g1897
sg68
(lp1913
g61
(g62
g63
NtRp1914
(dp1915
g66
(dp1916
g74
I4
ssg75
g1910
sg68
(lp1917
S'/web2pyTrunk'
p1918
asbasbasbag61
(g77
g63
NtRp1919
(dp1920
g66
(dp1921
sg75
g1759
sg68
(lp1922
g61
(g82
g63
NtRp1923
(dp1924
g66
(dp1925
g86
g87
ssg75
g1919
sg68
(lp1926
S'http_accept'
p1927
asbag61
(g82
g63
NtRp1928
(dp1929
g66
(dp1930
g93
g94
ssg75
g1919
sg68
(lp1931
S':'
asbag61
(g82
g63
NtRp1932
(dp1933
g66
(dp1934
sg75
g1919
sg68
(lp1935
g61
(g62
g63
NtRp1936
(dp1937
g66
(dp1938
g74
I4
ssg75
g1932
sg68
(lp1939
S'text/html,application/xhtml+xml,application/xml;q=0.9,*/*;q=0.8'
p1940
asbasbasbag61
(g77
g63
NtRp1941
(dp1942
g66
(dp1943
sg75
g1759
sg68
(lp1944
g61
(g82
g63
NtRp1945
(dp1946
g66
(dp1947
g86
g87
ssg75
g1941
sg68
(lp1948
S'http_accept_charset'
p1949
asbag61
(g82
g63
NtRp1950
(dp1951
g66
(dp1952
g93
g94
ssg75
g1941
sg68
(lp1953
S':'
asbag61
(g82
g63
NtRp1954
(dp1955
g66
(dp1956
sg75
g1941
sg68
(lp1957
g61
(g62
g63
NtRp1958
(dp1959
g66
(dp1960
g74
I4
ssg75
g1954
sg68
(lp1961
S'ISO-8859-1,utf-8;q=0.7,*;q=0.3'
p1962
asbasbasbag61
(g77
g63
NtRp1963
(dp1964
g66
(dp1965
sg75
g1759
sg68
(lp1966
g61
(g82
g63
NtRp1967
(dp1968
g66
(dp1969
g86
g87
ssg75
g1963
sg68
(lp1970
S'http_accept_encoding'
p1971
asbag61
(g82
g63
NtRp1972
(dp1973
g66
(dp1974
g93
g94
ssg75
g1963
sg68
(lp1975
S':'
asbag61
(g82
g63
NtRp1976
(dp1977
g66
(dp1978
sg75
g1963
sg68
(lp1979
g61
(g62
g63
NtRp1980
(dp1981
g66
(dp1982
g74
I4
ssg75
g1976
sg68
(lp1983
S'gzip,deflate,sdch'
p1984
asbasbasbag61
(g77
g63
NtRp1985
(dp1986
g66
(dp1987
sg75
g1759
sg68
(lp1988
g61
(g82
g63
NtRp1989
(dp1990
g66
(dp1991
g86
g87
ssg75
g1985
sg68
(lp1992
S'http_accept_language'
p1993
asbag61
(g82
g63
NtRp1994
(dp1995
g66
(dp1996
g93
g94
ssg75
g1985
sg68
(lp1997
S':'
asbag61
(g82
g63
NtRp1998
(dp1999
g66
(dp2000
sg75
g1985
sg68
(lp2001
g61
(g62
g63
NtRp2002
(dp2003
g66
(dp2004
g74
I4
ssg75
g1998
sg68
(lp2005
S'en-US,en;q=0.8'
p2006
asbasbasbag61
(g77
g63
NtRp2007
(dp2008
g66
(dp2009
sg75
g1759
sg68
(lp2010
g61
(g82
g63
NtRp2011
(dp2012
g66
(dp2013
g86
g87
ssg75
g2007
sg68
(lp2014
S'http_connection'
p2015
asbag61
(g82
g63
NtRp2016
(dp2017
g66
(dp2018
g93
g94
ssg75
g2007
sg68
(lp2019
S':'
asbag61
(g82
g63
NtRp2020
(dp2021
g66
(dp2022
sg75
g2007
sg68
(lp2023
g61
(g62
g63
NtRp2024
(dp2025
g66
(dp2026
g74
I4
ssg75
g2020
sg68
(lp2027
S'keep-alive'
p2028
asbasbasbag61
(g77
g63
NtRp2029
(dp2030
g66
(dp2031
sg75
g1759
sg68
(lp2032
g61
(g82
g63
NtRp2033
(dp2034
g66
(dp2035
g86
g87
ssg75
g2029
sg68
(lp2036
S'http_cookie'
p2037
asbag61
(g82
g63
NtRp2038
(dp2039
g66
(dp2040
g93
g94
ssg75
g2029
sg68
(lp2041
S':'
asbag61
(g82
g63
NtRp2042
(dp2043
g66
(dp2044
sg75
g2029
sg68
(lp2045
g61
(g62
g63
NtRp2046
(dp2047
g66
(dp2048
g74
I4
ssg75
g2042
sg68
(lp2049
S'session_id_gpibtrunk=127.0.0.1-33c70933-7db5-4e9b-ab7a-f4656c326e0a; session_id_gpib3562a=127.0.0.1-d49cba14-6f33-40cd-983c-34bd052e67de; session_id_gpibfinal=127.0.0.1-b6082bee-e94c-4b95-a41a-f1f299c63111; session_id_hwsgpib=127.0.0.1-afa8ab56-4fed-4264-a529-a1ab8333277d; session_id_examples=127.0.0.1-61239a9a-fb10-4020-8808-609e5f9f8439; session_id_welcome=127.0.0.1-5bd988bf-ef0d-4236-8631-f2014dc6917d; session_id_gpibhws=127.0.0.1-6f11aa51-d759-4ec6-a0c2-b8d4140bb744; session_id_admin=127.0.0.1-aa4f76c9-9d67-46ca-a892-d9c6fd0665fe'
p2050
asbasbasbag61
(g77
g63
NtRp2051
(dp2052
g66
(dp2053
sg75
g1759
sg68
(lp2054
g61
(g82
g63
NtRp2055
(dp2056
g66
(dp2057
g86
g87
ssg75
g2051
sg68
(lp2058
S'http_host'
p2059
asbag61
(g82
g63
NtRp2060
(dp2061
g66
(dp2062
g93
g94
ssg75
g2051
sg68
(lp2063
S':'
asbag61
(g82
g63
NtRp2064
(dp2065
g66
(dp2066
sg75
g2051
sg68
(lp2067
g61
(g62
g63
NtRp2068
(dp2069
g66
(dp2070
g74
I4
ssg75
g2064
sg68
(lp2071
S'127.0.0.1:8000'
p2072
asbasbasbag61
(g77
g63
NtRp2073
(dp2074
g66
(dp2075
sg75
g1759
sg68
(lp2076
g61
(g82
g63
NtRp2077
(dp2078
g66
(dp2079
g86
g87
ssg75
g2073
sg68
(lp2080
S'http_referer'
p2081
asbag61
(g82
g63
NtRp2082
(dp2083
g66
(dp2084
g93
g94
ssg75
g2073
sg68
(lp2085
S':'
asbag61
(g82
g63
NtRp2086
(dp2087
g66
(dp2088
sg75
g2073
sg68
(lp2089
g61
(g62
g63
NtRp2090
(dp2091
g66
(dp2092
g74
I4
ssg75
g2086
sg68
(lp2093
S'http://127.0.0.1:8000/admin/default/design/GPIBHWS'
p2094
asbasbasbag61
(g77
g63
NtRp2095
(dp2096
g66
(dp2097
sg75
g1759
sg68
(lp2098
g61
(g82
g63
NtRp2099
(dp2100
g66
(dp2101
g86
g87
ssg75
g2095
sg68
(lp2102
S'http_user_agent'
p2103
asbag61
(g82
g63
NtRp2104
(dp2105
g66
(dp2106
g93
g94
ssg75
g2095
sg68
(lp2107
S':'
asbag61
(g82
g63
NtRp2108
(dp2109
g66
(dp2110
sg75
g2095
sg68
(lp2111
g61
(g62
g63
NtRp2112
(dp2113
g66
(dp2114
g74
I4
ssg75
g2108
sg68
(lp2115
S'Mozilla/5.0 (Macintosh; Intel Mac OS X 10_6_8) AppleWebKit/536.11 (KHTML, like Gecko) Chrome/20.0.1132.57 Safari/536.11'
p2116
asbasbasbag61
(g77
g63
NtRp2117
(dp2118
g66
(dp2119
sg75
g1759
sg68
(lp2120
g61
(g82
g63
NtRp2121
(dp2122
g66
(dp2123
g86
g87
ssg75
g2117
sg68
(lp2124
S'is_jython'
p2125
asbag61
(g82
g63
NtRp2126
(dp2127
g66
(dp2128
g93
g94
ssg75
g2117
sg68
(lp2129
S':'
asbag61
(g82
g63
NtRp2130
(dp2131
g66
(dp2132
sg75
g2117
sg68
(lp2133
g61
(g62
g63
NtRp2134
(dp2135
g66
(dp2136
g74
I4
ssg75
g2130
sg68
(lp2137
g104
asbasbasbag61
(g77
g63
NtRp2138
(dp2139
g66
(dp2140
sg75
g1759
sg68
(lp2141
g61
(g82
g63
NtRp2142
(dp2143
g66
(dp2144
g86
g87
ssg75
g2138
sg68
(lp2145
S'is_pypy'
p2146
asbag61
(g82
g63
NtRp2147
(dp2148
g66
(dp2149
g93
g94
ssg75
g2138
sg68
(lp2150
S':'
asbag61
(g82
g63
NtRp2151
(dp2152
g66
(dp2153
sg75
g2138
sg68
(lp2154
g61
(g62
g63
NtRp2155
(dp2156
g66
(dp2157
g74
I4
ssg75
g2151
sg68
(lp2158
g104
asbasbasbag61
(g77
g63
NtRp2159
(dp2160
g66
(dp2161
sg75
g1759
sg68
(lp2162
g61
(g82
g63
NtRp2163
(dp2164
g66
(dp2165
g86
g87
ssg75
g2159
sg68
(lp2166
S'path_info'
p2167
asbag61
(g82
g63
NtRp2168
(dp2169
g66
(dp2170
g93
g94
ssg75
g2159
sg68
(lp2171
S':'
asbag61
(g82
g63
NtRp2172
(dp2173
g66
(dp2174
sg75
g2159
sg68
(lp2175
g61
(g62
g63
NtRp2176
(dp2177
g66
(dp2178
g74
I4
ssg75
g2172
sg68
(lp2179
S'/GPIBHWS/appadmin/index'
p2180
asbasbasbag61
(g77
g63
NtRp2181
(dp2182
g66
(dp2183
sg75
g1759
sg68
(lp2184
g61
(g82
g63
NtRp2185
(dp2186
g66
(dp2187
g86
g87
ssg75
g2181
sg68
(lp2188
S'query_string'
p2189
asbag61
(g82
g63
NtRp2190
(dp2191
g66
(dp2192
g93
g94
ssg75
g2181
sg68
(lp2193
S':'
asbag61
(g82
g63
NtRp2194
(dp2195
g66
(dp2196
sg75
g2181
sg68
(lp2197
g61
(g62
g63
NtRp2198
(dp2199
g66
(dp2200
g74
I4
ssg75
g2194
sg68
(lp2201
S''
asbasbasbag61
(g77
g63
NtRp2202
(dp2203
g66
(dp2204
sg75
g1759
sg68
(lp2205
g61
(g82
g63
NtRp2206
(dp2207
g66
(dp2208
g86
g87
ssg75
g2202
sg68
(lp2209
S'remote_addr'
p2210
asbag61
(g82
g63
NtRp2211
(dp2212
g66
(dp2213
g93
g94
ssg75
g2202
sg68
(lp2214
S':'
asbag61
(g82
g63
NtRp2215
(dp2216
g66
(dp2217
sg75
g2202
sg68
(lp2218
g61
(g62
g63
NtRp2219
(dp2220
g66
(dp2221
g74
I4
ssg75
g2215
sg68
(lp2222
g194
asbasbasbag61
(g77
g63
NtRp2223
(dp2224
g66
(dp2225
sg75
g1759
sg68
(lp2226
g61
(g82
g63
NtRp2227
(dp2228
g66
(dp2229
g86
g87
ssg75
g2223
sg68
(lp2230
S'remote_port'
p2231
asbag61
(g82
g63
NtRp2232
(dp2233
g66
(dp2234
g93
g94
ssg75
g2223
sg68
(lp2235
S':'
asbag61
(g82
g63
NtRp2236
(dp2237
g66
(dp2238
sg75
g2223
sg68
(lp2239
g61
(g62
g63
NtRp2240
(dp2241
g66
(dp2242
g74
I4
ssg75
g2236
sg68
(lp2243
S'63388'
p2244
asbasbasbag61
(g77
g63
NtRp2245
(dp2246
g66
(dp2247
sg75
g1759
sg68
(lp2248
g61
(g82
g63
NtRp2249
(dp2250
g66
(dp2251
g86
g87
ssg75
g2245
sg68
(lp2252
S'request_method'
p2253
asbag61
(g82
g63
NtRp2254
(dp2255
g66
(dp2256
g93
g94
ssg75
g2245
sg68
(lp2257
S':'
asbag61
(g82
g63
NtRp2258
(dp2259
g66
(dp2260
sg75
g2245
sg68
(lp2261
g61
(g62
g63
NtRp2262
(dp2263
g66
(dp2264
g74
I4
ssg75
g2258
sg68
(lp2265
S'GET'
p2266
asbasbasbag61
(g77
g63
NtRp2267
(dp2268
g66
(dp2269
sg75
g1759
sg68
(lp2270
g61
(g82
g63
NtRp2271
(dp2272
g66
(dp2273
g86
g87
ssg75
g2267
sg68
(lp2274
S'script_name'
p2275
asbag61
(g82
g63
NtRp2276
(dp2277
g66
(dp2278
g93
g94
ssg75
g2267
sg68
(lp2279
S':'
asbag61
(g82
g63
NtRp2280
(dp2281
g66
(dp2282
sg75
g2267
sg68
(lp2283
g61
(g62
g63
NtRp2284
(dp2285
g66
(dp2286
g74
I4
ssg75
g2280
sg68
(lp2287
S''
asbasbasbag61
(g77
g63
NtRp2288
(dp2289
g66
(dp2290
sg75
g1759
sg68
(lp2291
g61
(g82
g63
NtRp2292
(dp2293
g66
(dp2294
g86
g87
ssg75
g2288
sg68
(lp2295
S'server_name'
p2296
asbag61
(g82
g63
NtRp2297
(dp2298
g66
(dp2299
g93
g94
ssg75
g2288
sg68
(lp2300
S':'
asbag61
(g82
g63
NtRp2301
(dp2302
g66
(dp2303
sg75
g2288
sg68
(lp2304
g61
(g62
g63
NtRp2305
(dp2306
g66
(dp2307
g74
I4
ssg75
g2301
sg68
(lp2308
S'frost.gravity.hws.edu'
p2309
asbasbasbag61
(g77
g63
NtRp2310
(dp2311
g66
(dp2312
sg75
g1759
sg68
(lp2313
g61
(g82
g63
NtRp2314
(dp2315
g66
(dp2316
g86
g87
ssg75
g2310
sg68
(lp2317
S'server_port'
p2318
asbag61
(g82
g63
NtRp2319
(dp2320
g66
(dp2321
g93
g94
ssg75
g2310
sg68
(lp2322
S':'
asbag61
(g82
g63
NtRp2323
(dp2324
g66
(dp2325
sg75
g2310
sg68
(lp2326
g61
(g62
g63
NtRp2327
(dp2328
g66
(dp2329
g74
I4
ssg75
g2323
sg68
(lp2330
S'8000'
p2331
asbasbasbag61
(g77
g63
NtRp2332
(dp2333
g66
(dp2334
sg75
g1759
sg68
(lp2335
g61
(g82
g63
NtRp2336
(dp2337
g66
(dp2338
g86
g87
ssg75
g2332
sg68
(lp2339
S'server_protocol'
p2340
asbag61
(g82
g63
NtRp2341
(dp2342
g66
(dp2343
g93
g94
ssg75
g2332
sg68
(lp2344
S':'
asbag61
(g82
g63
NtRp2345
(dp2346
g66
(dp2347
sg75
g2332
sg68
(lp2348
g61
(g62
g63
NtRp2349
(dp2350
g66
(dp2351
g74
I4
ssg75
g2345
sg68
(lp2352
S'HTTP/1.1'
p2353
asbasbasbag61
(g77
g63
NtRp2354
(dp2355
g66
(dp2356
sg75
g1759
sg68
(lp2357
g61
(g82
g63
NtRp2358
(dp2359
g66
(dp2360
g86
g87
ssg75
g2354
sg68
(lp2361
S'server_software'
p2362
asbag61
(g82
g63
NtRp2363
(dp2364
g66
(dp2365
g93
g94
ssg75
g2354
sg68
(lp2366
S':'
asbag61
(g82
g63
NtRp2367
(dp2368
g66
(dp2369
sg75
g2354
sg68
(lp2370
g61
(g62
g63
NtRp2371
(dp2372
g66
(dp2373
g74
I4
ssg75
g2367
sg68
(lp2374
S'Rocket 1.2.4'
p2375
asbasbasbag61
(g77
g63
NtRp2376
(dp2377
g66
(dp2378
sg75
g1759
sg68
(lp2379
g61
(g82
g63
NtRp2380
(dp2381
g66
(dp2382
g86
g87
ssg75
g2376
sg68
(lp2383
S'web2py_crontype'
p2384
asbag61
(g82
g63
NtRp2385
(dp2386
g66
(dp2387
g93
g94
ssg75
g2376
sg68
(lp2388
S':'
asbag61
(g82
g63
NtRp2389
(dp2390
g66
(dp2391
sg75
g2376
sg68
(lp2392
g61
(g62
g63
NtRp2393
(dp2394
g66
(dp2395
g74
I4
ssg75
g2389
sg68
(lp2396
S'hard'
p2397
asbasbasbag61
(g77
g63
NtRp2398
(dp2399
g66
(dp2400
sg75
g1759
sg68
(lp2401
g61
(g82
g63
NtRp2402
(dp2403
g66
(dp2404
g86
g87
ssg75
g2398
sg68
(lp2405
S'web2py_path'
p2406
asbag61
(g82
g63
NtRp2407
(dp2408
g66
(dp2409
g93
g94
ssg75
g2398
sg68
(lp2410
S':'
asbag61
(g82
g63
NtRp2411
(dp2412
g66
(dp2413
sg75
g2398
sg68
(lp2414
g61
(g62
g63
NtRp2415
(dp2416
g66
(dp2417
g74
I4
ssg75
g2411
sg68
(lp2418
g1806
asbasbasbag61
(g77
g63
NtRp2419
(dp2420
g66
(dp2421
sg75
g1759
sg68
(lp2422
g61
(g82
g63
NtRp2423
(dp2424
g66
(dp2425
g86
g87
ssg75
g2419
sg68
(lp2426
S'web2py_version'
p2427
asbag61
(g82
g63
NtRp2428
(dp2429
g66
(dp2430
g93
g94
ssg75
g2419
sg68
(lp2431
S':'
asbag61
(g82
g63
NtRp2432
(dp2433
g66
(dp2434
sg75
g2419
sg68
(lp2435
g61
(g62
g63
NtRp2436
(dp2437
g66
(dp2438
g74
I4
ssg75
g2432
sg68
(lp2439
g61
(g70
g63
NtRp2440
(dp2441
g66
(dp2442
g74
I3
ssg75
Nsg68
(lp2443
g61
(g77
g63
NtRp2444
(dp2445
g66
(dp2446
sg75
g2440
sg68
(lp2447
g61
(g82
g63
NtRp2448
(dp2449
g66
(dp2450
sg75
g2444
sg68
(lp2451
g61
(g62
g63
NtRp2452
(dp2453
g66
(dp2454
g74
I3
ssg75
g2448
sg68
(lp2455
S'2'
asbasbasbag61
(g77
g63
NtRp2456
(dp2457
g66
(dp2458
sg75
g2440
sg68
(lp2459
g61
(g82
g63
NtRp2460
(dp2461
g66
(dp2462
sg75
g2456
sg68
(lp2463
g61
(g62
g63
NtRp2464
(dp2465
g66
(dp2466
g74
I3
ssg75
g2460
sg68
(lp2467
S'0'
asbasbasbag61
(g77
g63
NtRp2468
(dp2469
g66
(dp2470
sg75
g2440
sg68
(lp2471
g61
(g82
g63
NtRp2472
(dp2473
g66
(dp2474
sg75
g2468
sg68
(lp2475
g61
(g62
g63
NtRp2476
(dp2477
g66
(dp2478
g74
I3
ssg75
g2472
sg68
(lp2479
S'0'
asbasbasbag61
(g77
g63
NtRp2480
(dp2481
g66
(dp2482
sg75
g2440
sg68
(lp2483
g61
(g82
g63
NtRp2484
(dp2485
g66
(dp2486
sg75
g2480
sg68
(lp2487
g61
(g62
g63
NtRp2488
(dp2489
g66
(dp2490
g74
I3
ssg75
g2484
sg68
(lp2491
S'datetime.datetime(2012, 7, 11, 9, 17, 27)'
p2492
asbasbasbag61
(g77
g63
NtRp2493
(dp2494
g66
(dp2495
sg75
g2440
sg68
(lp2496
g61
(g82
g63
NtRp2497
(dp2498
g66
(dp2499
sg75
g2493
sg68
(lp2500
g61
(g62
g63
NtRp2501
(dp2502
g66
(dp2503
g74
I3
ssg75
g2497
sg68
(lp2504
S'dev'
p2505
asbasbasbasbasbasbasbag61
(g77
g63
NtRp2506
(dp2507
g66
(dp2508
sg75
g1759
sg68
(lp2509
g61
(g82
g63
NtRp2510
(dp2511
g66
(dp2512
g86
g87
ssg75
g2506
sg68
(lp2513
S'wsgi_errors'
p2514
asbag61
(g82
g63
NtRp2515
(dp2516
g66
(dp2517
g93
g94
ssg75
g2506
sg68
(lp2518
S':'
asbag61
(g82
g63
NtRp2519
(dp2520
g66
(dp2521
sg75
g2506
sg68
(lp2522
g61
(g62
g63
NtRp2523
(dp2524
g66
(dp2525
g74
I4
ssg75
g2519
sg68
(lp2526
S"<open file '<stderr>', mode 'w' at 0x3410d0>"
p2527
asbasbasbag61
(g77
g63
NtRp2528
(dp2529
g66
(dp2530
sg75
g1759
sg68
(lp2531
g61
(g82
g63
NtRp2532
(dp2533
g66
(dp2534
g86
g87
ssg75
g2528
sg68
(lp2535
S'wsgi_file_wrapper'
p2536
asbag61
(g82
g63
NtRp2537
(dp2538
g66
(dp2539
g93
g94
ssg75
g2528
sg68
(lp2540
S':'
asbag61
(g82
g63
NtRp2541
(dp2542
g66
(dp2543
sg75
g2528
sg68
(lp2544
g61
(g62
g63
NtRp2545
(dp2546
g66
(dp2547
g74
I4
ssg75
g2541
sg68
(lp2548
S'<class wsgiref.util.FileWrapper at 0x18934b0>'
p2549
asbasbasbag61
(g77
g63
NtRp2550
(dp2551
g66
(dp2552
sg75
g1759
sg68
(lp2553
g61
(g82
g63
NtRp2554
(dp2555
g66
(dp2556
g86
g87
ssg75
g2550
sg68
(lp2557
S'wsgi_input'
p2558
asbag61
(g82
g63
NtRp2559
(dp2560
g66
(dp2561
g93
g94
ssg75
g2550
sg68
(lp2562
S':'
asbag61
(g82
g63
NtRp2563
(dp2564
g66
(dp2565
sg75
g2550
sg68
(lp2566
g61
(g62
g63
NtRp2567
(dp2568
g66
(dp2569
g74
I4
ssg75
g2563
sg68
(lp2570
S'<socket._fileobject object at 0x184f5af0>'
p2571
asbasbasbag61
(g77
g63
NtRp2572
(dp2573
g66
(dp2574
sg75
g1759
sg68
(lp2575
g61
(g82
g63
NtRp2576
(dp2577
g66
(dp2578
g86
g87
ssg75
g2572
sg68
(lp2579
S'wsgi_multiprocess'
p2580
asbag61
(g82
g63
NtRp2581
(dp2582
g66
(dp2583
g93
g94
ssg75
g2572
sg68
(lp2584
S':'
asbag61
(g82
g63
NtRp2585
(dp2586
g66
(dp2587
sg75
g2572
sg68
(lp2588
g61
(g62
g63
NtRp2589
(dp2590
g66
(dp2591
g74
I4
ssg75
g2585
sg68
(lp2592
g104
asbasbasbag61
(g77
g63
NtRp2593
(dp2594
g66
(dp2595
sg75
g1759
sg68
(lp2596
g61
(g82
g63
NtRp2597
(dp2598
g66
(dp2599
g86
g87
ssg75
g2593
sg68
(lp2600
S'wsgi_multithread'
p2601
asbag61
(g82
g63
NtRp2602
(dp2603
g66
(dp2604
g93
g94
ssg75
g2593
sg68
(lp2605
S':'
asbag61
(g82
g63
NtRp2606
(dp2607
g66
(dp2608
sg75
g2593
sg68
(lp2609
g61
(g62
g63
NtRp2610
(dp2611
g66
(dp2612
g74
I4
ssg75
g2606
sg68
(lp2613
S'True'
p2614
asbasbasbag61
(g77
g63
NtRp2615
(dp2616
g66
(dp2617
sg75
g1759
sg68
(lp2618
g61
(g82
g63
NtRp2619
(dp2620
g66
(dp2621
g86
g87
ssg75
g2615
sg68
(lp2622
S'wsgi_run_once'
p2623
asbag61
(g82
g63
NtRp2624
(dp2625
g66
(dp2626
g93
g94
ssg75
g2615
sg68
(lp2627
S':'
asbag61
(g82
g63
NtRp2628
(dp2629
g66
(dp2630
sg75
g2615
sg68
(lp2631
g61
(g62
g63
NtRp2632
(dp2633
g66
(dp2634
g74
I4
ssg75
g2628
sg68
(lp2635
g104
asbasbasbag61
(g77
g63
NtRp2636
(dp2637
g66
(dp2638
sg75
g1759
sg68
(lp2639
g61
(g82
g63
NtRp2640
(dp2641
g66
(dp2642
g86
g87
ssg75
g2636
sg68
(lp2643
S'wsgi_url_scheme'
p2644
asbag61
(g82
g63
NtRp2645
(dp2646
g66
(dp2647
g93
g94
ssg75
g2636
sg68
(lp2648
S':'
asbag61
(g82
g63
NtRp2649
(dp2650
g66
(dp2651
sg75
g2636
sg68
(lp2652
g61
(g62
g63
NtRp2653
(dp2654
g66
(dp2655
g74
I4
ssg75
g2649
sg68
(lp2656
S'http'
p2657
asbasbasbag61
(g77
g63
NtRp2658
(dp2659
g66
(dp2660
sg75
g1759
sg68
(lp2661
g61
(g82
g63
NtRp2662
(dp2663
g66
(dp2664
g86
g87
ssg75
g2658
sg68
(lp2665
S'wsgi_version'
p2666
asbag61
(g82
g63
NtRp2667
(dp2668
g66
(dp2669
g93
g94
ssg75
g2658
sg68
(lp2670
S':'
asbag61
(g82
g63
NtRp2671
(dp2672
g66
(dp2673
sg75
g2658
sg68
(lp2674
g61
(g62
g63
NtRp2675
(dp2676
g66
(dp2677
g74
I4
ssg75
g2671
sg68
(lp2678
g61
(g70
g63
NtRp2679
(dp2680
g66
(dp2681
g74
I3
ssg75
Nsg68
(lp2682
g61
(g77
g63
NtRp2683
(dp2684
g66
(dp2685
sg75
g2679
sg68
(lp2686
g61
(g82
g63
NtRp2687
(dp2688
g66
(dp2689
sg75
g2683
sg68
(lp2690
g61
(g62
g63
NtRp2691
(dp2692
g66
(dp2693
g74
I3
ssg75
g2687
sg68
(lp2694
S'1'
asbasbasbag61
(g77
g63
NtRp2695
(dp2696
g66
(dp2697
sg75
g2679
sg68
(lp2698
g61
(g82
g63
NtRp2699
(dp2700
g66
(dp2701
sg75
g2695
sg68
(lp2702
g61
(g62
g63
NtRp2703
(dp2704
g66
(dp2705
g74
I3
ssg75
g2699
sg68
(lp2706
S'0'
asbasbasbasbasbasbasbasbasbasbasbag61
(g77
g63
NtRp2707
(dp2708
g66
(dp2709
sg75
g71
sg68
(lp2710
g61
(g82
g63
NtRp2711
(dp2712
g66
(dp2713
g86
g87
ssg75
g2707
sg68
(lp2714
S'extension'
p2715
asbag61
(g82
g63
NtRp2716
(dp2717
g66
(dp2718
g93
g94
ssg75
g2707
sg68
(lp2719
S':'
asbag61
(g82
g63
NtRp2720
(dp2721
g66
(dp2722
sg75
g2707
sg68
(lp2723
g61
(g62
g63
NtRp2724
(dp2725
g66
(dp2726
g74
I5
ssg75
g2720
sg68
(lp2727
S'html'
p2728
asbasbasbag61
(g77
g63
NtRp2729
(dp2730
g66
(dp2731
sg75
g71
sg68
(lp2732
g61
(g82
g63
NtRp2733
(dp2734
g66
(dp2735
g86
g87
ssg75
g2729
sg68
(lp2736
S'folder'
p2737
asbag61
(g82
g63
NtRp2738
(dp2739
g66
(dp2740
g93
g94
ssg75
g2729
sg68
(lp2741
S':'
asbag61
(g82
g63
NtRp2742
(dp2743
g66
(dp2744
sg75
g2729
sg68
(lp2745
g61
(g62
g63
NtRp2746
(dp2747
g66
(dp2748
g74
I5
ssg75
g2742
sg68
(lp2749
S'/web2pyTrunk/applications/GPIBHWS/'
p2750
asbasbasbag61
(g77
g63
NtRp2751
(dp2752
g66
(dp2753
sg75
g71
sg68
(lp2754
g61
(g82
g63
NtRp2755
(dp2756
g66
(dp2757
g86
g87
ssg75
g2751
sg68
(lp2758
S'function'
p2759
asbag61
(g82
g63
NtRp2760
(dp2761
g66
(dp2762
g93
g94
ssg75
g2751
sg68
(lp2763
S':'
asbag61
(g82
g63
NtRp2764
(dp2765
g66
(dp2766
sg75
g2751
sg68
(lp2767
g61
(g62
g63
NtRp2768
(dp2769
g66
(dp2770
g74
I5
ssg75
g2764
sg68
(lp2771
S'index'
p2772
asbasbasbag61
(g77
g63
NtRp2773
(dp2774
g66
(dp2775
sg75
g71
sg68
(lp2776
g61
(g82
g63
NtRp2777
(dp2778
g66
(dp2779
g86
g87
ssg75
g2773
sg68
(lp2780
S'get_vars'
p2781
asbag61
(g82
g63
NtRp2782
(dp2783
g66
(dp2784
g93
g94
ssg75
g2773
sg68
(lp2785
S':'
asbag61
(g82
g63
NtRp2786
(dp2787
g66
(dp2788
sg75
g2773
sg68
(lp2789
g61
(g62
g63
NtRp2790
(dp2791
g66
(dp2792
g74
I5
ssg75
g2786
sg68
(lp2793
g61
(g70
g63
NtRp2794
(dp2795
g66
(dp2796
g74
I4
ssg75
Nsg68
(lp2797
sbasbasbasbag61
(g77
g63
NtRp2798
(dp2799
g66
(dp2800
sg75
g71
sg68
(lp2801
g61
(g82
g63
NtRp2802
(dp2803
g66
(dp2804
g86
g87
ssg75
g2798
sg68
(lp2805
S'global_settings'
p2806
asbag61
(g82
g63
NtRp2807
(dp2808
g66
(dp2809
g93
g94
ssg75
g2798
sg68
(lp2810
S':'
asbag61
(g82
g63
NtRp2811
(dp2812
g66
(dp2813
sg75
g2798
sg68
(lp2814
g61
(g62
g63
NtRp2815
(dp2816
g66
(dp2817
g74
I5
ssg75
g2811
sg68
(lp2818
g61
(g70
g63
NtRp2819
(dp2820
g66
(dp2821
g74
I4
ssg75
Nsg68
(lp2822
g61
(g77
g63
NtRp2823
(dp2824
g66
(dp2825
sg75
g2819
sg68
(lp2826
g61
(g82
g63
NtRp2827
(dp2828
g66
(dp2829
g86
g87
ssg75
g2823
sg68
(lp2830
g1771
asbag61
(g82
g63
NtRp2831
(dp2832
g66
(dp2833
g93
g94
ssg75
g2823
sg68
(lp2834
S':'
asbag61
(g82
g63
NtRp2835
(dp2836
g66
(dp2837
sg75
g2823
sg68
(lp2838
g61
(g62
g63
NtRp2839
(dp2840
g66
(dp2841
g74
I4
ssg75
g2835
sg68
(lp2842
S"set(['/web2pyTrunk/applications/examples/', '/web2pyTrunk/applications/welcome/', '/web2pyTrunk/applications/HWSGPIB/', '/web2pyTrunk/applications/GPIBFinal/', '/web2pyTrunk/applications/GPIBHWS/', '/web2pyTrunk/applications/admin/'])"
p2843
asbasbasbag61
(g77
g63
NtRp2844
(dp2845
g66
(dp2846
sg75
g2819
sg68
(lp2847
g61
(g82
g63
NtRp2848
(dp2849
g66
(dp2850
g86
g87
ssg75
g2844
sg68
(lp2851
g1793
asbag61
(g82
g63
NtRp2852
(dp2853
g66
(dp2854
g93
g94
ssg75
g2844
sg68
(lp2855
S':'
asbag61
(g82
g63
NtRp2856
(dp2857
g66
(dp2858
sg75
g2844
sg68
(lp2859
g61
(g62
g63
NtRp2860
(dp2861
g66
(dp2862
g74
I4
ssg75
g2856
sg68
(lp2863
g1806
asbasbasbag61
(g77
g63
NtRp2864
(dp2865
g66
(dp2866
sg75
g2819
sg68
(lp2867
g61
(g82
g63
NtRp2868
(dp2869
g66
(dp2870
g86
g87
ssg75
g2864
sg68
(lp2871
g1815
asbag61
(g82
g63
NtRp2872
(dp2873
g66
(dp2874
g93
g94
ssg75
g2864
sg68
(lp2875
S':'
asbag61
(g82
g63
NtRp2876
(dp2877
g66
(dp2878
sg75
g2864
sg68
(lp2879
g61
(g62
g63
NtRp2880
(dp2881
g66
(dp2882
g74
I4
ssg75
g2876
sg68
(lp2883
g61
(g70
g63
NtRp2884
(dp2885
g66
(dp2886
g74
I3
ssg75
Nsg68
(lp2887
sbasbasbasbag61
(g77
g63
NtRp2888
(dp2889
g66
(dp2890
sg75
g2819
sg68
(lp2891
g61
(g82
g63
NtRp2892
(dp2893
g66
(dp2894
g86
g87
ssg75
g2888
sg68
(lp2895
g1840
asbag61
(g82
g63
NtRp2896
(dp2897
g66
(dp2898
g93
g94
ssg75
g2888
sg68
(lp2899
S':'
asbag61
(g82
g63
NtRp2900
(dp2901
g66
(dp2902
sg75
g2888
sg68
(lp2903
g61
(g62
g63
NtRp2904
(dp2905
g66
(dp2906
g74
I4
ssg75
g2900
sg68
(lp2907
S"<Values at 0x18c4990: {'verbose': False, 'ip': '127.0.0.1', 'shutdown_timeout': 5, 'taskbar': False, 'nocron': False, 'pid_filename': 'httpserver.pid', 'maxthreads': None, 'softcron': False, 'server_name': 'frost.gravity.hws.edu', 'bpython': False, 'nogui': False, 'port': 8000, 'extcron': False, 'run_system_tests': False, 'test': None, 'folder': '/web2pyTrunk', 'config': '', 'import_models': False, 'winservice': '', 'shell': None, 'run': '', 'log_filename': 'httpserver.log', 'debuglevel': 30, 'args': [''], 'socket_timeout': 5, 'ssl_ca_certificate': None, 'scheduler': None, 'profiler_filename': None, 'ssl_private_key': '', 'password': '<ask>', 'request_queue_size': 5, 'ssl_certificate': '', 'cronjob': False, 'numthreads': None, 'quiet': False, 'interfaces': None, 'minthreads': None, 'timeout': 10, 'plain': False, 'nobanner': False}>"
p2908
asbasbasbag61
(g77
g63
NtRp2909
(dp2910
g66
(dp2911
sg75
g2819
sg68
(lp2912
g61
(g82
g63
NtRp2913
(dp2914
g66
(dp2915
g86
g87
ssg75
g2909
sg68
(lp2916
g1862
asbag61
(g82
g63
NtRp2917
(dp2918
g66
(dp2919
g93
g94
ssg75
g2909
sg68
(lp2920
S':'
asbag61
(g82
g63
NtRp2921
(dp2922
g66
(dp2923
sg75
g2909
sg68
(lp2924
g61
(g62
g63
NtRp2925
(dp2926
g66
(dp2927
g74
I4
ssg75
g2921
sg68
(lp2928
S'set([])'
p2929
asbasbasbag61
(g77
g63
NtRp2930
(dp2931
g66
(dp2932
sg75
g2819
sg68
(lp2933
g61
(g82
g63
NtRp2934
(dp2935
g66
(dp2936
g86
g87
ssg75
g2930
sg68
(lp2937
g1884
asbag61
(g82
g63
NtRp2938
(dp2939
g66
(dp2940
g93
g94
ssg75
g2930
sg68
(lp2941
S':'
asbag61
(g82
g63
NtRp2942
(dp2943
g66
(dp2944
sg75
g2930
sg68
(lp2945
g61
(g62
g63
NtRp2946
(dp2947
g66
(dp2948
g74
I4
ssg75
g2942
sg68
(lp2949
g104
asbasbasbag61
(g77
g63
NtRp2950
(dp2951
g66
(dp2952
sg75
g2819
sg68
(lp2953
g61
(g82
g63
NtRp2954
(dp2955
g66
(dp2956
g86
g87
ssg75
g2950
sg68
(lp2957
g1905
asbag61
(g82
g63
NtRp2958
(dp2959
g66
(dp2960
g93
g94
ssg75
g2950
sg68
(lp2961
S':'
asbag61
(g82
g63
NtRp2962
(dp2963
g66
(dp2964
sg75
g2950
sg68
(lp2965
g61
(g62
g63
NtRp2966
(dp2967
g66
(dp2968
g74
I4
ssg75
g2962
sg68
(lp2969
g1918
asbasbasbag61
(g77
g63
NtRp2970
(dp2971
g66
(dp2972
sg75
g2819
sg68
(lp2973
g61
(g82
g63
NtRp2974
(dp2975
g66
(dp2976
g86
g87
ssg75
g2970
sg68
(lp2977
g2125
asbag61
(g82
g63
NtRp2978
(dp2979
g66
(dp2980
g93
g94
ssg75
g2970
sg68
(lp2981
S':'
asbag61
(g82
g63
NtRp2982
(dp2983
g66
(dp2984
sg75
g2970
sg68
(lp2985
g61
(g62
g63
NtRp2986
(dp2987
g66
(dp2988
g74
I4
ssg75
g2982
sg68
(lp2989
g104
asbasbasbag61
(g77
g63
NtRp2990
(dp2991
g66
(dp2992
sg75
g2819
sg68
(lp2993
g61
(g82
g63
NtRp2994
(dp2995
g66
(dp2996
g86
g87
ssg75
g2990
sg68
(lp2997
g2146
asbag61
(g82
g63
NtRp2998
(dp2999
g66
(dp3000
g93
g94
ssg75
g2990
sg68
(lp3001
S':'
asbag61
(g82
g63
NtRp3002
(dp3003
g66
(dp3004
sg75
g2990
sg68
(lp3005
g61
(g62
g63
NtRp3006
(dp3007
g66
(dp3008
g74
I4
ssg75
g3002
sg68
(lp3009
g104
asbasbasbag61
(g77
g63
NtRp3010
(dp3011
g66
(dp3012
sg75
g2819
sg68
(lp3013
g61
(g82
g63
NtRp3014
(dp3015
g66
(dp3016
g86
g87
ssg75
g3010
sg68
(lp3017
g2384
asbag61
(g82
g63
NtRp3018
(dp3019
g66
(dp3020
g93
g94
ssg75
g3010
sg68
(lp3021
S':'
asbag61
(g82
g63
NtRp3022
(dp3023
g66
(dp3024
sg75
g3010
sg68
(lp3025
g61
(g62
g63
NtRp3026
(dp3027
g66
(dp3028
g74
I4
ssg75
g3022
sg68
(lp3029
g2397
asbasbasbag61
(g77
g63
NtRp3030
(dp3031
g66
(dp3032
sg75
g2819
sg68
(lp3033
g61
(g82
g63
NtRp3034
(dp3035
g66
(dp3036
g86
g87
ssg75
g3030
sg68
(lp3037
g2427
asbag61
(g82
g63
NtRp3038
(dp3039
g66
(dp3040
g93
g94
ssg75
g3030
sg68
(lp3041
S':'
asbag61
(g82
g63
NtRp3042
(dp3043
g66
(dp3044
sg75
g3030
sg68
(lp3045
g61
(g62
g63
NtRp3046
(dp3047
g66
(dp3048
g74
I4
ssg75
g3042
sg68
(lp3049
g61
(g70
g63
NtRp3050
(dp3051
g66
(dp3052
g74
I3
ssg75
Nsg68
(lp3053
g61
(g77
g63
NtRp3054
(dp3055
g66
(dp3056
sg75
g3050
sg68
(lp3057
g61
(g82
g63
NtRp3058
(dp3059
g66
(dp3060
sg75
g3054
sg68
(lp3061
g61
(g62
g63
NtRp3062
(dp3063
g66
(dp3064
g74
I3
ssg75
g3058
sg68
(lp3065
S'2'
asbasbasbag61
(g77
g63
NtRp3066
(dp3067
g66
(dp3068
sg75
g3050
sg68
(lp3069
g61
(g82
g63
NtRp3070
(dp3071
g66
(dp3072
sg75
g3066
sg68
(lp3073
g61
(g62
g63
NtRp3074
(dp3075
g66
(dp3076
g74
I3
ssg75
g3070
sg68
(lp3077
S'0'
asbasbasbag61
(g77
g63
NtRp3078
(dp3079
g66
(dp3080
sg75
g3050
sg68
(lp3081
g61
(g82
g63
NtRp3082
(dp3083
g66
(dp3084
sg75
g3078
sg68
(lp3085
g61
(g62
g63
NtRp3086
(dp3087
g66
(dp3088
g74
I3
ssg75
g3082
sg68
(lp3089
S'0'
asbasbasbag61
(g77
g63
NtRp3090
(dp3091
g66
(dp3092
sg75
g3050
sg68
(lp3093
g61
(g82
g63
NtRp3094
(dp3095
g66
(dp3096
sg75
g3090
sg68
(lp3097
g61
(g62
g63
NtRp3098
(dp3099
g66
(dp3100
g74
I3
ssg75
g3094
sg68
(lp3101
S'datetime.datetime(2012, 7, 11, 9, 17, 27)'
p3102
asbasbasbag61
(g77
g63
NtRp3103
(dp3104
g66
(dp3105
sg75
g3050
sg68
(lp3106
g61
(g82
g63
NtRp3107
(dp3108
g66
(dp3109
sg75
g3103
sg68
(lp3110
g61
(g62
g63
NtRp3111
(dp3112
g66
(dp3113
g74
I3
ssg75
g3107
sg68
(lp3114
g2505
asbasbasbasbasbasbasbasbasbasbasbag61
(g77
g63
NtRp3115
(dp3116
g66
(dp3117
sg75
g71
sg68
(lp3118
g61
(g82
g63
NtRp3119
(dp3120
g66
(dp3121
g86
g87
ssg75
g3115
sg68
(lp3122
S'is_https'
p3123
asbag61
(g82
g63
NtRp3124
(dp3125
g66
(dp3126
g93
g94
ssg75
g3115
sg68
(lp3127
S':'
asbag61
(g82
g63
NtRp3128
(dp3129
g66
(dp3130
sg75
g3115
sg68
(lp3131
g61
(g62
g63
NtRp3132
(dp3133
g66
(dp3134
g74
I5
ssg75
g3128
sg68
(lp3135
g104
asbasbasbag61
(g77
g63
NtRp3136
(dp3137
g66
(dp3138
sg75
g71
sg68
(lp3139
g61
(g82
g63
NtRp3140
(dp3141
g66
(dp3142
g86
g87
ssg75
g3136
sg68
(lp3143
S'is_local'
p3144
asbag61
(g82
g63
NtRp3145
(dp3146
g66
(dp3147
g93
g94
ssg75
g3136
sg68
(lp3148
S':'
asbag61
(g82
g63
NtRp3149
(dp3150
g66
(dp3151
sg75
g3136
sg68
(lp3152
g61
(g62
g63
NtRp3153
(dp3154
g66
(dp3155
g74
I5
ssg75
g3149
sg68
(lp3156
g2614
asbasbasbag61
(g77
g63
NtRp3157
(dp3158
g66
(dp3159
sg75
g71
sg68
(lp3160
g61
(g82
g63
NtRp3161
(dp3162
g66
(dp3163
g86
g87
ssg75
g3157
sg68
(lp3164
S'is_restful'
p3165
asbag61
(g82
g63
NtRp3166
(dp3167
g66
(dp3168
g93
g94
ssg75
g3157
sg68
(lp3169
S':'
asbag61
(g82
g63
NtRp3170
(dp3171
g66
(dp3172
sg75
g3157
sg68
(lp3173
g61
(g62
g63
NtRp3174
(dp3175
g66
(dp3176
g74
I5
ssg75
g3170
sg68
(lp3177
g104
asbasbasbag61
(g77
g63
NtRp3178
(dp3179
g66
(dp3180
sg75
g71
sg68
(lp3181
g61
(g82
g63
NtRp3182
(dp3183
g66
(dp3184
g86
g87
ssg75
g3178
sg68
(lp3185
S'now'
p3186
asbag61
(g82
g63
NtRp3187
(dp3188
g66
(dp3189
g93
g94
ssg75
g3178
sg68
(lp3190
S':'
asbag61
(g82
g63
NtRp3191
(dp3192
g66
(dp3193
sg75
g3178
sg68
(lp3194
g61
(g62
g63
NtRp3195
(dp3196
g66
(dp3197
g74
I5
ssg75
g3191
sg68
(lp3198
S'datetime.datetime(2012, 7, 30, 15, 58, 31, 910321)'
p3199
asbasbasbag61
(g77
g63
NtRp3200
(dp3201
g66
(dp3202
sg75
g71
sg68
(lp3203
g61
(g82
g63
NtRp3204
(dp3205
g66
(dp3206
g86
g87
ssg75
g3200
sg68
(lp3207
S'post_vars'
p3208
asbag61
(g82
g63
NtRp3209
(dp3210
g66
(dp3211
g93
g94
ssg75
g3200
sg68
(lp3212
S':'
asbag61
(g82
g63
NtRp3213
(dp3214
g66
(dp3215
sg75
g3200
sg68
(lp3216
g61
(g62
g63
NtRp3217
(dp3218
g66
(dp3219
g74
I5
ssg75
g3213
sg68
(lp3220
g61
(g70
g63
NtRp3221
(dp3222
g66
(dp3223
g74
I4
ssg75
Nsg68
(lp3224
sbasbasbasbag61
(g77
g63
NtRp3225
(dp3226
g66
(dp3227
sg75
g71
sg68
(lp3228
g61
(g82
g63
NtRp3229
(dp3230
g66
(dp3231
g86
g87
ssg75
g3225
sg68
(lp3232
S'url'
p3233
asbag61
(g82
g63
NtRp3234
(dp3235
g66
(dp3236
g93
g94
ssg75
g3225
sg68
(lp3237
S':'
asbag61
(g82
g63
NtRp3238
(dp3239
g66
(dp3240
sg75
g3225
sg68
(lp3241
g61
(g62
g63
NtRp3242
(dp3243
g66
(dp3244
g74
I5
ssg75
g3238
sg68
(lp3245
S'/GPIBHWS/appadmin/index'
p3246
asbasbasbag61
(g77
g63
NtRp3247
(dp3248
g66
(dp3249
sg75
g71
sg68
(lp3250
g61
(g82
g63
NtRp3251
(dp3252
g66
(dp3253
g86
g87
ssg75
g3247
sg68
(lp3254
S'utcnow'
p3255
asbag61
(g82
g63
NtRp3256
(dp3257
g66
(dp3258
g93
g94
ssg75
g3247
sg68
(lp3259
S':'
asbag61
(g82
g63
NtRp3260
(dp3261
g66
(dp3262
sg75
g3247
sg68
(lp3263
g61
(g62
g63
NtRp3264
(dp3265
g66
(dp3266
g74
I5
ssg75
g3260
sg68
(lp3267
S'datetime.datetime(2012, 7, 30, 19, 58, 31, 910330)'
p3268
asbasbasbag61
(g77
g63
NtRp3269
(dp3270
g66
(dp3271
sg75
g71
sg68
(lp3272
g61
(g82
g63
NtRp3273
(dp3274
g66
(dp3275
g86
g87
ssg75
g3269
sg68
(lp3276
S'uuid'
p3277
asbag61
(g82
g63
NtRp3278
(dp3279
g66
(dp3280
g93
g94
ssg75
g3269
sg68
(lp3281
S':'
asbag61
(g82
g63
NtRp3282
(dp3283
g66
(dp3284
sg75
g3269
sg68
(lp3285
g61
(g62
g63
NtRp3286
(dp3287
g66
(dp3288
g74
I5
ssg75
g3282
sg68
(lp3289
S'GPIBHWS/127.0.0.1.2012-07-30.15-58-31.caada7d7-20fd-43e7-a928-e4046e3a8a30'
p3290
asbasbasbag61
(g77
g63
NtRp3291
(dp3292
g66
(dp3293
sg75
g71
sg68
(lp3294
g61
(g82
g63
NtRp3295
(dp3296
g66
(dp3297
g86
g87
ssg75
g3291
sg68
(lp3298
S'vars'
p3299
asbag61
(g82
g63
NtRp3300
(dp3301
g66
(dp3302
g93
g94
ssg75
g3291
sg68
(lp3303
S':'
asbag61
(g82
g63
NtRp3304
(dp3305
g66
(dp3306
sg75
g3291
sg68
(lp3307
g61
(g62
g63
NtRp3308
(dp3309
g66
(dp3310
g74
I5
ssg75
g3304
sg68
(lp3311
g61
(g70
g63
NtRp3312
(dp3313
g66
(dp3314
g74
I4
ssg75
Nsg68
(lp3315
sbasbasbasbag61
(g77
g63
NtRp3316
(dp3317
g66
(dp3318
sg75
g71
sg68
(lp3319
g61
(g82
g63
NtRp3320
(dp3321
g66
(dp3322
g86
g87
ssg75
g3316
sg68
(lp3323
S'wsgi'
p3324
asbag61
(g82
g63
NtRp3325
(dp3326
g66
(dp3327
g93
g94
ssg75
g3316
sg68
(lp3328
S':'
asbag61
(g82
g63
NtRp3329
(dp3330
g66
(dp3331
sg75
g3316
sg68
(lp3332
g61
(g62
g63
NtRp3333
(dp3334
g66
(dp3335
g74
I5
ssg75
g3329
sg68
(lp3336
g61
(g70
g63
NtRp3337
(dp3338
g66
(dp3339
g74
I4
ssg75
Nsg68
(lp3340
g61
(g77
g63
NtRp3341
(dp3342
g66
(dp3343
sg75
g3337
sg68
(lp3344
g61
(g82
g63
NtRp3345
(dp3346
g66
(dp3347
g86
g87
ssg75
g3341
sg68
(lp3348
S'environ'
p3349
asbag61
(g82
g63
NtRp3350
(dp3351
g66
(dp3352
g93
g94
ssg75
g3341
sg68
(lp3353
S':'
asbag61
(g82
g63
NtRp3354
(dp3355
g66
(dp3356
sg75
g3341
sg68
(lp3357
g61
(g62
g63
NtRp3358
(dp3359
g66
(dp3360
g74
I4
ssg75
g3354
sg68
(lp3361
g61
(g70
g63
NtRp3362
(dp3363
g66
(dp3364
g74
I3
ssg75
Nsg68
(lp3365
g61
(g77
g63
NtRp3366
(dp3367
g66
(dp3368
sg75
g3362
sg68
(lp3369
g61
(g82
g63
NtRp3370
(dp3371
g66
(dp3372
g86
g87
ssg75
g3366
sg68
(lp3373
S'HTTP_ACCEPT'
p3374
asbag61
(g82
g63
NtRp3375
(dp3376
g66
(dp3377
g93
g94
ssg75
g3366
sg68
(lp3378
S':'
asbag61
(g82
g63
NtRp3379
(dp3380
g66
(dp3381
sg75
g3366
sg68
(lp3382
g61
(g62
g63
NtRp3383
(dp3384
g66
(dp3385
g74
I3
ssg75
g3379
sg68
(lp3386
g1940
asbasbasbag61
(g77
g63
NtRp3387
(dp3388
g66
(dp3389
sg75
g3362
sg68
(lp3390
g61
(g82
g63
NtRp3391
(dp3392
g66
(dp3393
g86
g87
ssg75
g3387
sg68
(lp3394
S'HTTP_ACCEPT_CHARSET'
p3395
asbag61
(g82
g63
NtRp3396
(dp3397
g66
(dp3398
g93
g94
ssg75
g3387
sg68
(lp3399
S':'
asbag61
(g82
g63
NtRp3400
(dp3401
g66
(dp3402
sg75
g3387
sg68
(lp3403
g61
(g62
g63
NtRp3404
(dp3405
g66
(dp3406
g74
I3
ssg75
g3400
sg68
(lp3407
g1962
asbasbasbag61
(g77
g63
NtRp3408
(dp3409
g66
(dp3410
sg75
g3362
sg68
(lp3411
g61
(g82
g63
NtRp3412
(dp3413
g66
(dp3414
g86
g87
ssg75
g3408
sg68
(lp3415
S'HTTP_ACCEPT_ENCODING'
p3416
asbag61
(g82
g63
NtRp3417
(dp3418
g66
(dp3419
g93
g94
ssg75
g3408
sg68
(lp3420
S':'
asbag61
(g82
g63
NtRp3421
(dp3422
g66
(dp3423
sg75
g3408
sg68
(lp3424
g61
(g62
g63
NtRp3425
(dp3426
g66
(dp3427
g74
I3
ssg75
g3421
sg68
(lp3428
g1984
asbasbasbag61
(g77
g63
NtRp3429
(dp3430
g66
(dp3431
sg75
g3362
sg68
(lp3432
g61
(g82
g63
NtRp3433
(dp3434
g66
(dp3435
g86
g87
ssg75
g3429
sg68
(lp3436
S'HTTP_ACCEPT_LANGUAGE'
p3437
asbag61
(g82
g63
NtRp3438
(dp3439
g66
(dp3440
g93
g94
ssg75
g3429
sg68
(lp3441
S':'
asbag61
(g82
g63
NtRp3442
(dp3443
g66
(dp3444
sg75
g3429
sg68
(lp3445
g61
(g62
g63
NtRp3446
(dp3447
g66
(dp3448
g74
I3
ssg75
g3442
sg68
(lp3449
g2006
asbasbasbag61
(g77
g63
NtRp3450
(dp3451
g66
(dp3452
sg75
g3362
sg68
(lp3453
g61
(g82
g63
NtRp3454
(dp3455
g66
(dp3456
g86
g87
ssg75
g3450
sg68
(lp3457
S'HTTP_CONNECTION'
p3458
asbag61
(g82
g63
NtRp3459
(dp3460
g66
(dp3461
g93
g94
ssg75
g3450
sg68
(lp3462
S':'
asbag61
(g82
g63
NtRp3463
(dp3464
g66
(dp3465
sg75
g3450
sg68
(lp3466
g61
(g62
g63
NtRp3467
(dp3468
g66
(dp3469
g74
I3
ssg75
g3463
sg68
(lp3470
g2028
asbasbasbag61
(g77
g63
NtRp3471
(dp3472
g66
(dp3473
sg75
g3362
sg68
(lp3474
g61
(g82
g63
NtRp3475
(dp3476
g66
(dp3477
g86
g87
ssg75
g3471
sg68
(lp3478
S'HTTP_COOKIE'
p3479
asbag61
(g82
g63
NtRp3480
(dp3481
g66
(dp3482
g93
g94
ssg75
g3471
sg68
(lp3483
S':'
asbag61
(g82
g63
NtRp3484
(dp3485
g66
(dp3486
sg75
g3471
sg68
(lp3487
g61
(g62
g63
NtRp3488
(dp3489
g66
(dp3490
g74
I3
ssg75
g3484
sg68
(lp3491
g2050
asbasbasbag61
(g77
g63
NtRp3492
(dp3493
g66
(dp3494
sg75
g3362
sg68
(lp3495
g61
(g82
g63
NtRp3496
(dp3497
g66
(dp3498
g86
g87
ssg75
g3492
sg68
(lp3499
S'HTTP_HOST'
p3500
asbag61
(g82
g63
NtRp3501
(dp3502
g66
(dp3503
g93
g94
ssg75
g3492
sg68
(lp3504
S':'
asbag61
(g82
g63
NtRp3505
(dp3506
g66
(dp3507
sg75
g3492
sg68
(lp3508
g61
(g62
g63
NtRp3509
(dp3510
g66
(dp3511
g74
I3
ssg75
g3505
sg68
(lp3512
g2072
asbasbasbag61
(g77
g63
NtRp3513
(dp3514
g66
(dp3515
sg75
g3362
sg68
(lp3516
g61
(g82
g63
NtRp3517
(dp3518
g66
(dp3519
g86
g87
ssg75
g3513
sg68
(lp3520
S'HTTP_REFERER'
p3521
asbag61
(g82
g63
NtRp3522
(dp3523
g66
(dp3524
g93
g94
ssg75
g3513
sg68
(lp3525
S':'
asbag61
(g82
g63
NtRp3526
(dp3527
g66
(dp3528
sg75
g3513
sg68
(lp3529
g61
(g62
g63
NtRp3530
(dp3531
g66
(dp3532
g74
I3
ssg75
g3526
sg68
(lp3533
g2094
asbasbasbag61
(g77
g63
NtRp3534
(dp3535
g66
(dp3536
sg75
g3362
sg68
(lp3537
g61
(g82
g63
NtRp3538
(dp3539
g66
(dp3540
g86
g87
ssg75
g3534
sg68
(lp3541
S'HTTP_USER_AGENT'
p3542
asbag61
(g82
g63
NtRp3543
(dp3544
g66
(dp3545
g93
g94
ssg75
g3534
sg68
(lp3546
S':'
asbag61
(g82
g63
NtRp3547
(dp3548
g66
(dp3549
sg75
g3534
sg68
(lp3550
g61
(g62
g63
NtRp3551
(dp3552
g66
(dp3553
g74
I3
ssg75
g3547
sg68
(lp3554
g2116
asbasbasbag61
(g77
g63
NtRp3555
(dp3556
g66
(dp3557
sg75
g3362
sg68
(lp3558
g61
(g82
g63
NtRp3559
(dp3560
g66
(dp3561
g86
g87
ssg75
g3555
sg68
(lp3562
S'PATH_INFO'
p3563
asbag61
(g82
g63
NtRp3564
(dp3565
g66
(dp3566
g93
g94
ssg75
g3555
sg68
(lp3567
S':'
asbag61
(g82
g63
NtRp3568
(dp3569
g66
(dp3570
sg75
g3555
sg68
(lp3571
g61
(g62
g63
NtRp3572
(dp3573
g66
(dp3574
g74
I3
ssg75
g3568
sg68
(lp3575
g2180
asbasbasbag61
(g77
g63
NtRp3576
(dp3577
g66
(dp3578
sg75
g3362
sg68
(lp3579
g61
(g82
g63
NtRp3580
(dp3581
g66
(dp3582
g86
g87
ssg75
g3576
sg68
(lp3583
S'QUERY_STRING'
p3584
asbag61
(g82
g63
NtRp3585
(dp3586
g66
(dp3587
g93
g94
ssg75
g3576
sg68
(lp3588
S':'
asbag61
(g82
g63
NtRp3589
(dp3590
g66
(dp3591
sg75
g3576
sg68
(lp3592
g61
(g62
g63
NtRp3593
(dp3594
g66
(dp3595
g74
I3
ssg75
g3589
sg68
(lp3596
S''
asbasbasbag61
(g77
g63
NtRp3597
(dp3598
g66
(dp3599
sg75
g3362
sg68
(lp3600
g61
(g82
g63
NtRp3601
(dp3602
g66
(dp3603
g86
g87
ssg75
g3597
sg68
(lp3604
S'REMOTE_ADDR'
p3605
asbag61
(g82
g63
NtRp3606
(dp3607
g66
(dp3608
g93
g94
ssg75
g3597
sg68
(lp3609
S':'
asbag61
(g82
g63
NtRp3610
(dp3611
g66
(dp3612
sg75
g3597
sg68
(lp3613
g61
(g62
g63
NtRp3614
(dp3615
g66
(dp3616
g74
I3
ssg75
g3610
sg68
(lp3617
g194
asbasbasbag61
(g77
g63
NtRp3618
(dp3619
g66
(dp3620
sg75
g3362
sg68
(lp3621
g61
(g82
g63
NtRp3622
(dp3623
g66
(dp3624
g86
g87
ssg75
g3618
sg68
(lp3625
S'REMOTE_PORT'
p3626
asbag61
(g82
g63
NtRp3627
(dp3628
g66
(dp3629
g93
g94
ssg75
g3618
sg68
(lp3630
S':'
asbag61
(g82
g63
NtRp3631
(dp3632
g66
(dp3633
sg75
g3618
sg68
(lp3634
g61
(g62
g63
NtRp3635
(dp3636
g66
(dp3637
g74
I3
ssg75
g3631
sg68
(lp3638
g2244
asbasbasbag61
(g77
g63
NtRp3639
(dp3640
g66
(dp3641
sg75
g3362
sg68
(lp3642
g61
(g82
g63
NtRp3643
(dp3644
g66
(dp3645
g86
g87
ssg75
g3639
sg68
(lp3646
S'REQUEST_METHOD'
p3647
asbag61
(g82
g63
NtRp3648
(dp3649
g66
(dp3650
g93
g94
ssg75
g3639
sg68
(lp3651
S':'
asbag61
(g82
g63
NtRp3652
(dp3653
g66
(dp3654
sg75
g3639
sg68
(lp3655
g61
(g62
g63
NtRp3656
(dp3657
g66
(dp3658
g74
I3
ssg75
g3652
sg68
(lp3659
g2266
asbasbasbag61
(g77
g63
NtRp3660
(dp3661
g66
(dp3662
sg75
g3362
sg68
(lp3663
g61
(g82
g63
NtRp3664
(dp3665
g66
(dp3666
g86
g87
ssg75
g3660
sg68
(lp3667
S'SCRIPT_NAME'
p3668
asbag61
(g82
g63
NtRp3669
(dp3670
g66
(dp3671
g93
g94
ssg75
g3660
sg68
(lp3672
S':'
asbag61
(g82
g63
NtRp3673
(dp3674
g66
(dp3675
sg75
g3660
sg68
(lp3676
g61
(g62
g63
NtRp3677
(dp3678
g66
(dp3679
g74
I3
ssg75
g3673
sg68
(lp3680
S''
asbasbasbag61
(g77
g63
NtRp3681
(dp3682
g66
(dp3683
sg75
g3362
sg68
(lp3684
g61
(g82
g63
NtRp3685
(dp3686
g66
(dp3687
g86
g87
ssg75
g3681
sg68
(lp3688
S'SERVER_NAME'
p3689
asbag61
(g82
g63
NtRp3690
(dp3691
g66
(dp3692
g93
g94
ssg75
g3681
sg68
(lp3693
S':'
asbag61
(g82
g63
NtRp3694
(dp3695
g66
(dp3696
sg75
g3681
sg68
(lp3697
g61
(g62
g63
NtRp3698
(dp3699
g66
(dp3700
g74
I3
ssg75
g3694
sg68
(lp3701
g2309
asbasbasbag61
(g77
g63
NtRp3702
(dp3703
g66
(dp3704
sg75
g3362
sg68
(lp3705
g61
(g82
g63
NtRp3706
(dp3707
g66
(dp3708
g86
g87
ssg75
g3702
sg68
(lp3709
S'SERVER_PORT'
p3710
asbag61
(g82
g63
NtRp3711
(dp3712
g66
(dp3713
g93
g94
ssg75
g3702
sg68
(lp3714
S':'
asbag61
(g82
g63
NtRp3715
(dp3716
g66
(dp3717
sg75
g3702
sg68
(lp3718
g61
(g62
g63
NtRp3719
(dp3720
g66
(dp3721
g74
I3
ssg75
g3715
sg68
(lp3722
g2331
asbasbasbag61
(g77
g63
NtRp3723
(dp3724
g66
(dp3725
sg75
g3362
sg68
(lp3726
g61
(g82
g63
NtRp3727
(dp3728
g66
(dp3729
g86
g87
ssg75
g3723
sg68
(lp3730
S'SERVER_PROTOCOL'
p3731
asbag61
(g82
g63
NtRp3732
(dp3733
g66
(dp3734
g93
g94
ssg75
g3723
sg68
(lp3735
S':'
asbag61
(g82
g63
NtRp3736
(dp3737
g66
(dp3738
sg75
g3723
sg68
(lp3739
g61
(g62
g63
NtRp3740
(dp3741
g66
(dp3742
g74
I3
ssg75
g3736
sg68
(lp3743
g2353
asbasbasbag61
(g77
g63
NtRp3744
(dp3745
g66
(dp3746
sg75
g3362
sg68
(lp3747
g61
(g82
g63
NtRp3748
(dp3749
g66
(dp3750
g86
g87
ssg75
g3744
sg68
(lp3751
S'SERVER_SOFTWARE'
p3752
asbag61
(g82
g63
NtRp3753
(dp3754
g66
(dp3755
g93
g94
ssg75
g3744
sg68
(lp3756
S':'
asbag61
(g82
g63
NtRp3757
(dp3758
g66
(dp3759
sg75
g3744
sg68
(lp3760
g61
(g62
g63
NtRp3761
(dp3762
g66
(dp3763
g74
I3
ssg75
g3757
sg68
(lp3764
g2375
asbasbasbag61
(g77
g63
NtRp3765
(dp3766
g66
(dp3767
sg75
g3362
sg68
(lp3768
g61
(g82
g63
NtRp3769
(dp3770
g66
(dp3771
g86
g87
ssg75
g3765
sg68
(lp3772
S'wsgi.errors'
p3773
asbag61
(g82
g63
NtRp3774
(dp3775
g66
(dp3776
g93
g94
ssg75
g3765
sg68
(lp3777
S':'
asbag61
(g82
g63
NtRp3778
(dp3779
g66
(dp3780
sg75
g3765
sg68
(lp3781
g61
(g62
g63
NtRp3782
(dp3783
g66
(dp3784
g74
I3
ssg75
g3778
sg68
(lp3785
S"<open file '<stderr>', mode 'w' at 0x3410d0>"
p3786
asbasbasbag61
(g77
g63
NtRp3787
(dp3788
g66
(dp3789
sg75
g3362
sg68
(lp3790
g61
(g82
g63
NtRp3791
(dp3792
g66
(dp3793
g86
g87
ssg75
g3787
sg68
(lp3794
S'wsgi.file_wrapper'
p3795
asbag61
(g82
g63
NtRp3796
(dp3797
g66
(dp3798
g93
g94
ssg75
g3787
sg68
(lp3799
S':'
asbag61
(g82
g63
NtRp3800
(dp3801
g66
(dp3802
sg75
g3787
sg68
(lp3803
g61
(g62
g63
NtRp3804
(dp3805
g66
(dp3806
g74
I3
ssg75
g3800
sg68
(lp3807
S'<class wsgiref.util.FileWrapper at 0x18934b0>'
p3808
asbasbasbag61
(g77
g63
NtRp3809
(dp3810
g66
(dp3811
sg75
g3362
sg68
(lp3812
g61
(g82
g63
NtRp3813
(dp3814
g66
(dp3815
g86
g87
ssg75
g3809
sg68
(lp3816
S'wsgi.input'
p3817
asbag61
(g82
g63
NtRp3818
(dp3819
g66
(dp3820
g93
g94
ssg75
g3809
sg68
(lp3821
S':'
asbag61
(g82
g63
NtRp3822
(dp3823
g66
(dp3824
sg75
g3809
sg68
(lp3825
g61
(g62
g63
NtRp3826
(dp3827
g66
(dp3828
g74
I3
ssg75
g3822
sg68
(lp3829
S'<cStringIO.StringO object at 0x1ad3b040>'
p3830
asbasbasbag61
(g77
g63
NtRp3831
(dp3832
g66
(dp3833
sg75
g3362
sg68
(lp3834
g61
(g82
g63
NtRp3835
(dp3836
g66
(dp3837
g86
g87
ssg75
g3831
sg68
(lp3838
S'wsgi.multiprocess'
p3839
asbag61
(g82
g63
NtRp3840
(dp3841
g66
(dp3842
g93
g94
ssg75
g3831
sg68
(lp3843
S':'
asbag61
(g82
g63
NtRp3844
(dp3845
g66
(dp3846
sg75
g3831
sg68
(lp3847
g61
(g62
g63
NtRp3848
(dp3849
g66
(dp3850
g74
I3
ssg75
g3844
sg68
(lp3851
g104
asbasbasbag61
(g77
g63
NtRp3852
(dp3853
g66
(dp3854
sg75
g3362
sg68
(lp3855
g61
(g82
g63
NtRp3856
(dp3857
g66
(dp3858
g86
g87
ssg75
g3852
sg68
(lp3859
S'wsgi.multithread'
p3860
asbag61
(g82
g63
NtRp3861
(dp3862
g66
(dp3863
g93
g94
ssg75
g3852
sg68
(lp3864
S':'
asbag61
(g82
g63
NtRp3865
(dp3866
g66
(dp3867
sg75
g3852
sg68
(lp3868
g61
(g62
g63
NtRp3869
(dp3870
g66
(dp3871
g74
I3
ssg75
g3865
sg68
(lp3872
g2614
asbasbasbag61
(g77
g63
NtRp3873
(dp3874
g66
(dp3875
sg75
g3362
sg68
(lp3876
g61
(g82
g63
NtRp3877
(dp3878
g66
(dp3879
g86
g87
ssg75
g3873
sg68
(lp3880
S'wsgi.run_once'
p3881
asbag61
(g82
g63
NtRp3882
(dp3883
g66
(dp3884
g93
g94
ssg75
g3873
sg68
(lp3885
S':'
asbag61
(g82
g63
NtRp3886
(dp3887
g66
(dp3888
sg75
g3873
sg68
(lp3889
g61
(g62
g63
NtRp3890
(dp3891
g66
(dp3892
g74
I3
ssg75
g3886
sg68
(lp3893
g104
asbasbasbag61
(g77
g63
NtRp3894
(dp3895
g66
(dp3896
sg75
g3362
sg68
(lp3897
g61
(g82
g63
NtRp3898
(dp3899
g66
(dp3900
g86
g87
ssg75
g3894
sg68
(lp3901
S'wsgi.url_scheme'
p3902
asbag61
(g82
g63
NtRp3903
(dp3904
g66
(dp3905
g93
g94
ssg75
g3894
sg68
(lp3906
S':'
asbag61
(g82
g63
NtRp3907
(dp3908
g66
(dp3909
sg75
g3894
sg68
(lp3910
g61
(g62
g63
NtRp3911
(dp3912
g66
(dp3913
g74
I3
ssg75
g3907
sg68
(lp3914
g2657
asbasbasbag61
(g77
g63
NtRp3915
(dp3916
g66
(dp3917
sg75
g3362
sg68
(lp3918
g61
(g82
g63
NtRp3919
(dp3920
g66
(dp3921
g86
g87
ssg75
g3915
sg68
(lp3922
S'wsgi.version'
p3923
asbag61
(g82
g63
NtRp3924
(dp3925
g66
(dp3926
g93
g94
ssg75
g3915
sg68
(lp3927
S':'
asbag61
(g82
g63
NtRp3928
(dp3929
g66
(dp3930
sg75
g3915
sg68
(lp3931
g61
(g62
g63
NtRp3932
(dp3933
g66
(dp3934
g74
I3
ssg75
g3928
sg68
(lp3935
S'1'
asbasbasbasbasbasbasbasbasbasbasbasbasbsS'frames'
p3936
(lp3937
(dp3938
S'file'
p3939
S'/web2pyTrunk/gluon/restricted.py'
p3940
sS'dump'
p3941
(dp3942
S'environment'
p3943
S"{'A': <class 'gluon.html.A'>, 'Auth': <class 'gluon.tools.Auth'>, 'B': <class 'gluon.html.B'>, 'BEAUTIFY': <class 'gluon.html.BEAUTIFY'>, 'BODY': <class 'gluon.html.BODY'>, 'BR': <class 'gluon.html.BR'>, 'BUTTON': <class 'gluon.html.BUTTON'>, 'CAT': <class 'gluon.html.CAT'>, 'CENTER': <class 'gluon.html.CENTER'>, 'CLEANUP': <class 'gluon.validators.CLEANUP'>, ...}"
p3944
sS'ccode'
p3945
S'<code object <module> at 0x187943c8, file "/web2pyTrunk/applications/GPIBHWS/models/db.py", line 12>'
p3946
ssS'lnum'
p3947
I205
sS'lines'
p3948
(dp3949
I200
S'    try:'
p3950
sI201
S'        if type(code) == types.CodeType:'
p3951
sI202
S'            ccode = code'
p3952
sI203
S'        else:'
p3953
sI204
S'            ccode = compile2(code,layer)'
p3954
sI205
S'        exec ccode in environment'
p3955
sI206
S'    except HTTP:'
p3956
sI207
S'        raise'
p3957
sI208
S'    except RestrictedError:'
p3958
sI209
S'        # do not encapsulate (obfuscate) the original RestrictedError'
p3959
ssS'call'
p3960
S'(code=\'# -*- coding: utf-8 -*-\\n\\n#######################..."lightbox[gpib]"))\\n\\ndb.data.id.label=\\\'Data Plot\\\'\\n\', environment={\'A\': <class \'gluon.html.A\'>, \'Auth\': <class \'gluon.tools.Auth\'>, \'B\': <class \'gluon.html.B\'>, \'BEAUTIFY\': <class \'gluon.html.BEAUTIFY\'>, \'BODY\': <class \'gluon.html.BODY\'>, \'BR\': <class \'gluon.html.BR\'>, \'BUTTON\': <class \'gluon.html.BUTTON\'>, \'CAT\': <class \'gluon.html.CAT\'>, \'CENTER\': <class \'gluon.html.CENTER\'>, \'CLEANUP\': <class \'gluon.validators.CLEANUP\'>, ...}, layer=\'/web2pyTrunk/applications/GPIBHWS/models/db.py\')'
p3961
sS'func'
p3962
S'restricted'
p3963
sa(dp3964
g3939
S'/web2pyTrunk/applications/GPIBHWS/models/db.py'
p3965
sg3941
(dp3966
S'auth.define_tables'
p3967
S'<bound method Auth.define_tables of <gluon.tools.Auth object>>'
p3968
sS'auth'
p3969
S'<gluon.tools.Auth object>'
p3970
ssg3947
I47
sg3948
(dp3971
I42
S'from gluon.tools import Auth, Crud, Service, PluginManager, prettydate'
p3972
sI43
S'auth = Auth(db, hmac_key=Auth.get_or_create_key(), salt=True)'
p3973
sI44
S'crud, service, plugins = Crud(db), Service(), PluginManager()'
p3974
sI45
S''
sI46
S'## create all tables needed by auth if not custom tables'
p3975
sI47
S'auth.define_tables()'
p3976
sI48
S''
sI49
S'## configure email'
p3977
sI50
S'mail=auth.settings.mailer'
p3978
sI51
S"mail.settings.server = 'logging' or 'smtp.gmail.com:587'"
p3979
ssg3960
S'()'
p3980
sg3962
S'<module>'
p3981
sa(dp3982
g3939
S'/web2pyTrunk/gluon/tools.py'
p3983
sg3941
(dp3984
S'fake_migrate'
p3985
g104
ssg3947
I1520
sg3948
(dp3986
I1515
S"                    Field('renew', 'boolean', default=False),"
p3987
sI1516
S'                    *settings.extra_fields.get(settings.table_cas_name,[]),'
p3988
sI1517
S'                    **dict('
p3989
sI1518
S'                        migrate=self.__get_migrate('
p3990
sI1519
S'                            settings.table_cas_name, migrate),'
p3991
sI1520
S'                        fake_migrate=fake_migrate))'
p3992
sI1521
S"                table.user_id.requires = IS_IN_DB(db, '%s.id' % \\"
p3993
sI1522
S'                    settings.table_user_name,'
p3994
sI1523
S"                    '%(first_name)s %(last_name)s (%(id)s)')"
p3995
sI1524
S'            settings.table_cas = db[settings.table_cas_name]'
p3996
ssg3960
S'(self=<gluon.tools.Auth object>, username=False, signature=None, migrate=True, fake_migrate=False)'
p3997
sg3962
S'define_tables'
p3998
sa(dp3999
g3939
S'/web2pyTrunk/gluon/dal.py'
p4000
sg3941
(dp4001
S'polymodel'
p4002
S'None'
p4003
ssg3947
I6852
sg3948
(dp4004
I6848
S'            try:'
p4005
sI6849
S'                sql_locker.acquire()'
p4006
sI6850
S'                self._adapter.create_table(t,migrate=migrate,'
p4007
sI6851
S'                                           fake_migrate=fake_migrate,'
p4008
sI6852
S'                                           polymodel=polymodel)'
p4009
sI6853
S'            finally:'
p4010
sI6854
S'                sql_locker.release()'
p4011
sI6855
S'        else:'
p4012
sI6856
S'            t._dbt = None'
p4013
sI6847
S"        if migrate or self._adapter.dbengine=='google:datastore':"
p4014
ssg3960
S"(self=<DAL {'auth_event': <Table {'origin': <gluon.dal...8df790>, '_after_insert': []}>, '_migrated': []}>, tablename='auth_cas', *fields=(<gluon.dal.Field object>, <gluon.dal.Field object>, <gluon.dal.Field object>, <gluon.dal.Field object>, <gluon.dal.Field object>), **args={'fake_migrate': False, 'migrate': True})"
p4015
sg3962
S'define_table'
p4016
sa(dp4017
g3939
S'/web2pyTrunk/gluon/dal.py'
p4018
sg3941
(dp4019
S'query'
p4020
S"'CREATE TABLE auth_cas(\\n    id INTEGER PRIMARY KE...(512),\\n    ticket CHAR(512),\\n    renew CHAR(1)\\n);'"
p4021
sS'self'
p4022
S'<gluon.dal.SQLiteAdapter object>'
p4023
sS'table'
p4024
S"<Table {'_db': <DAL {'auth_event': <Table {'orig...ield object at 0x19ece2b0>, '_after_insert': []}>"
p4025
sS'self.create_sequence_and_triggers'
p4026
S'<bound method SQLiteAdapter.create_sequence_and_triggers of <gluon.dal.SQLiteAdapter object>>'
p4027
ssg3947
I804
sg3948
(dp4028
I800
S"                logfile.write('timestamp: %s\\n'"
p4029
sI801
S'                               % datetime.datetime.today().isoformat())'
p4030
sI802
S"                logfile.write(query + '\\n')"
p4031
sI803
S'            if not fake_migrate:'
p4032
sI804
S'                self.create_sequence_and_triggers(query,table)'
p4033
sI805
S'                table._db.commit()'
p4034
sI806
S'                # Postgres geom fields are added now, after the table has been created'
p4035
sI807
S'                for query in postcreation_fields:'
p4036
sI808
S'                    self.execute(query)'
p4037
sI799
S'            if table._dbt:'
p4038
ssg3960
S"(self=<gluon.dal.SQLiteAdapter object>, table=<Table {'_db': <DAL {'auth_event': <Table {'orig...ield object at 0x19ece2b0>, '_after_insert': []}>, migrate=True, fake_migrate=False, polymodel=None)"
p4039
sg3962
S'create_table'
p4040
sa(dp4041
g3939
S'/web2pyTrunk/gluon/dal.py'
p4042
sg3941
(dp4043
S'query'
p4044
S"'CREATE TABLE auth_cas(\\n    id INTEGER PRIMARY KE...(512),\\n    ticket CHAR(512),\\n    renew CHAR(1)\\n);'"
p4045
sS'self'
p4046
S'<gluon.dal.SQLiteAdapter object>'
p4047
sS'self.execute'
p4048
S'<bound method SQLiteAdapter.execute of <gluon.dal.SQLiteAdapter object>>'
p4049
ssg3947
I1487
sg3948
(dp4050
I1482
S''
sI1483
S'    def constraint_name(self, table, fieldname):'
p4051
sI1484
S"        return '%s_%s__constraint' % (table,fieldname)"
p4052
sI1485
S''
sI1486
S'    def create_sequence_and_triggers(self, query, table, **args):'
p4053
sI1487
S'        self.execute(query)'
p4054
sI1488
S''
sI1489
S'    def log_execute(self, *a, **b):'
p4055
sI1490
S'        command = a[0]'
p4056
sI1491
S'        if self.db._debug:'
p4057
ssg3960
S"(self=<gluon.dal.SQLiteAdapter object>, query='CREATE TABLE auth_cas(\\n    id INTEGER PRIMARY KE...(512),\\n    ticket CHAR(512),\\n    renew CHAR(1)\\n);', table=<Table {'_db': <DAL {'auth_event': <Table {'orig...ield object at 0x19ece2b0>, '_after_insert': []}>, **args={})"
p4058
sg3962
S'create_sequence_and_triggers'
p4059
sa(dp4060
g3939
S'/web2pyTrunk/gluon/dal.py'
p4061
sg3941
(dp4062
S'a'
S"('CREATE TABLE auth_cas(\\n    id INTEGER PRIMARY KE...(512),\\n    ticket CHAR(512),\\n    renew CHAR(1)\\n);',)"
p4063
sS'self'
p4064
S'<gluon.dal.SQLiteAdapter object>'
p4065
sS'b'
g21
sS'self.log_execute'
p4066
S'<bound method SQLiteAdapter.log_execute of <gluon.dal.SQLiteAdapter object>>'
p4067
ssg3947
I1501
sg3948
(dp4068
I1504
S'        if isinstance(obj, CALLABLETYPES):'
p4069
sI1505
S'            obj = obj()'
p4070
sI1496
S'        self.db._timings.append((command,time.time()-t0))'
p4071
sI1497
S'        del self.db._timings[:-TIMINGSSIZE]'
p4072
sI1498
S'        return ret'
p4073
sI1499
S''
sI1500
S'    def execute(self, *a, **b):'
p4074
sI1501
S'        return self.log_execute(*a, **b)'
p4075
sI1502
S''
sI1503
S'    def represent(self, obj, fieldtype):'
p4076
ssg3960
S"(self=<gluon.dal.SQLiteAdapter object>, *a=('CREATE TABLE auth_cas(\\n    id INTEGER PRIMARY KE...(512),\\n    ticket CHAR(512),\\n    renew CHAR(1)\\n);',), **b={})"
p4077
sg3962
S'execute'
p4078
sa(dp4079
g3939
S'/web2pyTrunk/gluon/dal.py'
p4080
sg3941
(dp4081
S'a'
S"('CREATE TABLE auth_cas(\\n    id INTEGER PRIMARY KE...(512),\\n    ticket CHAR(512),\\n    renew CHAR(1)\\n);',)"
p4082
sS'b'
g21
sS'self'
p4083
S'<gluon.dal.SQLiteAdapter object>'
p4084
sS'ret'
p4085
S'undefined'
p4086
sS'self.cursor'
p4087
S'<sqlite3.Cursor object>'
p4088
sS'self.cursor.execute'
p4089
S'<built-in method execute of sqlite3.Cursor object>'
p4090
ssg3947
I1495
sg3948
(dp4091
I1490
S'        command = a[0]'
p4092
sI1491
S'        if self.db._debug:'
p4093
sI1492
S"            logger.debug('SQL: %s' % command)"
p4094
sI1493
S'        self.db._lastsql = command'
p4095
sI1494
S'        t0 = time.time()'
p4096
sI1495
S'        ret = self.cursor.execute(*a, **b)'
p4097
sI1496
S'        self.db._timings.append((command,time.time()-t0))'
p4098
sI1497
S'        del self.db._timings[:-TIMINGSSIZE]'
p4099
sI1498
S'        return ret'
p4100
sI1499
S''
ssg3960
S"(self=<gluon.dal.SQLiteAdapter object>, *a=('CREATE TABLE auth_cas(\\n    id INTEGER PRIMARY KE...(512),\\n    ticket CHAR(512),\\n    renew CHAR(1)\\n);',), **b={})"
p4101
sg3962
S'log_execute'
p4102
sasS'pyver'
p4103
S'Python 2.6.6: /Library/Frameworks/Python.framework/Versions/2.6/Resources/Python.app/Contents/MacOS/Python'
p4104
sS'session'
p4105
g61
(g62
g63
NtRp4106
(dp4107
g66
(dp4108
sg68
(lp4109
g61
(g70
g63
NtRp4110
(dp4111
g66
(dp4112
g74
I5
ssg75
Nsg68
(lp4113
g61
(g77
g63
NtRp4114
(dp4115
g66
(dp4116
sg75
g4110
sg68
(lp4117
g61
(g82
g63
NtRp4118
(dp4119
g66
(dp4120
g86
g87
ssg75
g4114
sg68
(lp4121
S'last_query'
p4122
asbag61
(g82
g63
NtRp4123
(dp4124
g66
(dp4125
g93
g94
ssg75
g4114
sg68
(lp4126
S':'
asbag61
(g82
g63
NtRp4127
(dp4128
g66
(dp4129
sg75
g4114
sg68
(lp4130
g61
(g62
g63
NtRp4131
(dp4132
g66
(dp4133
g74
I5
ssg75
g4127
sg68
(lp4134
S'db.gpib.id>0'
p4135
asbasbasbag61
(g77
g63
NtRp4136
(dp4137
g66
(dp4138
sg75
g4110
sg68
(lp4139
g61
(g82
g63
NtRp4140
(dp4141
g66
(dp4142
g86
g87
ssg75
g4136
sg68
(lp4143
S'run_type'
p4144
asbag61
(g82
g63
NtRp4145
(dp4146
g66
(dp4147
g93
g94
ssg75
g4136
sg68
(lp4148
S':'
asbag61
(g82
g63
NtRp4149
(dp4150
g66
(dp4151
sg75
g4136
sg68
(lp4152
g61
(g62
g63
NtRp4153
(dp4154
g66
(dp4155
g74
I5
ssg75
g4149
sg68
(lp4156
S'Sweep'
p4157
asbasbasbasbasbsS'etype'
p4158
S"<class 'sqlite3.OperationalError'>"
p4159
sS'date'
p4160
S'Mon Jul 30 15:58:31 2012'
p4161
sS'response'
p4162
g61
(g62
g63
NtRp4163
(dp4164
g66
(dp4165
sg68
(lp4166
g61
(g70
g63
NtRp4167
(dp4168
g66
(dp4169
g74
I5
ssg75
Nsg68
(lp4170
g61
(g77
g63
NtRp4171
(dp4172
g66
(dp4173
sg75
g4167
sg68
(lp4174
g61
(g82
g63
NtRp4175
(dp4176
g66
(dp4177
g86
g87
ssg75
g4171
sg68
(lp4178
g159
asbag61
(g82
g63
NtRp4179
(dp4180
g66
(dp4181
g93
g94
ssg75
g4171
sg68
(lp4182
S':'
asbag61
(g82
g63
NtRp4183
(dp4184
g66
(dp4185
sg75
g4171
sg68
(lp4186
g61
(g62
g63
NtRp4187
(dp4188
g66
(dp4189
g74
I5
ssg75
g4183
sg68
(lp4190
S'<cStringIO.StringO object at 0x1adb20e0>'
p4191
asbasbasbag61
(g77
g63
NtRp4192
(dp4193
g66
(dp4194
sg75
g4167
sg68
(lp4195
g61
(g82
g63
NtRp4196
(dp4197
g66
(dp4198
g86
g87
ssg75
g4192
sg68
(lp4199
g225
asbag61
(g82
g63
NtRp4200
(dp4201
g66
(dp4202
g93
g94
ssg75
g4192
sg68
(lp4203
S':'
asbag61
(g82
g63
NtRp4204
(dp4205
g66
(dp4206
sg75
g4192
sg68
(lp4207
g61
(g62
g63
NtRp4208
(dp4209
g66
(dp4210
g74
I5
ssg75
g4204
sg68
(lp4211
g61
(g70
g63
NtRp4212
(dp4213
g66
(dp4214
g74
I4
ssg75
Nsg68
(lp4215
g61
(g77
g63
NtRp4216
(dp4217
g66
(dp4218
sg75
g4212
sg68
(lp4219
g61
(g82
g63
NtRp4220
(dp4221
g66
(dp4222
g86
g87
ssg75
g4216
sg68
(lp4223
S'session_id_gpibhws'
p4224
asbag61
(g82
g63
NtRp4225
(dp4226
g66
(dp4227
g93
g94
ssg75
g4216
sg68
(lp4228
S':'
asbag61
(g82
g63
NtRp4229
(dp4230
g66
(dp4231
sg75
g4216
sg68
(lp4232
g61
(g62
g63
NtRp4233
(dp4234
g66
(dp4235
g74
I4
ssg75
g4229
sg68
(lp4236
g1015
ag61
(g70
g63
NtRp4237
(dp4238
g66
(dp4239
g74
I3
ssg75
Nsg68
(lp4240
g61
(g77
g63
NtRp4241
(dp4242
g66
(dp4243
sg75
g4237
sg68
(lp4244
g61
(g82
g63
NtRp4245
(dp4246
g66
(dp4247
g86
g87
ssg75
g4241
sg68
(lp4248
g276
asbag61
(g82
g63
NtRp4249
(dp4250
g66
(dp4251
g93
g94
ssg75
g4241
sg68
(lp4252
S':'
asbag61
(g82
g63
NtRp4253
(dp4254
g66
(dp4255
sg75
g4241
sg68
(lp4256
g61
(g62
g63
NtRp4257
(dp4258
g66
(dp4259
g74
I3
ssg75
g4253
sg68
(lp4260
S''
asbasbasbag61
(g77
g63
NtRp4261
(dp4262
g66
(dp4263
sg75
g4237
sg68
(lp4264
g61
(g82
g63
NtRp4265
(dp4266
g66
(dp4267
g86
g87
ssg75
g4261
sg68
(lp4268
g297
asbag61
(g82
g63
NtRp4269
(dp4270
g66
(dp4271
g93
g94
ssg75
g4261
sg68
(lp4272
S':'
asbag61
(g82
g63
NtRp4273
(dp4274
g66
(dp4275
sg75
g4261
sg68
(lp4276
g61
(g62
g63
NtRp4277
(dp4278
g66
(dp4279
g74
I3
ssg75
g4273
sg68
(lp4280
S''
asbasbasbag61
(g77
g63
NtRp4281
(dp4282
g66
(dp4283
sg75
g4237
sg68
(lp4284
g61
(g82
g63
NtRp4285
(dp4286
g66
(dp4287
g86
g87
ssg75
g4281
sg68
(lp4288
g318
asbag61
(g82
g63
NtRp4289
(dp4290
g66
(dp4291
g93
g94
ssg75
g4281
sg68
(lp4292
S':'
asbag61
(g82
g63
NtRp4293
(dp4294
g66
(dp4295
sg75
g4281
sg68
(lp4296
g61
(g62
g63
NtRp4297
(dp4298
g66
(dp4299
g74
I3
ssg75
g4293
sg68
(lp4300
S''
asbasbasbag61
(g77
g63
NtRp4301
(dp4302
g66
(dp4303
sg75
g4237
sg68
(lp4304
g61
(g82
g63
NtRp4305
(dp4306
g66
(dp4307
g86
g87
ssg75
g4301
sg68
(lp4308
g339
asbag61
(g82
g63
NtRp4309
(dp4310
g66
(dp4311
g93
g94
ssg75
g4301
sg68
(lp4312
S':'
asbag61
(g82
g63
NtRp4313
(dp4314
g66
(dp4315
sg75
g4301
sg68
(lp4316
g61
(g62
g63
NtRp4317
(dp4318
g66
(dp4319
g74
I3
ssg75
g4313
sg68
(lp4320
S''
asbasbasbag61
(g77
g63
NtRp4321
(dp4322
g66
(dp4323
sg75
g4237
sg68
(lp4324
g61
(g82
g63
NtRp4325
(dp4326
g66
(dp4327
g86
g87
ssg75
g4321
sg68
(lp4328
g360
asbag61
(g82
g63
NtRp4329
(dp4330
g66
(dp4331
g93
g94
ssg75
g4321
sg68
(lp4332
S':'
asbag61
(g82
g63
NtRp4333
(dp4334
g66
(dp4335
sg75
g4321
sg68
(lp4336
g61
(g62
g63
NtRp4337
(dp4338
g66
(dp4339
g74
I3
ssg75
g4333
sg68
(lp4340
S''
asbasbasbag61
(g77
g63
NtRp4341
(dp4342
g66
(dp4343
sg75
g4237
sg68
(lp4344
g61
(g82
g63
NtRp4345
(dp4346
g66
(dp4347
g86
g87
ssg75
g4341
sg68
(lp4348
g381
asbag61
(g82
g63
NtRp4349
(dp4350
g66
(dp4351
g93
g94
ssg75
g4341
sg68
(lp4352
S':'
asbag61
(g82
g63
NtRp4353
(dp4354
g66
(dp4355
sg75
g4341
sg68
(lp4356
g61
(g62
g63
NtRp4357
(dp4358
g66
(dp4359
g74
I3
ssg75
g4353
sg68
(lp4360
S'/'
asbasbasbag61
(g77
g63
NtRp4361
(dp4362
g66
(dp4363
sg75
g4237
sg68
(lp4364
g61
(g82
g63
NtRp4365
(dp4366
g66
(dp4367
g86
g87
ssg75
g4361
sg68
(lp4368
g402
asbag61
(g82
g63
NtRp4369
(dp4370
g66
(dp4371
g93
g94
ssg75
g4361
sg68
(lp4372
S':'
asbag61
(g82
g63
NtRp4373
(dp4374
g66
(dp4375
sg75
g4361
sg68
(lp4376
g61
(g62
g63
NtRp4377
(dp4378
g66
(dp4379
g74
I3
ssg75
g4373
sg68
(lp4380
S''
asbasbasbag61
(g77
g63
NtRp4381
(dp4382
g66
(dp4383
sg75
g4237
sg68
(lp4384
g61
(g82
g63
NtRp4385
(dp4386
g66
(dp4387
g86
g87
ssg75
g4381
sg68
(lp4388
g423
asbag61
(g82
g63
NtRp4389
(dp4390
g66
(dp4391
g93
g94
ssg75
g4381
sg68
(lp4392
S':'
asbag61
(g82
g63
NtRp4393
(dp4394
g66
(dp4395
sg75
g4381
sg68
(lp4396
g61
(g62
g63
NtRp4397
(dp4398
g66
(dp4399
g74
I3
ssg75
g4393
sg68
(lp4400
S''
asbasbasbasbasbasbasbasbasbasbasbag61
(g77
g63
NtRp4401
(dp4402
g66
(dp4403
sg75
g4167
sg68
(lp4404
g61
(g82
g63
NtRp4405
(dp4406
g66
(dp4407
g86
g87
ssg75
g4401
sg68
(lp4408
S'delimiters'
p4409
asbag61
(g82
g63
NtRp4410
(dp4411
g66
(dp4412
g93
g94
ssg75
g4401
sg68
(lp4413
S':'
asbag61
(g82
g63
NtRp4414
(dp4415
g66
(dp4416
sg75
g4401
sg68
(lp4417
g61
(g62
g63
NtRp4418
(dp4419
g66
(dp4420
g74
I5
ssg75
g4414
sg68
(lp4421
g61
(g70
g63
NtRp4422
(dp4423
g66
(dp4424
g74
I4
ssg75
Nsg68
(lp4425
g61
(g77
g63
NtRp4426
(dp4427
g66
(dp4428
sg75
g4422
sg68
(lp4429
g61
(g82
g63
NtRp4430
(dp4431
g66
(dp4432
sg75
g4426
sg68
(lp4433
g61
(g62
g63
NtRp4434
(dp4435
g66
(dp4436
g74
I4
ssg75
g4430
sg68
(lp4437
S'{{'
p4438
asbasbasbag61
(g77
g63
NtRp4439
(dp4440
g66
(dp4441
sg75
g4422
sg68
(lp4442
g61
(g82
g63
NtRp4443
(dp4444
g66
(dp4445
sg75
g4439
sg68
(lp4446
g61
(g62
g63
NtRp4447
(dp4448
g66
(dp4449
g74
I4
ssg75
g4443
sg68
(lp4450
S'}}'
p4451
asbasbasbasbasbasbasbag61
(g77
g63
NtRp4452
(dp4453
g66
(dp4454
sg75
g4167
sg68
(lp4455
g61
(g82
g63
NtRp4456
(dp4457
g66
(dp4458
g86
g87
ssg75
g4452
sg68
(lp4459
S'files'
p4460
asbag61
(g82
g63
NtRp4461
(dp4462
g66
(dp4463
g93
g94
ssg75
g4452
sg68
(lp4464
S':'
asbag61
(g82
g63
NtRp4465
(dp4466
g66
(dp4467
sg75
g4452
sg68
(lp4468
g61
(g62
g63
NtRp4469
(dp4470
g66
(dp4471
g74
I5
ssg75
g4465
sg68
(lp4472
g61
(g70
g63
NtRp4473
(dp4474
g66
(dp4475
g74
I4
ssg75
Nsg68
(lp4476
sbasbasbasbag61
(g77
g63
NtRp4477
(dp4478
g66
(dp4479
sg75
g4167
sg68
(lp4480
g61
(g82
g63
NtRp4481
(dp4482
g66
(dp4483
g86
g87
ssg75
g4477
sg68
(lp4484
S'flash'
p4485
asbag61
(g82
g63
NtRp4486
(dp4487
g66
(dp4488
g93
g94
ssg75
g4477
sg68
(lp4489
S':'
asbag61
(g82
g63
NtRp4490
(dp4491
g66
(dp4492
sg75
g4477
sg68
(lp4493
g61
(g62
g63
NtRp4494
(dp4495
g66
(dp4496
g74
I5
ssg75
g4490
sg68
(lp4497
S''
asbasbasbag61
(g77
g63
NtRp4498
(dp4499
g66
(dp4500
sg75
g4167
sg68
(lp4501
g61
(g82
g63
NtRp4502
(dp4503
g66
(dp4504
g86
g87
ssg75
g4498
sg68
(lp4505
S'generic_patterns'
p4506
asbag61
(g82
g63
NtRp4507
(dp4508
g66
(dp4509
g93
g94
ssg75
g4498
sg68
(lp4510
S':'
asbag61
(g82
g63
NtRp4511
(dp4512
g66
(dp4513
sg75
g4498
sg68
(lp4514
g61
(g62
g63
NtRp4515
(dp4516
g66
(dp4517
g74
I5
ssg75
g4511
sg68
(lp4518
g61
(g70
g63
NtRp4519
(dp4520
g66
(dp4521
g74
I4
ssg75
Nsg68
(lp4522
g61
(g77
g63
NtRp4523
(dp4524
g66
(dp4525
sg75
g4519
sg68
(lp4526
g61
(g82
g63
NtRp4527
(dp4528
g66
(dp4529
sg75
g4523
sg68
(lp4530
g61
(g62
g63
NtRp4531
(dp4532
g66
(dp4533
g74
I4
ssg75
g4527
sg68
(lp4534
S'*'
asbasbasbasbasbasbasbag61
(g77
g63
NtRp4535
(dp4536
g66
(dp4537
sg75
g4167
sg68
(lp4538
g61
(g82
g63
NtRp4539
(dp4540
g66
(dp4541
g86
g87
ssg75
g4535
sg68
(lp4542
S'headers'
p4543
asbag61
(g82
g63
NtRp4544
(dp4545
g66
(dp4546
g93
g94
ssg75
g4535
sg68
(lp4547
S':'
asbag61
(g82
g63
NtRp4548
(dp4549
g66
(dp4550
sg75
g4535
sg68
(lp4551
g61
(g62
g63
NtRp4552
(dp4553
g66
(dp4554
g74
I5
ssg75
g4548
sg68
(lp4555
g61
(g70
g63
NtRp4556
(dp4557
g66
(dp4558
g74
I4
ssg75
Nsg68
(lp4559
g61
(g77
g63
NtRp4560
(dp4561
g66
(dp4562
sg75
g4556
sg68
(lp4563
g61
(g82
g63
NtRp4564
(dp4565
g66
(dp4566
g86
g87
ssg75
g4560
sg68
(lp4567
S'Cache-Control'
p4568
asbag61
(g82
g63
NtRp4569
(dp4570
g66
(dp4571
g93
g94
ssg75
g4560
sg68
(lp4572
S':'
asbag61
(g82
g63
NtRp4573
(dp4574
g66
(dp4575
sg75
g4560
sg68
(lp4576
g61
(g62
g63
NtRp4577
(dp4578
g66
(dp4579
g74
I4
ssg75
g4573
sg68
(lp4580
S'no-store, no-cache, must-revalidate, post-check=0, pre-check=0'
p4581
asbasbasbag61
(g77
g63
NtRp4582
(dp4583
g66
(dp4584
sg75
g4556
sg68
(lp4585
g61
(g82
g63
NtRp4586
(dp4587
g66
(dp4588
g86
g87
ssg75
g4582
sg68
(lp4589
S'Content-Type'
p4590
asbag61
(g82
g63
NtRp4591
(dp4592
g66
(dp4593
g93
g94
ssg75
g4582
sg68
(lp4594
S':'
asbag61
(g82
g63
NtRp4595
(dp4596
g66
(dp4597
sg75
g4582
sg68
(lp4598
g61
(g62
g63
NtRp4599
(dp4600
g66
(dp4601
g74
I4
ssg75
g4595
sg68
(lp4602
S'text/html; charset=utf-8'
p4603
asbasbasbag61
(g77
g63
NtRp4604
(dp4605
g66
(dp4606
sg75
g4556
sg68
(lp4607
g61
(g82
g63
NtRp4608
(dp4609
g66
(dp4610
g86
g87
ssg75
g4604
sg68
(lp4611
S'Expires'
p4612
asbag61
(g82
g63
NtRp4613
(dp4614
g66
(dp4615
g93
g94
ssg75
g4604
sg68
(lp4616
S':'
asbag61
(g82
g63
NtRp4617
(dp4618
g66
(dp4619
sg75
g4604
sg68
(lp4620
g61
(g62
g63
NtRp4621
(dp4622
g66
(dp4623
g74
I4
ssg75
g4617
sg68
(lp4624
S'Mon, 30 Jul 2012 19:58:31 GMT'
p4625
asbasbasbag61
(g77
g63
NtRp4626
(dp4627
g66
(dp4628
sg75
g4556
sg68
(lp4629
g61
(g82
g63
NtRp4630
(dp4631
g66
(dp4632
g86
g87
ssg75
g4626
sg68
(lp4633
S'Pragma'
p4634
asbag61
(g82
g63
NtRp4635
(dp4636
g66
(dp4637
g93
g94
ssg75
g4626
sg68
(lp4638
S':'
asbag61
(g82
g63
NtRp4639
(dp4640
g66
(dp4641
sg75
g4626
sg68
(lp4642
g61
(g62
g63
NtRp4643
(dp4644
g66
(dp4645
g74
I4
ssg75
g4639
sg68
(lp4646
S'no-cache'
p4647
asbasbasbag61
(g77
g63
NtRp4648
(dp4649
g66
(dp4650
sg75
g4556
sg68
(lp4651
g61
(g82
g63
NtRp4652
(dp4653
g66
(dp4654
g86
g87
ssg75
g4648
sg68
(lp4655
S'X-Powered-By'
p4656
asbag61
(g82
g63
NtRp4657
(dp4658
g66
(dp4659
g93
g94
ssg75
g4648
sg68
(lp4660
S':'
asbag61
(g82
g63
NtRp4661
(dp4662
g66
(dp4663
sg75
g4648
sg68
(lp4664
g61
(g62
g63
NtRp4665
(dp4666
g66
(dp4667
g74
I4
ssg75
g4661
sg68
(lp4668
S'web2py'
p4669
asbasbasbasbasbasbasbag61
(g77
g63
NtRp4670
(dp4671
g66
(dp4672
sg75
g4167
sg68
(lp4673
g61
(g82
g63
NtRp4674
(dp4675
g66
(dp4676
g86
g87
ssg75
g4670
sg68
(lp4677
S'menu'
p4678
asbag61
(g82
g63
NtRp4679
(dp4680
g66
(dp4681
g93
g94
ssg75
g4670
sg68
(lp4682
S':'
asbag61
(g82
g63
NtRp4683
(dp4684
g66
(dp4685
sg75
g4670
sg68
(lp4686
g61
(g62
g63
NtRp4687
(dp4688
g66
(dp4689
g74
I5
ssg75
g4683
sg68
(lp4690
g61
(g70
g63
NtRp4691
(dp4692
g66
(dp4693
g74
I4
ssg75
Nsg68
(lp4694
sbasbasbasbag61
(g77
g63
NtRp4695
(dp4696
g66
(dp4697
sg75
g4167
sg68
(lp4698
g61
(g82
g63
NtRp4699
(dp4700
g66
(dp4701
g86
g87
ssg75
g4695
sg68
(lp4702
S'meta'
p4703
asbag61
(g82
g63
NtRp4704
(dp4705
g66
(dp4706
g93
g94
ssg75
g4695
sg68
(lp4707
S':'
asbag61
(g82
g63
NtRp4708
(dp4709
g66
(dp4710
sg75
g4695
sg68
(lp4711
g61
(g62
g63
NtRp4712
(dp4713
g66
(dp4714
g74
I5
ssg75
g4708
sg68
(lp4715
g61
(g70
g63
NtRp4716
(dp4717
g66
(dp4718
g74
I4
ssg75
Nsg68
(lp4719
sbasbasbasbag61
(g77
g63
NtRp4720
(dp4721
g66
(dp4722
sg75
g4167
sg68
(lp4723
g61
(g82
g63
NtRp4724
(dp4725
g66
(dp4726
g86
g87
ssg75
g4720
sg68
(lp4727
S'postprocessing'
p4728
asbag61
(g82
g63
NtRp4729
(dp4730
g66
(dp4731
g93
g94
ssg75
g4720
sg68
(lp4732
S':'
asbag61
(g82
g63
NtRp4733
(dp4734
g66
(dp4735
sg75
g4720
sg68
(lp4736
g61
(g62
g63
NtRp4737
(dp4738
g66
(dp4739
g74
I5
ssg75
g4733
sg68
(lp4740
g61
(g70
g63
NtRp4741
(dp4742
g66
(dp4743
g74
I4
ssg75
Nsg68
(lp4744
sbasbasbasbag61
(g77
g63
NtRp4745
(dp4746
g66
(dp4747
sg75
g4167
sg68
(lp4748
g61
(g82
g63
NtRp4749
(dp4750
g66
(dp4751
g86
g87
ssg75
g4745
sg68
(lp4752
S'session_file'
p4753
asbag61
(g82
g63
NtRp4754
(dp4755
g66
(dp4756
g93
g94
ssg75
g4745
sg68
(lp4757
S':'
asbag61
(g82
g63
NtRp4758
(dp4759
g66
(dp4760
sg75
g4745
sg68
(lp4761
g61
(g62
g63
NtRp4762
(dp4763
g66
(dp4764
g74
I5
ssg75
g4758
sg68
(lp4765
S"<open file '/web2pyTrunk/applications/GPIBHWS/sessions/127.0.0.1-6f11aa51-d759-4ec6-a0c2-b8d4140bb744', mode 'rb+' at 0x18784700>"
p4766
asbasbasbag61
(g77
g63
NtRp4767
(dp4768
g66
(dp4769
sg75
g4167
sg68
(lp4770
g61
(g82
g63
NtRp4771
(dp4772
g66
(dp4773
g86
g87
ssg75
g4767
sg68
(lp4774
S'session_filename'
p4775
asbag61
(g82
g63
NtRp4776
(dp4777
g66
(dp4778
g93
g94
ssg75
g4767
sg68
(lp4779
S':'
asbag61
(g82
g63
NtRp4780
(dp4781
g66
(dp4782
sg75
g4767
sg68
(lp4783
g61
(g62
g63
NtRp4784
(dp4785
g66
(dp4786
g74
I5
ssg75
g4780
sg68
(lp4787
S'/web2pyTrunk/applications/GPIBHWS/sessions/127.0.0.1-6f11aa51-d759-4ec6-a0c2-b8d4140bb744'
p4788
asbasbasbag61
(g77
g63
NtRp4789
(dp4790
g66
(dp4791
sg75
g4167
sg68
(lp4792
g61
(g82
g63
NtRp4793
(dp4794
g66
(dp4795
g86
g87
ssg75
g4789
sg68
(lp4796
S'session_id'
p4797
asbag61
(g82
g63
NtRp4798
(dp4799
g66
(dp4800
g93
g94
ssg75
g4789
sg68
(lp4801
S':'
asbag61
(g82
g63
NtRp4802
(dp4803
g66
(dp4804
sg75
g4789
sg68
(lp4805
g61
(g62
g63
NtRp4806
(dp4807
g66
(dp4808
g74
I5
ssg75
g4802
sg68
(lp4809
g1015
asbasbasbag61
(g77
g63
NtRp4810
(dp4811
g66
(dp4812
sg75
g4167
sg68
(lp4813
g61
(g82
g63
NtRp4814
(dp4815
g66
(dp4816
g86
g87
ssg75
g4810
sg68
(lp4817
S'session_id_name'
p4818
asbag61
(g82
g63
NtRp4819
(dp4820
g66
(dp4821
g93
g94
ssg75
g4810
sg68
(lp4822
S':'
asbag61
(g82
g63
NtRp4823
(dp4824
g66
(dp4825
sg75
g4810
sg68
(lp4826
g61
(g62
g63
NtRp4827
(dp4828
g66
(dp4829
g74
I5
ssg75
g4823
sg68
(lp4830
g4224
asbasbasbag61
(g77
g63
NtRp4831
(dp4832
g66
(dp4833
sg75
g4167
sg68
(lp4834
g61
(g82
g63
NtRp4835
(dp4836
g66
(dp4837
g86
g87
ssg75
g4831
sg68
(lp4838
S'session_locked'
p4839
asbag61
(g82
g63
NtRp4840
(dp4841
g66
(dp4842
g93
g94
ssg75
g4831
sg68
(lp4843
S':'
asbag61
(g82
g63
NtRp4844
(dp4845
g66
(dp4846
sg75
g4831
sg68
(lp4847
g61
(g62
g63
NtRp4848
(dp4849
g66
(dp4850
g74
I5
ssg75
g4844
sg68
(lp4851
g2614
asbasbasbag61
(g77
g63
NtRp4852
(dp4853
g66
(dp4854
sg75
g4167
sg68
(lp4855
g61
(g82
g63
NtRp4856
(dp4857
g66
(dp4858
g86
g87
ssg75
g4852
sg68
(lp4859
S'session_new'
p4860
asbag61
(g82
g63
NtRp4861
(dp4862
g66
(dp4863
g93
g94
ssg75
g4852
sg68
(lp4864
S':'
asbag61
(g82
g63
NtRp4865
(dp4866
g66
(dp4867
sg75
g4852
sg68
(lp4868
g61
(g62
g63
NtRp4869
(dp4870
g66
(dp4871
g74
I5
ssg75
g4865
sg68
(lp4872
g104
asbasbasbag61
(g77
g63
NtRp4873
(dp4874
g66
(dp4875
sg75
g4167
sg68
(lp4876
g61
(g82
g63
NtRp4877
(dp4878
g66
(dp4879
g86
g87
ssg75
g4873
sg68
(lp4880
S'status'
p4881
asbag61
(g82
g63
NtRp4882
(dp4883
g66
(dp4884
g93
g94
ssg75
g4873
sg68
(lp4885
S':'
asbag61
(g82
g63
NtRp4886
(dp4887
g66
(dp4888
sg75
g4873
sg68
(lp4889
g61
(g62
g63
NtRp4890
(dp4891
g66
(dp4892
g74
I5
ssg75
g4886
sg68
(lp4893
S'200'
p4894
asbasbasbag61
(g77
g63
NtRp4895
(dp4896
g66
(dp4897
sg75
g4167
sg68
(lp4898
g61
(g82
g63
NtRp4899
(dp4900
g66
(dp4901
g86
g87
ssg75
g4895
sg68
(lp4902
g3277
asbag61
(g82
g63
NtRp4903
(dp4904
g66
(dp4905
g93
g94
ssg75
g4895
sg68
(lp4906
S':'
asbag61
(g82
g63
NtRp4907
(dp4908
g66
(dp4909
sg75
g4895
sg68
(lp4910
g61
(g62
g63
NtRp4911
(dp4912
g66
(dp4913
g74
I5
ssg75
g4907
sg68
(lp4914
g3290
asbasbasbag61
(g77
g63
NtRp4915
(dp4916
g66
(dp4917
sg75
g4167
sg68
(lp4918
g61
(g82
g63
NtRp4919
(dp4920
g66
(dp4921
g86
g87
ssg75
g4915
sg68
(lp4922
S'view'
p4923
asbag61
(g82
g63
NtRp4924
(dp4925
g66
(dp4926
g93
g94
ssg75
g4915
sg68
(lp4927
S':'
asbag61
(g82
g63
NtRp4928
(dp4929
g66
(dp4930
sg75
g4915
sg68
(lp4931
g61
(g62
g63
NtRp4932
(dp4933
g66
(dp4934
g74
I5
ssg75
g4928
sg68
(lp4935
S'appadmin/index.html'
p4936
asbasbasbasbasbsS'locals'
p4937
(dp4938
S'a'
S"('CREATE TABLE auth_cas(\\n    id INTEGER PRIMARY KE...(512),\\n    ticket CHAR(512),\\n    renew CHAR(1)\\n);',)"
p4939
sS'self'
p4940
S'<gluon.dal.SQLiteAdapter object>'
p4941
sS'b'
g21
sS'command'
p4942
S"'CREATE TABLE auth_cas(\\n    id INTEGER PRIMARY KE...(512),\\n    ticket CHAR(512),\\n    renew CHAR(1)\\n);'"
p4943
sS't0'
p4944
S'1343678311.9270749'
p4945
sssS'traceback'
p4946
S'Traceback (most recent call last):\n  File "/web2pyTrunk/gluon/restricted.py", line 205, in restricted\n    exec ccode in environment\n  File "/web2pyTrunk/applications/GPIBHWS/models/db.py", line 47, in <module>\n    auth.define_tables()\n  File "/web2pyTrunk/gluon/tools.py", line 1520, in define_tables\n    fake_migrate=fake_migrate))\n  File "/web2pyTrunk/gluon/dal.py", line 6852, in define_table\n    polymodel=polymodel)\n  File "/web2pyTrunk/gluon/dal.py", line 804, in create_table\n    self.create_sequence_and_triggers(query,table)\n  File "/web2pyTrunk/gluon/dal.py", line 1487, in create_sequence_and_triggers\n    self.execute(query)\n  File "/web2pyTrunk/gluon/dal.py", line 1501, in execute\n    return self.log_execute(*a, **b)\n  File "/web2pyTrunk/gluon/dal.py", line 1495, in log_execute\n    ret = self.cursor.execute(*a, **b)\nOperationalError: table auth_cas already exists\n'
p4947
s.