(dp1
S'output'
p2
S"<class 'socket.timeout'> timed out"
p3
sS'layer'
p4
S'/web2pyTrunk/applications/GPIBHWS/controllers/default.py'
p5
sS'code'
p6
S'# -*- coding: utf-8 -*-\n\n#########################################################################\n## This is a samples controller\n## - index is the default action of any application\n## - user is required for authentication and authorization\n## - download is for downloading files uploaded in the db (does streaming)\n## - call exposes all registered services (none by default)\n#########################################################################\nimport time\nimport socket\nimport numpy as np\nimport scipy as sp\nimport math\nimport binascii\nimport datetime as dt\nimport pickle\nfrom time import localtime, strftime\nfrom pylab import *\n\ndef index():\n    form = SQLFORM(db.gpib,fields=[\'device\',\'run_type\', \'multiple_runs\',\'number_runs\',\'frequency_start\',\'frequency_range\',\'source_level\',\'source_offset\',\'sweep_rate\',\'calculate_sweep_rate\',\'sweep_up\',\'sweep_down\'],col3={\'frequency_start\':\'Hz\',\'frequency_range\':\'Hz\',\'source_level\':\'V\',\'source_offset\':\'V\',\'sweep_rate\':\'Hz/s\'})\n    if form.accepts(request.vars, session):\n        device = request.vars.device\n\n        if device == "Medium":\n            HOST = "172.21.7.68"\n        else:\n            HOST = "172.21.7.69"\n\n            PORT = 1234\n            NL = "\\r\\n"\n\n            SF_pre = "SF "\n            FRS_pre = "FRS "\n            SRC_pre = "SRLV "\n            SROF_pre = "DCOF "\n            V_suf = " V;" + NL\n            HZ_suf = " HZ;" + NL\n\n            sock = socket.socket(socket.AF_INET, socket.SOCK_STREAM, socket.IPPROTO_TCP)\n            sock.settimeout(0.5)\n            sock.connect((HOST,PORT))\n\n            sock.send("++mode 1" + NL)\n            sock.send("++addr 20" + NL)\n            sock.send("++auto 0" + NL)\n            sock.send("++eoi 1" + NL)\n\n            run_type = request.vars.run_type\n\n            if run_type == "PSD":\n\n                SF_in = request.vars.frequency_start\n                FRS_in = request.vars.frequency_range\n\n                SF_var = binascii.a2b_qp(SF_pre+str(SF_in)+HZ_suf)\n                FRS_var = binascii.a2b_qp(FRS_pre+str(FRS_in)+HZ_suf)\n\n                sock.send("SNGL;" + NL)\n                time.sleep(0.5)\n                sock.send("MSMD;" + NL)\n                time.sleep(0.5)\n                sock.send("LNRS;" + NL)\n                time.sleep(0.5)\n                sock.send("MDSP;" + NL)\n                time.sleep(0.5)\n                sock.send("PSP2;" + NL)\n                time.sleep(0.5)\n                sock.send("SMES;" + NL)\n                time.sleep(0.5)\n                sock.send("PSPC;" + NL)\n                time.sleep(0.5)\n                sock.send("CH2;" + NL)\n                time.sleep(0.5)\n                sock.send("FREQ;" + NL)\n                time.sleep(0.5)\n                sock.send(SF_var)\n                time.sleep(0.5)\n                sock.send(FRS_var)\n                time.sleep(0.5)\n                sock.send("CORD;" + NL)\n                time.sleep(0.5)\n                sock.send("MGDB;" + NL)\n                time.sleep(0.5)\n                sock.send("SCAL;" + NL)\n                time.sleep(0.5)\n                sock.send("A;" + NL)\n                time.sleep(0.5)\n                sock.send("YASC;" + NL)\n                time.sleep(0.5)\n                sock.send("STRT;" + NL)\n                time.sleep(1)\n                sock.send("AS?" + NL)\n                time.sleep(2)\n                sock.send("++read eoi" + NL)\n                filter_check = sock.recv(64)\n                filter_check = float(filter_check)\n                time.sleep(10)\n                while filter_check == 2.0:\n                    time.sleep(10)\n                    sock.send("AS?" + NL)\n                    time.sleep(3)\n                    sock.send("++read eoi" + NL)\n                    time.sleep(4)\n                    filter_check = sock.recv(64)\n                    time.sleep(20)\n                    sock.send("PAUS;" + NL)\n                    time.sleep(5)\n\n                # Active Data Trace Dump in ASCII\n                sock.send("DDAS;" + NL)\n                time.sleep(10)\n                sock.send("++read eoi" + NL)\n                time.sleep(10)\n                dat_headerDDAS = sock.recv(32768)\n                dat_headerDDAS = [dat_headerDDAS]\n                dat_headerDDAS = dat_headerDDAS[0].split(\'\\r\\n\')\n                headerDDAS = dat_headerDDAS[:67]\n                dat =  dat_headerDDAS[67:]\n                dat.pop()\n                for index, item in enumerate(dat):\n                    dat[index] = float(item)\n\n                # Instrument State Dump in ASCII\n                sock.send("DSAS;" + NL)\n                time.sleep(10)\n                sock.send("++read eoi" + NL)\n                time.sleep(10)\n                state_header = sock.recv(32768)\n                state_header = [state_header]\n                state_header = state_header[0].split(\'\\r\\n\')\n                state_header.pop()\n\n                # Retrieve useful information from the headers before generating plot\n                frq_span = float(state_header[80])\n                frq_strt = float(state_header[92])\n                frq_res = float(state_header[82])\n                x_cord = float(headerDDAS[11])\n\n                # Scale the data as need be (currently only scales for dB)\n                for i,n in enumerate(dat):\n                    if dat[i] == 0:\n                        n = 0;\n                    else:\n                        dat[i] = 10*math.log10(n)\n\n                # Generate Frequency values based on start frequncy, frequncy span and frequency resolution\n                x_val = np.arange(frq_strt,frq_strt+frq_span,frq_res)\n                x_val = np.append(x_val,x_val[-1]+frq_res)\n\n                # Zero check and array resize\n                try:\n                    while (dat.index(0)):\n                        zero_check = dat.index(0)\n                        dat.remove(0)\n                        x_val = np.delete(x_val,zero_check)\n                except ValueError:\n                    pass\n\n            else:\n\n                mruns = request.vars.multiple_runs\n\n                if (mruns == False):\n\n                    sock.send("STRT;" + NL)\n                    time.sleep(20)\n                    sock.send("SMSD;" + NL)\n                    time.sleep(10)\n                    sock.send("++read eoi" + NL)\n                    time.sleep(2)\n                    ms_check = sock.recv(64)\n\n                    while ms_check == \'0\\r\\n\':\n                        time.sleep(10)\n                        sock.send("SMSD;" + NL)\n                        time.sleep(10)\n                        sock.send("++read eoi" + NL)\n                        time.sleep(4)\n                        ms_check = sock.recv(64)\n                        time.sleep(1)\n\n                    # Active Data Trace Dump in ASCII\n                    sock.send("DDAS;" + NL)\n                    time.sleep(10)\n                    sock.send("++read eoi" + NL)\n                    time.sleep(10)\n                    sin_dat_header = sock.recv(131072)\n                    sin_dat_header = [sin_dat_header]\n                    sin_dat_header = sin_dat_header[0].split(\'\\r\\n\')\n                    sin_dat_header.pop()\n                    sin_header = sin_dat_header[:67]\n                    sin_dat =  sin_dat_header[67:]\n                    for index, item in enumerate(sin_dat):\n                        sin_dat[index] = float(item)\n\n                    # Create data arrays using the dumped real and imaginary pairs\n                    sin_dat = np.array(sin_dat)\n                    sin_dat.shape = 801,2\n                    sin_dat_real = sin_dat[:,0]\n                    sin_dat_imag = sin_dat[:,1]\n\n                    sin_dat_comp = []\n                    for i in range(len(sin_dat_real)):\n                        sin_dat_comp.append(complex(sin_dat_real[i],sin_dat_imag[i]))\n\n                    sin_dat_abs = []\n                    for i in range(len(sin_dat_comp)):\n                        sin_dat_abs.append(abs(sin_dat_comp[i]))\n\n\n                    # Instrument State Dump in ASCII\n                    sock.send("DSAS;" + NL)\n                    time.sleep(7)\n                    sock.send("++read eoi" + NL)\n                    time.sleep(10)\n                    sin_state = sock.recv(131072)\n                    sin_state = [sin_state]\n                    sin_state = sin_state[0].split(\'\\r\\n\')\n                    sin_state.pop()\n\n                    # Retrieve useful information from the headers before generating plot\n                    frq_strt = float(sin_state[94])\n                    frq_end = float(sin_state[95])\n                    frq_span = frq_end - frq_strt\n                    frq_res = frq_span/801\n                    x_cord = float(sin_header[11])\n                    swp_rate = float(sin_state[68])\n                    swp_time = float(sin_state[67])\n                    swp_res = float(sin_state[69])\n                    swp_intm = float(sin_state[70])\n\n                    # Generate Frequency values based on start frequncy, frequncy span and frequency resolution\n                    x_val_ss = np.arange(frq_strt,frq_strt+frq_span,frq_res)\n\n                    session.run_type = request.vars.run_type\n\n                    if run_type == "PSD":\n                        x_psd_pck = pickle.dumps(x_val)\n                        x_psd_dat = pickle.dumps(dat)\n                    else:\n                        x_pck = pickle.dumps(x_val_ss)\n                        yr_pck = pickle.dumps(sin_dat_real)\n                        ya_pck = pickle.dumps(sin_dat_abs)\n                        db.data.insert(x = x_pck,\n                                       yr = yr_pck,\n                                       ya = ya_pck)\n\n                else:\n\n                    mSF_in = request.vars.frequency_start\n                    mStep_size = request.vars.frequency_range\n                    mNumber = request.vars.number_runs\n\n                    mSF_array = []\n                    mSF_db_array = []\n\n                    while mNumber > 0:\n                        mSF_array.append(binascii.a2b_qp(SF_pre+str(mSF_in)+HZ_suf))\n                        mSF_db_array.append(int(float(mSF_in)))\n                        mSF_in = int(float(mSF_in)) + int(float(mStep_size))\n                        mNumber = int(float(mNumber)) - 1\n\n                    for n,item in enumerate(mSF_array):\n                        sock.send("FREQ;" + NL)\n                        time.sleep(0.5)\n                        sock.send(mSF_array[n])\n                        time.sleep(0.5)\n                        sock.send("STRT;" + NL)\n                        time.sleep(20)\n                        sock.send("SMSD;" + NL)\n                        time.sleep(10)\n                        sock.send("++read eoi" + NL)\n                        time.sleep(2)\n                        ms_check = sock.recv(64)\n                    \n                        while ms_check == \'0\\r\\n\':\n                            time.sleep(10)\n                            sock.send("SMSD;" + NL)\n                            time.sleep(10)\n                            sock.send("++read eoi" + NL)\n                            time.sleep(4)\n                            ms_check = sock.recv(64)\n                            time.sleep(1)\n\n                        # Active Data Trace Dump in ASCII\n                        sock.send("DDAS;" + NL)\n                        time.sleep(10)\n                        sock.send("++read eoi" + NL)\n                        time.sleep(10)\n                        sin_dat_header = sock.recv(131072)\n                        sin_dat_header = [sin_dat_header]\n                        sin_dat_header = sin_dat_header[0].split(\'\\r\\n\')\n                        sin_dat_header.pop()\n                        sin_header = sin_dat_header[:67]\n                        sin_dat =  sin_dat_header[67:]\n                        for index, item in enumerate(sin_dat):\n                            sin_dat[index] = float(item)\n\n                        # Create data arrays using the dumped real and imaginary pairs\n                        sin_dat = np.array(sin_dat)\n                        sin_dat.shape = 801,2\n                        sin_dat_real = sin_dat[:,0]\n                        sin_dat_imag = sin_dat[:,1]\n\n                        sin_dat_comp = []\n                        for i in range(len(sin_dat_real)):\n                            sin_dat_comp.append(complex(sin_dat_real[i],sin_dat_imag[i]))\n\n                        sin_dat_abs = []\n                        for i in range(len(sin_dat_comp)):\n                            sin_dat_abs.append(abs(sin_dat_comp[i]))\n\n\n                        # Instrument State Dump in ASCII\n                        sock.send("DSAS;" + NL)\n                        time.sleep(7)\n                        sock.send("++read eoi" + NL)\n                        time.sleep(10)\n                        sin_state = sock.recv(131072)\n                        sin_state = [sin_state]\n                        sin_state = sin_state[0].split(\'\\r\\n\')\n                        sin_state.pop()\n\n                        # Retrieve useful information from the headers before generating plot\n                        frq_strt = float(sin_state[94])\n                        frq_end = float(sin_state[95])\n                        frq_span = frq_end - frq_strt\n                        frq_res = frq_span/801\n                        x_cord = float(sin_header[11])\n                        swp_rate = float(sin_state[68])\n                        swp_time = float(sin_state[67])\n                        swp_res = float(sin_state[69])\n                        swp_intm = float(sin_state[70])\n\n                        # Generate Frequency values based on start frequncy, frequncy span and frequency resolution\n                        x_val_ss = np.arange(frq_strt,frq_strt+frq_span,frq_res)\n\n                        session.run_type = request.vars.run_type\n                        \n                        if run_type == "PSD":\n                            x_psd_pck = pickle.dumps(x_val)\n                            x_psd_dat = pickle.dumps(dat)\n                        else:\n                            db.results.insert(time = strftime("%Y-%m-%d %H:%M:%S", localtime()), \n    \t\t\t\t\t\t\t\t\t\tdevice = request.vars.device,\n\t\t\t\t\t\t\t\t\t\t\trun_type = request.vars.run_type,\n                                            start_frequency = mSF_db_array[n],\n                                            frequency_range = request.vars.frequency_range,\n                                            source_level = request.vars.source_level,\n                                            source_offset = request.vars.source_offset,\n                                            sweep_rate = request.vars.sweep_rate)\n                            x_pck = pickle.dumps(x_val_ss)\n                            yr_pck = pickle.dumps(sin_dat_real)\n                            ya_pck = pickle.dumps(sin_dat_abs)\n                            db.data.insert(x = x_pck,\n                                        yr = yr_pck,\n                                        ya = ya_pck)\n\n\n    elif form.errors:\n        response.flash = \'Error, please try again\'\n    else:\n        response.flash = \'Please fill in the data\'\n\n    rows = db(db.results.id==db.data.id).select(db.results.time,db.results.device,db.results.run_type,db.results.start_frequency,db.results.frequency_range,db.results.source_level,db.results.source_offset,db.results.sweep_rate,db.data.id)\n    records=SQLTABLE(rows, headers=\'labels\')\n    return dict(form=form,vars=form.vars,records=records)\n\ndef plot_data():\n    dataplot=db.data[request.args(0)] or redirect(URL(r=request,f=\'index\'))\n    x_val = dataplot.x\n    y_abs = dataplot.ya\n    y_real = dataplot.yr\n    return image_mat(x_val,y_abs,y_real)\n\ndef image_mat(x,ya,yr):\n    import sys\n    import cStringIO\n    from matplotlib.backends.backend_agg import FigureCanvasAgg as FigureCanvas\n    from matplotlib.figure import Figure\n    import matplotlib\n\n    #run_type = request.vars.run_type\n\n    #if (run_type == "PSD"):\n    #    fig=Figure()\n    #    ax=fig.add_subplot(111)\n    #    x_val = session.x_val\n    #    dat = session.dat\n    #    ax.plot(x_val,dat)\n    #    ax.set_xlabel("Hz")\n    #    ax.set_ylabel("dB")\n    #    ax.axis(\'tight\')\n    #    canvas=FigureCanvas(fig)\n    #    response.headers[\'Content-Type\']="image/png"\n    #    stream=cStringIO.StringIO()\n    #    canvas.print_png(stream)\n    #elif (run_type == "Sweep"):\n    x_val_ss = pickle.loads(x)\n    sin_dat_abs = pickle.loads(ya)\n    sin_dat_real = pickle.loads(yr)\n    fig=Figure()\n    ax=fig.add_subplot(211)\n    ax.plot(x_val_ss,sin_dat_abs)\n    ax.set_xlabel("Hz")\n    ax.set_ylabel("Mag")\n    ax.axis(\'tight\')\n    ay=fig.add_subplot(212)\n    ay.plot(x_val_ss,sin_dat_real)\n    ay.set_xlabel("Hz")\n    ay.set_ylabel("Real")\n    ay.axis(\'tight\')\n    sizer = request.function\n    if sizer == \'index\':\n        rcParams[\'figure.figsize\'] = 1.5,.75\n    else:\n        rcParams[\'figure.figsize\'] = 10,8\n    canvas=FigureCanvas(fig)\n    response.headers[\'Content-Type\']=\'image/png\'\n    stream=cStringIO.StringIO()\n    canvas.print_png(stream)\n\n    return stream.getvalue()\n\ndef plot_thumb():\n    dataplot_th=db.data[request.args(0)] or redirect(URL(r=request,f=\'index\'))\n    x_val_th = dataplot_th.x\n    y_abs_th = dataplot_th.ya\n    y_real_th = dataplot_th.yr\n    return image_mat_thumb(x_val_th,y_abs_th,y_real_th)\n\ndef image_mat_thumb(xth,yath,yrth):\n    import sys\n    import cStringIO\n    from matplotlib.backends.backend_agg import FigureCanvasAgg as FigureCanvas\n    from matplotlib.figure import Figure\n    import matplotlib\n\n    #run_type = request.vars.run_type\n\n    #if (run_type == "PSD"):\n    #    fig=Figure()\n    #    ax=fig.add_subplot(111)\n    #    x_val = session.x_val\n    #    dat = session.dat\n    #    ax.plot(x_val,dat)\n    #    ax.set_xlabel("Hz")\n    #    ax.set_ylabel("dB")\n    #    ax.axis(\'tight\')\n    #    canvas=FigureCanvas(fig)\n    #    response.headers[\'Content-Type\']="image/png"\n    #    stream=cStringIO.StringIO()\n    #    canvas.print_png(stream)\n    #elif (run_type == "Sweep"):\n    x_val_ss = pickle.loads(xth)\n    sin_dat_abs = pickle.loads(yath)\n    sin_dat_real = pickle.loads(yrth)\n    fig=Figure()\n    ax=fig.add_subplot(211)\n    ax.plot(x_val_ss,sin_dat_abs)\n    ax.set_xlabel("Hz")\n    ax.set_ylabel("Mag")\n    ax.axis(\'tight\')\n    ay=fig.add_subplot(212)\n    ay.plot(x_val_ss,sin_dat_real)\n    ay.set_xlabel("Hz")\n    ay.set_ylabel("Real")\n    ay.axis(\'tight\')\n    sizer = request.function\n    if sizer == \'index\':\n        rcParams[\'figure.figsize\'] = 1.5,.75\n    else:\n        rcParams[\'figure.figsize\'] = 10,8\n    canvas=FigureCanvas(fig)\n    response.headers[\'Content-Type\']=\'image/png\'\n    stream=cStringIO.StringIO()\n    canvas.print_png(stream)\n\n    return stream.getvalue()\n\ndef calc_sweep_time():\n    #FRS_in = request.vars.frequency_range\n    #SW_in = request.vars.sweep_rate\n\n    #frq_range = float(FRS_in)\n    #swp_rate = float(SW_in)\n\n    #swp_t = ((frq_range/swp_rate) + 90)/60\n\n    return "jQuery(\'#run_time\').html(\'%s\')" % H1(\'This run should take x minutes\').xml()\n\ndef calc_sweep_func():\n    SF_in = request.vars.frequency_start\n    FRS_in = request.vars.frequency_range\n    device = request.vars.device\n\n    if device == "Medium":\n        HOST = "172.21.7.68"\n    else:\n        HOST = "172.21.7.69"\n\n    PORT = 1234\n    NL = "\\r\\n"\n\n    SF_pre = "SF "\n    FRS_pre = "FRS "\n    HZ_suf = " HZ;" + NL\n\n    SF_var = binascii.a2b_qp(SF_pre+str(SF_in)+HZ_suf)\n    FRS_var = binascii.a2b_qp(FRS_pre+str(FRS_in)+HZ_suf)\n\n    sock = socket.socket(socket.AF_INET, socket.SOCK_STREAM, socket.IPPROTO_TCP)\n    sock.settimeout(0.5)\n    sock.connect((HOST,PORT))\n\n    sock.send("++mode 1" + NL)\n    sock.send("++addr 20" + NL)\n    sock.send("++auto 0" + NL)\n    sock.send("++eoi 1" + NL)\n\n    sock.send("AB;" + NL)\n    time.sleep(0.5)\n    sock.send("MSMD;" + NL)\n    time.sleep(0.5)\n    sock.send("SSIN;" + NL)\n    time.sleep(0.5)\n    sock.send("LNSW;" + NL)\n    time.sleep(0.5)\n    sock.send("MDSP;" + NL)\n    time.sleep(0.5)\n    sock.send("FRQR;" + NL)\n    time.sleep(0.5)\n    sock.send("SMES;" + NL)\n    time.sleep(0.5)\n    sock.send("FRSP;" + NL)\n    time.sleep(0.5)\n    sock.send("STTR;" + NL)\n    time.sleep(0.5)\n    sock.send("FREQ;" + NL)\n    time.sleep(0.5)\n    sock.send(SF_var)\n    time.sleep(0.5)\n    sock.send(FRS_var)\n    time.sleep(0.5)\n    sock.send("CORD;" + NL)\n    time.sleep(0.5)\n    sock.send("A;" + NL)\n    time.sleep(0.5)\n    sock.send("MAG;" + NL)\n    time.sleep(0.5)\n    sock.send("B;" + NL)\n    time.sleep(0.5)\n    sock.send("REAL;" + NL)\n    time.sleep(0.5)\n    sock.send("SCAL;" + NL)\n    time.sleep(0.5)\n    sock.send("AB;" + NL)\n    time.sleep(0.5)\n    sock.send("YASC;" + NL)\n    time.sleep(0.5)\n    sock.send("XASC;" + NL)\n    time.sleep(0.5)\n    sock.send("STTR;" + NL)\n    time.sleep(0.5)\n    sock.send("SWRT;" + NL)\n    time.sleep(0.5)\n    sock.send("SWRT?" + NL)\n    time.sleep(6)\n    sock.send("++read eoi" + NL)\n    swp_el = sock.recv(64)\n    swp_el = swp_el.split(\'\\r\\n\')[0]\n\n    return "jQuery(\'#gpib_sweep_rate\').val(%s);" % repr(swp_el)\n\ndef sweep_up_func():\n\n    FRS_in = request.vars.frequency_range\n    device = request.vars.device\n\n    if device == "Medium":\n        HOST = "172.21.7.68"\n    else:\n        HOST = "172.21.7.69"\n\n    PORT = 1234\n    NL = "\\r\\n"\n\n    sock = socket.socket(socket.AF_INET, socket.SOCK_STREAM, socket.IPPROTO_TCP)\n    sock.settimeout(0.5)\n    sock.connect((HOST,PORT))\n\n    sock.send("SWRT;" + NL)\n    time.sleep(0.5)\n    sock.send("UP;" + NL)\n    time.sleep(0.5)\n    sock.send("SWRT?" + NL)\n    time.sleep(6)\n    sock.send("++read eoi" + NL)\n    swp_el_up = sock.recv(64)\n    swp_el_up = swp_el_up.split(\'\\r\\n\')[0]\n\n    return "jQuery(\'#gpib_sweep_rate\').val(%s);" % repr(swp_el_up)\n\ndef sweep_down_func():\n\n    FRS_in = request.vars.frequency_range\n    device = request.vars.device\n\n    if device == "Medium":\n        HOST = "172.21.7.68"\n    else:\n        HOST = "172.21.7.69"\n\n    PORT = 1234\n    NL = "\\r\\n"\n\n    sock = socket.socket(socket.AF_INET, socket.SOCK_STREAM, socket.IPPROTO_TCP)\n    sock.settimeout(0.5)\n    sock.connect((HOST,PORT))\n\n    sock.send("SWRT;" + NL)\n    time.sleep(0.5)\n    sock.send("DOWN;" + NL)\n    time.sleep(0.5)\n    sock.send("SWRT?" + NL)\n    time.sleep(6)\n    sock.send("++read eoi" + NL)\n    swp_el_down = sock.recv(64)\n    swp_el_down = swp_el_down.split(\'\\r\\n\')[0]\n\n    return "jQuery(\'#gpib_sweep_rate\').val(%s);" % repr(swp_el_down)\n\ndef user():\n    """\n    exposes:\n    http://..../[app]/default/user/login\n    http://..../[app]/default/user/logout\n    http://..../[app]/default/user/register\n    http://..../[app]/default/user/profile\n    http://..../[app]/default/user/retrieve_password\n    http://..../[app]/default/user/change_password\n    use @auth.requires_login()\n        @auth.requires_membership(\'group name\')\n        @auth.requires_permission(\'read\',\'table name\',record_id)\n    to decorate functions that need access control\n    """\n    return dict(form=auth())\n\n\ndef download():\n    """\n    allows downloading of uploaded files\n    http://..../[app]/default/download/[filename]\n    """\n    return response.download(request,db)\n\n\ndef call():\n    """\n    exposes services. for example:\n    http://..../[app]/default/call/jsonrpc\n    decorate with @services.jsonrpc the functions to expose\n    supports xml, json, xmlrpc, jsonrpc, amfrpc, rss, csv\n    """\n    session.forget()\n    return service()\n\n\n\n@auth.requires_signature()\ndef data():\n    """\n    http://..../[app]/default/data/tables\n    http://..../[app]/default/data/create/[table]\n    http://..../[app]/default/data/read/[table]/[id]\n    http://..../[app]/default/data/update/[table]/[id]\n    http://..../[app]/default/data/delete/[table]/[id]\n    http://..../[app]/default/data/select/[table]\n    http://..../[app]/default/data/search/[table]\n    but URLs must be signed, i.e. linked with\n      A(\'table\',_href=URL(\'data/tables\',user_signature=True))\n    or with the signed load operator\n      LOAD(\'default\',\'data.load\',args=\'tables\',ajax=True,user_signature=True)\n    """\n    return dict(form=crud())\n\nresponse._vars=response._caller(index)\n'
p7
sS'snapshot'
p8
(dp9
S'exception'
p10
(dp11
S'__module__'
p12
S"'socket'"
p13
sS'__getslice__'
p14
S"<method-wrapper '__getslice__' of timeout object>"
p15
sS'__str__'
p16
S"<method-wrapper '__str__' of timeout object>"
p17
sS'__reduce__'
p18
S'<built-in method __reduce__ of timeout object>'
p19
sS'__dict__'
p20
S'{}'
p21
sS'__sizeof__'
p22
S'<built-in method __sizeof__ of timeout object>'
p23
sS'__weakref__'
p24
S'None'
p25
sS'__init__'
p26
S"<method-wrapper '__init__' of timeout object>"
p27
sS'__setattr__'
p28
S"<method-wrapper '__setattr__' of timeout object>"
p29
sS'__reduce_ex__'
p30
S'<built-in method __reduce_ex__ of timeout object>'
p31
sS'__new__'
p32
S'<built-in method __new__ of type object>'
p33
sS'errno'
p34
S'None'
p35
sS'__format__'
p36
S'<built-in method __format__ of timeout object>'
p37
sS'__class__'
p38
S"<class 'socket.timeout'>"
p39
sS'filename'
p40
S'None'
p41
sS'__doc__'
p42
S'None'
p43
sS'__getitem__'
p44
S"<method-wrapper '__getitem__' of timeout object>"
p45
sS'__setstate__'
p46
S'<built-in method __setstate__ of timeout object>'
p47
sS'__getattribute__'
p48
S"<method-wrapper '__getattribute__' of timeout object>"
p49
sS'args'
p50
S"('timed out',)"
p51
sS'__subclasshook__'
p52
S'<built-in method __subclasshook__ of type object>'
p53
sS'__unicode__'
p54
S'<built-in method __unicode__ of timeout object>'
p55
sS'strerror'
p56
S'None'
p57
sS'__delattr__'
p58
S"<method-wrapper '__delattr__' of timeout object>"
p59
sS'__repr__'
p60
S"<method-wrapper '__repr__' of timeout object>"
p61
sS'__hash__'
p62
S"<method-wrapper '__hash__' of timeout object>"
p63
ssS'evalue'
p64
S'timed out'
p65
sS'request'
p66
ccopy_reg
_reconstructor
p67
(cgluon.html
BEAUTIFY
p68
c__builtin__
object
p69
NtRp70
(dp71
S'attributes'
p72
(dp73
sS'components'
p74
(lp75
g67
(cgluon.html
TABLE
p76
g69
NtRp77
(dp78
g72
(dp79
S'level'
p80
I5
ssS'parent'
p81
Nsg74
(lp82
g67
(cgluon.html
TR
p83
g69
NtRp84
(dp85
g72
(dp86
sg81
g77
sg74
(lp87
g67
(cgluon.html
TD
p88
g69
NtRp89
(dp90
g72
(dp91
S'_style'
p92
S'font-weight:bold;vertical-align:top'
p93
ssg81
g84
sg74
(lp94
S'ajax'
p95
asbag67
(g88
g69
NtRp96
(dp97
g72
(dp98
S'_valign'
p99
S'top'
p100
ssg81
g84
sg74
(lp101
S':'
asbag67
(g88
g69
NtRp102
(dp103
g72
(dp104
sg81
g84
sg74
(lp105
g67
(g68
g69
NtRp106
(dp107
g72
(dp108
g80
I5
ssg81
g102
sg74
(lp109
S'False'
p110
asbasbasbag67
(g83
g69
NtRp111
(dp112
g72
(dp113
sg81
g77
sg74
(lp114
g67
(g88
g69
NtRp115
(dp116
g72
(dp117
g92
g93
ssg81
g111
sg74
(lp118
S'application'
p119
asbag67
(g88
g69
NtRp120
(dp121
g72
(dp122
g99
g100
ssg81
g111
sg74
(lp123
S':'
asbag67
(g88
g69
NtRp124
(dp125
g72
(dp126
sg81
g111
sg74
(lp127
g67
(g68
g69
NtRp128
(dp129
g72
(dp130
g80
I5
ssg81
g124
sg74
(lp131
S'GPIBHWS'
p132
asbasbasbag67
(g83
g69
NtRp133
(dp134
g72
(dp135
sg81
g77
sg74
(lp136
g67
(g88
g69
NtRp137
(dp138
g72
(dp139
g92
g93
ssg81
g133
sg74
(lp140
g50
asbag67
(g88
g69
NtRp141
(dp142
g72
(dp143
g99
g100
ssg81
g133
sg74
(lp144
S':'
asbag67
(g88
g69
NtRp145
(dp146
g72
(dp147
sg81
g133
sg74
(lp148
g67
(g68
g69
NtRp149
(dp150
g72
(dp151
g80
I5
ssg81
g145
sg74
(lp152
g67
(g76
g69
NtRp153
(dp154
g72
(dp155
g80
I4
ssg81
Nsg74
(lp156
sbasbasbasbag67
(g83
g69
NtRp157
(dp158
g72
(dp159
sg81
g77
sg74
(lp160
g67
(g88
g69
NtRp161
(dp162
g72
(dp163
g92
g93
ssg81
g157
sg74
(lp164
S'body'
p165
asbag67
(g88
g69
NtRp166
(dp167
g72
(dp168
g99
g100
ssg81
g157
sg74
(lp169
S':'
asbag67
(g88
g69
NtRp170
(dp171
g72
(dp172
sg81
g157
sg74
(lp173
g67
(g68
g69
NtRp174
(dp175
g72
(dp176
g80
I5
ssg81
g170
sg74
(lp177
S"<open file '<fdopen>', mode 'w+b' at 0x19e3fc80>"
p178
asbasbasbag67
(g83
g69
NtRp179
(dp180
g72
(dp181
sg81
g77
sg74
(lp182
g67
(g88
g69
NtRp183
(dp184
g72
(dp185
g92
g93
ssg81
g179
sg74
(lp186
S'client'
p187
asbag67
(g88
g69
NtRp188
(dp189
g72
(dp190
g99
g100
ssg81
g179
sg74
(lp191
S':'
asbag67
(g88
g69
NtRp192
(dp193
g72
(dp194
sg81
g179
sg74
(lp195
g67
(g68
g69
NtRp196
(dp197
g72
(dp198
g80
I5
ssg81
g192
sg74
(lp199
S'127.0.0.1'
p200
asbasbasbag67
(g83
g69
NtRp201
(dp202
g72
(dp203
sg81
g77
sg74
(lp204
g67
(g88
g69
NtRp205
(dp206
g72
(dp207
g92
g93
ssg81
g201
sg74
(lp208
S'controller'
p209
asbag67
(g88
g69
NtRp210
(dp211
g72
(dp212
g99
g100
ssg81
g201
sg74
(lp213
S':'
asbag67
(g88
g69
NtRp214
(dp215
g72
(dp216
sg81
g201
sg74
(lp217
g67
(g68
g69
NtRp218
(dp219
g72
(dp220
g80
I5
ssg81
g214
sg74
(lp221
S'default'
p222
asbasbasbag67
(g83
g69
NtRp223
(dp224
g72
(dp225
sg81
g77
sg74
(lp226
g67
(g88
g69
NtRp227
(dp228
g72
(dp229
g92
g93
ssg81
g223
sg74
(lp230
S'cookies'
p231
asbag67
(g88
g69
NtRp232
(dp233
g72
(dp234
g99
g100
ssg81
g223
sg74
(lp235
S':'
asbag67
(g88
g69
NtRp236
(dp237
g72
(dp238
sg81
g223
sg74
(lp239
g67
(g68
g69
NtRp240
(dp241
g72
(dp242
g80
I5
ssg81
g236
sg74
(lp243
g67
(g76
g69
NtRp244
(dp245
g72
(dp246
g80
I4
ssg81
Nsg74
(lp247
g67
(g83
g69
NtRp248
(dp249
g72
(dp250
sg81
g244
sg74
(lp251
g67
(g88
g69
NtRp252
(dp253
g72
(dp254
g92
g93
ssg81
g248
sg74
(lp255
S'session_id_admin'
p256
asbag67
(g88
g69
NtRp257
(dp258
g72
(dp259
g99
g100
ssg81
g248
sg74
(lp260
S':'
asbag67
(g88
g69
NtRp261
(dp262
g72
(dp263
sg81
g248
sg74
(lp264
g67
(g68
g69
NtRp265
(dp266
g72
(dp267
g80
I4
ssg81
g261
sg74
(lp268
S'127.0.0.1-aa4f76c9-9d67-46ca-a892-d9c6fd0665fe'
p269
ag67
(g76
g69
NtRp270
(dp271
g72
(dp272
g80
I3
ssg81
Nsg74
(lp273
g67
(g83
g69
NtRp274
(dp275
g72
(dp276
sg81
g270
sg74
(lp277
g67
(g88
g69
NtRp278
(dp279
g72
(dp280
g92
g93
ssg81
g274
sg74
(lp281
S'comment'
p282
asbag67
(g88
g69
NtRp283
(dp284
g72
(dp285
g99
g100
ssg81
g274
sg74
(lp286
S':'
asbag67
(g88
g69
NtRp287
(dp288
g72
(dp289
sg81
g274
sg74
(lp290
g67
(g68
g69
NtRp291
(dp292
g72
(dp293
g80
I3
ssg81
g287
sg74
(lp294
S''
asbasbasbag67
(g83
g69
NtRp295
(dp296
g72
(dp297
sg81
g270
sg74
(lp298
g67
(g88
g69
NtRp299
(dp300
g72
(dp301
g92
g93
ssg81
g295
sg74
(lp302
S'domain'
p303
asbag67
(g88
g69
NtRp304
(dp305
g72
(dp306
g99
g100
ssg81
g295
sg74
(lp307
S':'
asbag67
(g88
g69
NtRp308
(dp309
g72
(dp310
sg81
g295
sg74
(lp311
g67
(g68
g69
NtRp312
(dp313
g72
(dp314
g80
I3
ssg81
g308
sg74
(lp315
S''
asbasbasbag67
(g83
g69
NtRp316
(dp317
g72
(dp318
sg81
g270
sg74
(lp319
g67
(g88
g69
NtRp320
(dp321
g72
(dp322
g92
g93
ssg81
g316
sg74
(lp323
S'expires'
p324
asbag67
(g88
g69
NtRp325
(dp326
g72
(dp327
g99
g100
ssg81
g316
sg74
(lp328
S':'
asbag67
(g88
g69
NtRp329
(dp330
g72
(dp331
sg81
g316
sg74
(lp332
g67
(g68
g69
NtRp333
(dp334
g72
(dp335
g80
I3
ssg81
g329
sg74
(lp336
S''
asbasbasbag67
(g83
g69
NtRp337
(dp338
g72
(dp339
sg81
g270
sg74
(lp340
g67
(g88
g69
NtRp341
(dp342
g72
(dp343
g92
g93
ssg81
g337
sg74
(lp344
S'httponly'
p345
asbag67
(g88
g69
NtRp346
(dp347
g72
(dp348
g99
g100
ssg81
g337
sg74
(lp349
S':'
asbag67
(g88
g69
NtRp350
(dp351
g72
(dp352
sg81
g337
sg74
(lp353
g67
(g68
g69
NtRp354
(dp355
g72
(dp356
g80
I3
ssg81
g350
sg74
(lp357
S''
asbasbasbag67
(g83
g69
NtRp358
(dp359
g72
(dp360
sg81
g270
sg74
(lp361
g67
(g88
g69
NtRp362
(dp363
g72
(dp364
g92
g93
ssg81
g358
sg74
(lp365
S'max-age'
p366
asbag67
(g88
g69
NtRp367
(dp368
g72
(dp369
g99
g100
ssg81
g358
sg74
(lp370
S':'
asbag67
(g88
g69
NtRp371
(dp372
g72
(dp373
sg81
g358
sg74
(lp374
g67
(g68
g69
NtRp375
(dp376
g72
(dp377
g80
I3
ssg81
g371
sg74
(lp378
S''
asbasbasbag67
(g83
g69
NtRp379
(dp380
g72
(dp381
sg81
g270
sg74
(lp382
g67
(g88
g69
NtRp383
(dp384
g72
(dp385
g92
g93
ssg81
g379
sg74
(lp386
S'path'
p387
asbag67
(g88
g69
NtRp388
(dp389
g72
(dp390
g99
g100
ssg81
g379
sg74
(lp391
S':'
asbag67
(g88
g69
NtRp392
(dp393
g72
(dp394
sg81
g379
sg74
(lp395
g67
(g68
g69
NtRp396
(dp397
g72
(dp398
g80
I3
ssg81
g392
sg74
(lp399
S''
asbasbasbag67
(g83
g69
NtRp400
(dp401
g72
(dp402
sg81
g270
sg74
(lp403
g67
(g88
g69
NtRp404
(dp405
g72
(dp406
g92
g93
ssg81
g400
sg74
(lp407
S'secure'
p408
asbag67
(g88
g69
NtRp409
(dp410
g72
(dp411
g99
g100
ssg81
g400
sg74
(lp412
S':'
asbag67
(g88
g69
NtRp413
(dp414
g72
(dp415
sg81
g400
sg74
(lp416
g67
(g68
g69
NtRp417
(dp418
g72
(dp419
g80
I3
ssg81
g413
sg74
(lp420
S''
asbasbasbag67
(g83
g69
NtRp421
(dp422
g72
(dp423
sg81
g270
sg74
(lp424
g67
(g88
g69
NtRp425
(dp426
g72
(dp427
g92
g93
ssg81
g421
sg74
(lp428
S'version'
p429
asbag67
(g88
g69
NtRp430
(dp431
g72
(dp432
g99
g100
ssg81
g421
sg74
(lp433
S':'
asbag67
(g88
g69
NtRp434
(dp435
g72
(dp436
sg81
g421
sg74
(lp437
g67
(g68
g69
NtRp438
(dp439
g72
(dp440
g80
I3
ssg81
g434
sg74
(lp441
S''
asbasbasbasbasbasbasbag67
(g83
g69
NtRp442
(dp443
g72
(dp444
sg81
g244
sg74
(lp445
g67
(g88
g69
NtRp446
(dp447
g72
(dp448
g92
g93
ssg81
g442
sg74
(lp449
S'session_id_gpib3562a'
p450
asbag67
(g88
g69
NtRp451
(dp452
g72
(dp453
g99
g100
ssg81
g442
sg74
(lp454
S':'
asbag67
(g88
g69
NtRp455
(dp456
g72
(dp457
sg81
g442
sg74
(lp458
g67
(g68
g69
NtRp459
(dp460
g72
(dp461
g80
I4
ssg81
g455
sg74
(lp462
S'127.0.0.1-d49cba14-6f33-40cd-983c-34bd052e67de'
p463
ag67
(g76
g69
NtRp464
(dp465
g72
(dp466
g80
I3
ssg81
Nsg74
(lp467
g67
(g83
g69
NtRp468
(dp469
g72
(dp470
sg81
g464
sg74
(lp471
g67
(g88
g69
NtRp472
(dp473
g72
(dp474
g92
g93
ssg81
g468
sg74
(lp475
g282
asbag67
(g88
g69
NtRp476
(dp477
g72
(dp478
g99
g100
ssg81
g468
sg74
(lp479
S':'
asbag67
(g88
g69
NtRp480
(dp481
g72
(dp482
sg81
g468
sg74
(lp483
g67
(g68
g69
NtRp484
(dp485
g72
(dp486
g80
I3
ssg81
g480
sg74
(lp487
S''
asbasbasbag67
(g83
g69
NtRp488
(dp489
g72
(dp490
sg81
g464
sg74
(lp491
g67
(g88
g69
NtRp492
(dp493
g72
(dp494
g92
g93
ssg81
g488
sg74
(lp495
g303
asbag67
(g88
g69
NtRp496
(dp497
g72
(dp498
g99
g100
ssg81
g488
sg74
(lp499
S':'
asbag67
(g88
g69
NtRp500
(dp501
g72
(dp502
sg81
g488
sg74
(lp503
g67
(g68
g69
NtRp504
(dp505
g72
(dp506
g80
I3
ssg81
g500
sg74
(lp507
S''
asbasbasbag67
(g83
g69
NtRp508
(dp509
g72
(dp510
sg81
g464
sg74
(lp511
g67
(g88
g69
NtRp512
(dp513
g72
(dp514
g92
g93
ssg81
g508
sg74
(lp515
g324
asbag67
(g88
g69
NtRp516
(dp517
g72
(dp518
g99
g100
ssg81
g508
sg74
(lp519
S':'
asbag67
(g88
g69
NtRp520
(dp521
g72
(dp522
sg81
g508
sg74
(lp523
g67
(g68
g69
NtRp524
(dp525
g72
(dp526
g80
I3
ssg81
g520
sg74
(lp527
S''
asbasbasbag67
(g83
g69
NtRp528
(dp529
g72
(dp530
sg81
g464
sg74
(lp531
g67
(g88
g69
NtRp532
(dp533
g72
(dp534
g92
g93
ssg81
g528
sg74
(lp535
g345
asbag67
(g88
g69
NtRp536
(dp537
g72
(dp538
g99
g100
ssg81
g528
sg74
(lp539
S':'
asbag67
(g88
g69
NtRp540
(dp541
g72
(dp542
sg81
g528
sg74
(lp543
g67
(g68
g69
NtRp544
(dp545
g72
(dp546
g80
I3
ssg81
g540
sg74
(lp547
S''
asbasbasbag67
(g83
g69
NtRp548
(dp549
g72
(dp550
sg81
g464
sg74
(lp551
g67
(g88
g69
NtRp552
(dp553
g72
(dp554
g92
g93
ssg81
g548
sg74
(lp555
g366
asbag67
(g88
g69
NtRp556
(dp557
g72
(dp558
g99
g100
ssg81
g548
sg74
(lp559
S':'
asbag67
(g88
g69
NtRp560
(dp561
g72
(dp562
sg81
g548
sg74
(lp563
g67
(g68
g69
NtRp564
(dp565
g72
(dp566
g80
I3
ssg81
g560
sg74
(lp567
S''
asbasbasbag67
(g83
g69
NtRp568
(dp569
g72
(dp570
sg81
g464
sg74
(lp571
g67
(g88
g69
NtRp572
(dp573
g72
(dp574
g92
g93
ssg81
g568
sg74
(lp575
g387
asbag67
(g88
g69
NtRp576
(dp577
g72
(dp578
g99
g100
ssg81
g568
sg74
(lp579
S':'
asbag67
(g88
g69
NtRp580
(dp581
g72
(dp582
sg81
g568
sg74
(lp583
g67
(g68
g69
NtRp584
(dp585
g72
(dp586
g80
I3
ssg81
g580
sg74
(lp587
S''
asbasbasbag67
(g83
g69
NtRp588
(dp589
g72
(dp590
sg81
g464
sg74
(lp591
g67
(g88
g69
NtRp592
(dp593
g72
(dp594
g92
g93
ssg81
g588
sg74
(lp595
g408
asbag67
(g88
g69
NtRp596
(dp597
g72
(dp598
g99
g100
ssg81
g588
sg74
(lp599
S':'
asbag67
(g88
g69
NtRp600
(dp601
g72
(dp602
sg81
g588
sg74
(lp603
g67
(g68
g69
NtRp604
(dp605
g72
(dp606
g80
I3
ssg81
g600
sg74
(lp607
S''
asbasbasbag67
(g83
g69
NtRp608
(dp609
g72
(dp610
sg81
g464
sg74
(lp611
g67
(g88
g69
NtRp612
(dp613
g72
(dp614
g92
g93
ssg81
g608
sg74
(lp615
g429
asbag67
(g88
g69
NtRp616
(dp617
g72
(dp618
g99
g100
ssg81
g608
sg74
(lp619
S':'
asbag67
(g88
g69
NtRp620
(dp621
g72
(dp622
sg81
g608
sg74
(lp623
g67
(g68
g69
NtRp624
(dp625
g72
(dp626
g80
I3
ssg81
g620
sg74
(lp627
S''
asbasbasbasbasbasbasbag67
(g83
g69
NtRp628
(dp629
g72
(dp630
sg81
g244
sg74
(lp631
g67
(g88
g69
NtRp632
(dp633
g72
(dp634
g92
g93
ssg81
g628
sg74
(lp635
S'session_id_gpibfinal'
p636
asbag67
(g88
g69
NtRp637
(dp638
g72
(dp639
g99
g100
ssg81
g628
sg74
(lp640
S':'
asbag67
(g88
g69
NtRp641
(dp642
g72
(dp643
sg81
g628
sg74
(lp644
g67
(g68
g69
NtRp645
(dp646
g72
(dp647
g80
I4
ssg81
g641
sg74
(lp648
S'127.0.0.1-b6082bee-e94c-4b95-a41a-f1f299c63111'
p649
ag67
(g76
g69
NtRp650
(dp651
g72
(dp652
g80
I3
ssg81
Nsg74
(lp653
g67
(g83
g69
NtRp654
(dp655
g72
(dp656
sg81
g650
sg74
(lp657
g67
(g88
g69
NtRp658
(dp659
g72
(dp660
g92
g93
ssg81
g654
sg74
(lp661
g282
asbag67
(g88
g69
NtRp662
(dp663
g72
(dp664
g99
g100
ssg81
g654
sg74
(lp665
S':'
asbag67
(g88
g69
NtRp666
(dp667
g72
(dp668
sg81
g654
sg74
(lp669
g67
(g68
g69
NtRp670
(dp671
g72
(dp672
g80
I3
ssg81
g666
sg74
(lp673
S''
asbasbasbag67
(g83
g69
NtRp674
(dp675
g72
(dp676
sg81
g650
sg74
(lp677
g67
(g88
g69
NtRp678
(dp679
g72
(dp680
g92
g93
ssg81
g674
sg74
(lp681
g303
asbag67
(g88
g69
NtRp682
(dp683
g72
(dp684
g99
g100
ssg81
g674
sg74
(lp685
S':'
asbag67
(g88
g69
NtRp686
(dp687
g72
(dp688
sg81
g674
sg74
(lp689
g67
(g68
g69
NtRp690
(dp691
g72
(dp692
g80
I3
ssg81
g686
sg74
(lp693
S''
asbasbasbag67
(g83
g69
NtRp694
(dp695
g72
(dp696
sg81
g650
sg74
(lp697
g67
(g88
g69
NtRp698
(dp699
g72
(dp700
g92
g93
ssg81
g694
sg74
(lp701
g324
asbag67
(g88
g69
NtRp702
(dp703
g72
(dp704
g99
g100
ssg81
g694
sg74
(lp705
S':'
asbag67
(g88
g69
NtRp706
(dp707
g72
(dp708
sg81
g694
sg74
(lp709
g67
(g68
g69
NtRp710
(dp711
g72
(dp712
g80
I3
ssg81
g706
sg74
(lp713
S''
asbasbasbag67
(g83
g69
NtRp714
(dp715
g72
(dp716
sg81
g650
sg74
(lp717
g67
(g88
g69
NtRp718
(dp719
g72
(dp720
g92
g93
ssg81
g714
sg74
(lp721
g345
asbag67
(g88
g69
NtRp722
(dp723
g72
(dp724
g99
g100
ssg81
g714
sg74
(lp725
S':'
asbag67
(g88
g69
NtRp726
(dp727
g72
(dp728
sg81
g714
sg74
(lp729
g67
(g68
g69
NtRp730
(dp731
g72
(dp732
g80
I3
ssg81
g726
sg74
(lp733
S''
asbasbasbag67
(g83
g69
NtRp734
(dp735
g72
(dp736
sg81
g650
sg74
(lp737
g67
(g88
g69
NtRp738
(dp739
g72
(dp740
g92
g93
ssg81
g734
sg74
(lp741
g366
asbag67
(g88
g69
NtRp742
(dp743
g72
(dp744
g99
g100
ssg81
g734
sg74
(lp745
S':'
asbag67
(g88
g69
NtRp746
(dp747
g72
(dp748
sg81
g734
sg74
(lp749
g67
(g68
g69
NtRp750
(dp751
g72
(dp752
g80
I3
ssg81
g746
sg74
(lp753
S''
asbasbasbag67
(g83
g69
NtRp754
(dp755
g72
(dp756
sg81
g650
sg74
(lp757
g67
(g88
g69
NtRp758
(dp759
g72
(dp760
g92
g93
ssg81
g754
sg74
(lp761
g387
asbag67
(g88
g69
NtRp762
(dp763
g72
(dp764
g99
g100
ssg81
g754
sg74
(lp765
S':'
asbag67
(g88
g69
NtRp766
(dp767
g72
(dp768
sg81
g754
sg74
(lp769
g67
(g68
g69
NtRp770
(dp771
g72
(dp772
g80
I3
ssg81
g766
sg74
(lp773
S''
asbasbasbag67
(g83
g69
NtRp774
(dp775
g72
(dp776
sg81
g650
sg74
(lp777
g67
(g88
g69
NtRp778
(dp779
g72
(dp780
g92
g93
ssg81
g774
sg74
(lp781
g408
asbag67
(g88
g69
NtRp782
(dp783
g72
(dp784
g99
g100
ssg81
g774
sg74
(lp785
S':'
asbag67
(g88
g69
NtRp786
(dp787
g72
(dp788
sg81
g774
sg74
(lp789
g67
(g68
g69
NtRp790
(dp791
g72
(dp792
g80
I3
ssg81
g786
sg74
(lp793
S''
asbasbasbag67
(g83
g69
NtRp794
(dp795
g72
(dp796
sg81
g650
sg74
(lp797
g67
(g88
g69
NtRp798
(dp799
g72
(dp800
g92
g93
ssg81
g794
sg74
(lp801
g429
asbag67
(g88
g69
NtRp802
(dp803
g72
(dp804
g99
g100
ssg81
g794
sg74
(lp805
S':'
asbag67
(g88
g69
NtRp806
(dp807
g72
(dp808
sg81
g794
sg74
(lp809
g67
(g68
g69
NtRp810
(dp811
g72
(dp812
g80
I3
ssg81
g806
sg74
(lp813
S''
asbasbasbasbasbasbasbag67
(g83
g69
NtRp814
(dp815
g72
(dp816
sg81
g244
sg74
(lp817
g67
(g88
g69
NtRp818
(dp819
g72
(dp820
g92
g93
ssg81
g814
sg74
(lp821
S'session_id_gpibhws'
p822
asbag67
(g88
g69
NtRp823
(dp824
g72
(dp825
g99
g100
ssg81
g814
sg74
(lp826
S':'
asbag67
(g88
g69
NtRp827
(dp828
g72
(dp829
sg81
g814
sg74
(lp830
g67
(g68
g69
NtRp831
(dp832
g72
(dp833
g80
I4
ssg81
g827
sg74
(lp834
S'127.0.0.1-6f11aa51-d759-4ec6-a0c2-b8d4140bb744'
p835
ag67
(g76
g69
NtRp836
(dp837
g72
(dp838
g80
I3
ssg81
Nsg74
(lp839
g67
(g83
g69
NtRp840
(dp841
g72
(dp842
sg81
g836
sg74
(lp843
g67
(g88
g69
NtRp844
(dp845
g72
(dp846
g92
g93
ssg81
g840
sg74
(lp847
g282
asbag67
(g88
g69
NtRp848
(dp849
g72
(dp850
g99
g100
ssg81
g840
sg74
(lp851
S':'
asbag67
(g88
g69
NtRp852
(dp853
g72
(dp854
sg81
g840
sg74
(lp855
g67
(g68
g69
NtRp856
(dp857
g72
(dp858
g80
I3
ssg81
g852
sg74
(lp859
S''
asbasbasbag67
(g83
g69
NtRp860
(dp861
g72
(dp862
sg81
g836
sg74
(lp863
g67
(g88
g69
NtRp864
(dp865
g72
(dp866
g92
g93
ssg81
g860
sg74
(lp867
g303
asbag67
(g88
g69
NtRp868
(dp869
g72
(dp870
g99
g100
ssg81
g860
sg74
(lp871
S':'
asbag67
(g88
g69
NtRp872
(dp873
g72
(dp874
sg81
g860
sg74
(lp875
g67
(g68
g69
NtRp876
(dp877
g72
(dp878
g80
I3
ssg81
g872
sg74
(lp879
S''
asbasbasbag67
(g83
g69
NtRp880
(dp881
g72
(dp882
sg81
g836
sg74
(lp883
g67
(g88
g69
NtRp884
(dp885
g72
(dp886
g92
g93
ssg81
g880
sg74
(lp887
g324
asbag67
(g88
g69
NtRp888
(dp889
g72
(dp890
g99
g100
ssg81
g880
sg74
(lp891
S':'
asbag67
(g88
g69
NtRp892
(dp893
g72
(dp894
sg81
g880
sg74
(lp895
g67
(g68
g69
NtRp896
(dp897
g72
(dp898
g80
I3
ssg81
g892
sg74
(lp899
S''
asbasbasbag67
(g83
g69
NtRp900
(dp901
g72
(dp902
sg81
g836
sg74
(lp903
g67
(g88
g69
NtRp904
(dp905
g72
(dp906
g92
g93
ssg81
g900
sg74
(lp907
g345
asbag67
(g88
g69
NtRp908
(dp909
g72
(dp910
g99
g100
ssg81
g900
sg74
(lp911
S':'
asbag67
(g88
g69
NtRp912
(dp913
g72
(dp914
sg81
g900
sg74
(lp915
g67
(g68
g69
NtRp916
(dp917
g72
(dp918
g80
I3
ssg81
g912
sg74
(lp919
S''
asbasbasbag67
(g83
g69
NtRp920
(dp921
g72
(dp922
sg81
g836
sg74
(lp923
g67
(g88
g69
NtRp924
(dp925
g72
(dp926
g92
g93
ssg81
g920
sg74
(lp927
g366
asbag67
(g88
g69
NtRp928
(dp929
g72
(dp930
g99
g100
ssg81
g920
sg74
(lp931
S':'
asbag67
(g88
g69
NtRp932
(dp933
g72
(dp934
sg81
g920
sg74
(lp935
g67
(g68
g69
NtRp936
(dp937
g72
(dp938
g80
I3
ssg81
g932
sg74
(lp939
S''
asbasbasbag67
(g83
g69
NtRp940
(dp941
g72
(dp942
sg81
g836
sg74
(lp943
g67
(g88
g69
NtRp944
(dp945
g72
(dp946
g92
g93
ssg81
g940
sg74
(lp947
g387
asbag67
(g88
g69
NtRp948
(dp949
g72
(dp950
g99
g100
ssg81
g940
sg74
(lp951
S':'
asbag67
(g88
g69
NtRp952
(dp953
g72
(dp954
sg81
g940
sg74
(lp955
g67
(g68
g69
NtRp956
(dp957
g72
(dp958
g80
I3
ssg81
g952
sg74
(lp959
S''
asbasbasbag67
(g83
g69
NtRp960
(dp961
g72
(dp962
sg81
g836
sg74
(lp963
g67
(g88
g69
NtRp964
(dp965
g72
(dp966
g92
g93
ssg81
g960
sg74
(lp967
g408
asbag67
(g88
g69
NtRp968
(dp969
g72
(dp970
g99
g100
ssg81
g960
sg74
(lp971
S':'
asbag67
(g88
g69
NtRp972
(dp973
g72
(dp974
sg81
g960
sg74
(lp975
g67
(g68
g69
NtRp976
(dp977
g72
(dp978
g80
I3
ssg81
g972
sg74
(lp979
S''
asbasbasbag67
(g83
g69
NtRp980
(dp981
g72
(dp982
sg81
g836
sg74
(lp983
g67
(g88
g69
NtRp984
(dp985
g72
(dp986
g92
g93
ssg81
g980
sg74
(lp987
g429
asbag67
(g88
g69
NtRp988
(dp989
g72
(dp990
g99
g100
ssg81
g980
sg74
(lp991
S':'
asbag67
(g88
g69
NtRp992
(dp993
g72
(dp994
sg81
g980
sg74
(lp995
g67
(g68
g69
NtRp996
(dp997
g72
(dp998
g80
I3
ssg81
g992
sg74
(lp999
S''
asbasbasbasbasbasbasbag67
(g83
g69
NtRp1000
(dp1001
g72
(dp1002
sg81
g244
sg74
(lp1003
g67
(g88
g69
NtRp1004
(dp1005
g72
(dp1006
g92
g93
ssg81
g1000
sg74
(lp1007
S'session_id_gpibtrunk'
p1008
asbag67
(g88
g69
NtRp1009
(dp1010
g72
(dp1011
g99
g100
ssg81
g1000
sg74
(lp1012
S':'
asbag67
(g88
g69
NtRp1013
(dp1014
g72
(dp1015
sg81
g1000
sg74
(lp1016
g67
(g68
g69
NtRp1017
(dp1018
g72
(dp1019
g80
I4
ssg81
g1013
sg74
(lp1020
S'127.0.0.1-33c70933-7db5-4e9b-ab7a-f4656c326e0a'
p1021
ag67
(g76
g69
NtRp1022
(dp1023
g72
(dp1024
g80
I3
ssg81
Nsg74
(lp1025
g67
(g83
g69
NtRp1026
(dp1027
g72
(dp1028
sg81
g1022
sg74
(lp1029
g67
(g88
g69
NtRp1030
(dp1031
g72
(dp1032
g92
g93
ssg81
g1026
sg74
(lp1033
g282
asbag67
(g88
g69
NtRp1034
(dp1035
g72
(dp1036
g99
g100
ssg81
g1026
sg74
(lp1037
S':'
asbag67
(g88
g69
NtRp1038
(dp1039
g72
(dp1040
sg81
g1026
sg74
(lp1041
g67
(g68
g69
NtRp1042
(dp1043
g72
(dp1044
g80
I3
ssg81
g1038
sg74
(lp1045
S''
asbasbasbag67
(g83
g69
NtRp1046
(dp1047
g72
(dp1048
sg81
g1022
sg74
(lp1049
g67
(g88
g69
NtRp1050
(dp1051
g72
(dp1052
g92
g93
ssg81
g1046
sg74
(lp1053
g303
asbag67
(g88
g69
NtRp1054
(dp1055
g72
(dp1056
g99
g100
ssg81
g1046
sg74
(lp1057
S':'
asbag67
(g88
g69
NtRp1058
(dp1059
g72
(dp1060
sg81
g1046
sg74
(lp1061
g67
(g68
g69
NtRp1062
(dp1063
g72
(dp1064
g80
I3
ssg81
g1058
sg74
(lp1065
S''
asbasbasbag67
(g83
g69
NtRp1066
(dp1067
g72
(dp1068
sg81
g1022
sg74
(lp1069
g67
(g88
g69
NtRp1070
(dp1071
g72
(dp1072
g92
g93
ssg81
g1066
sg74
(lp1073
g324
asbag67
(g88
g69
NtRp1074
(dp1075
g72
(dp1076
g99
g100
ssg81
g1066
sg74
(lp1077
S':'
asbag67
(g88
g69
NtRp1078
(dp1079
g72
(dp1080
sg81
g1066
sg74
(lp1081
g67
(g68
g69
NtRp1082
(dp1083
g72
(dp1084
g80
I3
ssg81
g1078
sg74
(lp1085
S''
asbasbasbag67
(g83
g69
NtRp1086
(dp1087
g72
(dp1088
sg81
g1022
sg74
(lp1089
g67
(g88
g69
NtRp1090
(dp1091
g72
(dp1092
g92
g93
ssg81
g1086
sg74
(lp1093
g345
asbag67
(g88
g69
NtRp1094
(dp1095
g72
(dp1096
g99
g100
ssg81
g1086
sg74
(lp1097
S':'
asbag67
(g88
g69
NtRp1098
(dp1099
g72
(dp1100
sg81
g1086
sg74
(lp1101
g67
(g68
g69
NtRp1102
(dp1103
g72
(dp1104
g80
I3
ssg81
g1098
sg74
(lp1105
S''
asbasbasbag67
(g83
g69
NtRp1106
(dp1107
g72
(dp1108
sg81
g1022
sg74
(lp1109
g67
(g88
g69
NtRp1110
(dp1111
g72
(dp1112
g92
g93
ssg81
g1106
sg74
(lp1113
g366
asbag67
(g88
g69
NtRp1114
(dp1115
g72
(dp1116
g99
g100
ssg81
g1106
sg74
(lp1117
S':'
asbag67
(g88
g69
NtRp1118
(dp1119
g72
(dp1120
sg81
g1106
sg74
(lp1121
g67
(g68
g69
NtRp1122
(dp1123
g72
(dp1124
g80
I3
ssg81
g1118
sg74
(lp1125
S''
asbasbasbag67
(g83
g69
NtRp1126
(dp1127
g72
(dp1128
sg81
g1022
sg74
(lp1129
g67
(g88
g69
NtRp1130
(dp1131
g72
(dp1132
g92
g93
ssg81
g1126
sg74
(lp1133
g387
asbag67
(g88
g69
NtRp1134
(dp1135
g72
(dp1136
g99
g100
ssg81
g1126
sg74
(lp1137
S':'
asbag67
(g88
g69
NtRp1138
(dp1139
g72
(dp1140
sg81
g1126
sg74
(lp1141
g67
(g68
g69
NtRp1142
(dp1143
g72
(dp1144
g80
I3
ssg81
g1138
sg74
(lp1145
S''
asbasbasbag67
(g83
g69
NtRp1146
(dp1147
g72
(dp1148
sg81
g1022
sg74
(lp1149
g67
(g88
g69
NtRp1150
(dp1151
g72
(dp1152
g92
g93
ssg81
g1146
sg74
(lp1153
g408
asbag67
(g88
g69
NtRp1154
(dp1155
g72
(dp1156
g99
g100
ssg81
g1146
sg74
(lp1157
S':'
asbag67
(g88
g69
NtRp1158
(dp1159
g72
(dp1160
sg81
g1146
sg74
(lp1161
g67
(g68
g69
NtRp1162
(dp1163
g72
(dp1164
g80
I3
ssg81
g1158
sg74
(lp1165
S''
asbasbasbag67
(g83
g69
NtRp1166
(dp1167
g72
(dp1168
sg81
g1022
sg74
(lp1169
g67
(g88
g69
NtRp1170
(dp1171
g72
(dp1172
g92
g93
ssg81
g1166
sg74
(lp1173
g429
asbag67
(g88
g69
NtRp1174
(dp1175
g72
(dp1176
g99
g100
ssg81
g1166
sg74
(lp1177
S':'
asbag67
(g88
g69
NtRp1178
(dp1179
g72
(dp1180
sg81
g1166
sg74
(lp1181
g67
(g68
g69
NtRp1182
(dp1183
g72
(dp1184
g80
I3
ssg81
g1178
sg74
(lp1185
S''
asbasbasbasbasbasbasbag67
(g83
g69
NtRp1186
(dp1187
g72
(dp1188
sg81
g244
sg74
(lp1189
g67
(g88
g69
NtRp1190
(dp1191
g72
(dp1192
g92
g93
ssg81
g1186
sg74
(lp1193
S'session_id_hwsgpib'
p1194
asbag67
(g88
g69
NtRp1195
(dp1196
g72
(dp1197
g99
g100
ssg81
g1186
sg74
(lp1198
S':'
asbag67
(g88
g69
NtRp1199
(dp1200
g72
(dp1201
sg81
g1186
sg74
(lp1202
g67
(g68
g69
NtRp1203
(dp1204
g72
(dp1205
g80
I4
ssg81
g1199
sg74
(lp1206
S'127.0.0.1-afa8ab56-4fed-4264-a529-a1ab8333277d'
p1207
ag67
(g76
g69
NtRp1208
(dp1209
g72
(dp1210
g80
I3
ssg81
Nsg74
(lp1211
g67
(g83
g69
NtRp1212
(dp1213
g72
(dp1214
sg81
g1208
sg74
(lp1215
g67
(g88
g69
NtRp1216
(dp1217
g72
(dp1218
g92
g93
ssg81
g1212
sg74
(lp1219
g282
asbag67
(g88
g69
NtRp1220
(dp1221
g72
(dp1222
g99
g100
ssg81
g1212
sg74
(lp1223
S':'
asbag67
(g88
g69
NtRp1224
(dp1225
g72
(dp1226
sg81
g1212
sg74
(lp1227
g67
(g68
g69
NtRp1228
(dp1229
g72
(dp1230
g80
I3
ssg81
g1224
sg74
(lp1231
S''
asbasbasbag67
(g83
g69
NtRp1232
(dp1233
g72
(dp1234
sg81
g1208
sg74
(lp1235
g67
(g88
g69
NtRp1236
(dp1237
g72
(dp1238
g92
g93
ssg81
g1232
sg74
(lp1239
g303
asbag67
(g88
g69
NtRp1240
(dp1241
g72
(dp1242
g99
g100
ssg81
g1232
sg74
(lp1243
S':'
asbag67
(g88
g69
NtRp1244
(dp1245
g72
(dp1246
sg81
g1232
sg74
(lp1247
g67
(g68
g69
NtRp1248
(dp1249
g72
(dp1250
g80
I3
ssg81
g1244
sg74
(lp1251
S''
asbasbasbag67
(g83
g69
NtRp1252
(dp1253
g72
(dp1254
sg81
g1208
sg74
(lp1255
g67
(g88
g69
NtRp1256
(dp1257
g72
(dp1258
g92
g93
ssg81
g1252
sg74
(lp1259
g324
asbag67
(g88
g69
NtRp1260
(dp1261
g72
(dp1262
g99
g100
ssg81
g1252
sg74
(lp1263
S':'
asbag67
(g88
g69
NtRp1264
(dp1265
g72
(dp1266
sg81
g1252
sg74
(lp1267
g67
(g68
g69
NtRp1268
(dp1269
g72
(dp1270
g80
I3
ssg81
g1264
sg74
(lp1271
S''
asbasbasbag67
(g83
g69
NtRp1272
(dp1273
g72
(dp1274
sg81
g1208
sg74
(lp1275
g67
(g88
g69
NtRp1276
(dp1277
g72
(dp1278
g92
g93
ssg81
g1272
sg74
(lp1279
g345
asbag67
(g88
g69
NtRp1280
(dp1281
g72
(dp1282
g99
g100
ssg81
g1272
sg74
(lp1283
S':'
asbag67
(g88
g69
NtRp1284
(dp1285
g72
(dp1286
sg81
g1272
sg74
(lp1287
g67
(g68
g69
NtRp1288
(dp1289
g72
(dp1290
g80
I3
ssg81
g1284
sg74
(lp1291
S''
asbasbasbag67
(g83
g69
NtRp1292
(dp1293
g72
(dp1294
sg81
g1208
sg74
(lp1295
g67
(g88
g69
NtRp1296
(dp1297
g72
(dp1298
g92
g93
ssg81
g1292
sg74
(lp1299
g366
asbag67
(g88
g69
NtRp1300
(dp1301
g72
(dp1302
g99
g100
ssg81
g1292
sg74
(lp1303
S':'
asbag67
(g88
g69
NtRp1304
(dp1305
g72
(dp1306
sg81
g1292
sg74
(lp1307
g67
(g68
g69
NtRp1308
(dp1309
g72
(dp1310
g80
I3
ssg81
g1304
sg74
(lp1311
S''
asbasbasbag67
(g83
g69
NtRp1312
(dp1313
g72
(dp1314
sg81
g1208
sg74
(lp1315
g67
(g88
g69
NtRp1316
(dp1317
g72
(dp1318
g92
g93
ssg81
g1312
sg74
(lp1319
g387
asbag67
(g88
g69
NtRp1320
(dp1321
g72
(dp1322
g99
g100
ssg81
g1312
sg74
(lp1323
S':'
asbag67
(g88
g69
NtRp1324
(dp1325
g72
(dp1326
sg81
g1312
sg74
(lp1327
g67
(g68
g69
NtRp1328
(dp1329
g72
(dp1330
g80
I3
ssg81
g1324
sg74
(lp1331
S''
asbasbasbag67
(g83
g69
NtRp1332
(dp1333
g72
(dp1334
sg81
g1208
sg74
(lp1335
g67
(g88
g69
NtRp1336
(dp1337
g72
(dp1338
g92
g93
ssg81
g1332
sg74
(lp1339
g408
asbag67
(g88
g69
NtRp1340
(dp1341
g72
(dp1342
g99
g100
ssg81
g1332
sg74
(lp1343
S':'
asbag67
(g88
g69
NtRp1344
(dp1345
g72
(dp1346
sg81
g1332
sg74
(lp1347
g67
(g68
g69
NtRp1348
(dp1349
g72
(dp1350
g80
I3
ssg81
g1344
sg74
(lp1351
S''
asbasbasbag67
(g83
g69
NtRp1352
(dp1353
g72
(dp1354
sg81
g1208
sg74
(lp1355
g67
(g88
g69
NtRp1356
(dp1357
g72
(dp1358
g92
g93
ssg81
g1352
sg74
(lp1359
g429
asbag67
(g88
g69
NtRp1360
(dp1361
g72
(dp1362
g99
g100
ssg81
g1352
sg74
(lp1363
S':'
asbag67
(g88
g69
NtRp1364
(dp1365
g72
(dp1366
sg81
g1352
sg74
(lp1367
g67
(g68
g69
NtRp1368
(dp1369
g72
(dp1370
g80
I3
ssg81
g1364
sg74
(lp1371
S''
asbasbasbasbasbasbasbag67
(g83
g69
NtRp1372
(dp1373
g72
(dp1374
sg81
g244
sg74
(lp1375
g67
(g88
g69
NtRp1376
(dp1377
g72
(dp1378
g92
g93
ssg81
g1372
sg74
(lp1379
S'session_id_welcome'
p1380
asbag67
(g88
g69
NtRp1381
(dp1382
g72
(dp1383
g99
g100
ssg81
g1372
sg74
(lp1384
S':'
asbag67
(g88
g69
NtRp1385
(dp1386
g72
(dp1387
sg81
g1372
sg74
(lp1388
g67
(g68
g69
NtRp1389
(dp1390
g72
(dp1391
g80
I4
ssg81
g1385
sg74
(lp1392
S'127.0.0.1-5bd988bf-ef0d-4236-8631-f2014dc6917d'
p1393
ag67
(g76
g69
NtRp1394
(dp1395
g72
(dp1396
g80
I3
ssg81
Nsg74
(lp1397
g67
(g83
g69
NtRp1398
(dp1399
g72
(dp1400
sg81
g1394
sg74
(lp1401
g67
(g88
g69
NtRp1402
(dp1403
g72
(dp1404
g92
g93
ssg81
g1398
sg74
(lp1405
g282
asbag67
(g88
g69
NtRp1406
(dp1407
g72
(dp1408
g99
g100
ssg81
g1398
sg74
(lp1409
S':'
asbag67
(g88
g69
NtRp1410
(dp1411
g72
(dp1412
sg81
g1398
sg74
(lp1413
g67
(g68
g69
NtRp1414
(dp1415
g72
(dp1416
g80
I3
ssg81
g1410
sg74
(lp1417
S''
asbasbasbag67
(g83
g69
NtRp1418
(dp1419
g72
(dp1420
sg81
g1394
sg74
(lp1421
g67
(g88
g69
NtRp1422
(dp1423
g72
(dp1424
g92
g93
ssg81
g1418
sg74
(lp1425
g303
asbag67
(g88
g69
NtRp1426
(dp1427
g72
(dp1428
g99
g100
ssg81
g1418
sg74
(lp1429
S':'
asbag67
(g88
g69
NtRp1430
(dp1431
g72
(dp1432
sg81
g1418
sg74
(lp1433
g67
(g68
g69
NtRp1434
(dp1435
g72
(dp1436
g80
I3
ssg81
g1430
sg74
(lp1437
S''
asbasbasbag67
(g83
g69
NtRp1438
(dp1439
g72
(dp1440
sg81
g1394
sg74
(lp1441
g67
(g88
g69
NtRp1442
(dp1443
g72
(dp1444
g92
g93
ssg81
g1438
sg74
(lp1445
g324
asbag67
(g88
g69
NtRp1446
(dp1447
g72
(dp1448
g99
g100
ssg81
g1438
sg74
(lp1449
S':'
asbag67
(g88
g69
NtRp1450
(dp1451
g72
(dp1452
sg81
g1438
sg74
(lp1453
g67
(g68
g69
NtRp1454
(dp1455
g72
(dp1456
g80
I3
ssg81
g1450
sg74
(lp1457
S''
asbasbasbag67
(g83
g69
NtRp1458
(dp1459
g72
(dp1460
sg81
g1394
sg74
(lp1461
g67
(g88
g69
NtRp1462
(dp1463
g72
(dp1464
g92
g93
ssg81
g1458
sg74
(lp1465
g345
asbag67
(g88
g69
NtRp1466
(dp1467
g72
(dp1468
g99
g100
ssg81
g1458
sg74
(lp1469
S':'
asbag67
(g88
g69
NtRp1470
(dp1471
g72
(dp1472
sg81
g1458
sg74
(lp1473
g67
(g68
g69
NtRp1474
(dp1475
g72
(dp1476
g80
I3
ssg81
g1470
sg74
(lp1477
S''
asbasbasbag67
(g83
g69
NtRp1478
(dp1479
g72
(dp1480
sg81
g1394
sg74
(lp1481
g67
(g88
g69
NtRp1482
(dp1483
g72
(dp1484
g92
g93
ssg81
g1478
sg74
(lp1485
g366
asbag67
(g88
g69
NtRp1486
(dp1487
g72
(dp1488
g99
g100
ssg81
g1478
sg74
(lp1489
S':'
asbag67
(g88
g69
NtRp1490
(dp1491
g72
(dp1492
sg81
g1478
sg74
(lp1493
g67
(g68
g69
NtRp1494
(dp1495
g72
(dp1496
g80
I3
ssg81
g1490
sg74
(lp1497
S''
asbasbasbag67
(g83
g69
NtRp1498
(dp1499
g72
(dp1500
sg81
g1394
sg74
(lp1501
g67
(g88
g69
NtRp1502
(dp1503
g72
(dp1504
g92
g93
ssg81
g1498
sg74
(lp1505
g387
asbag67
(g88
g69
NtRp1506
(dp1507
g72
(dp1508
g99
g100
ssg81
g1498
sg74
(lp1509
S':'
asbag67
(g88
g69
NtRp1510
(dp1511
g72
(dp1512
sg81
g1498
sg74
(lp1513
g67
(g68
g69
NtRp1514
(dp1515
g72
(dp1516
g80
I3
ssg81
g1510
sg74
(lp1517
S''
asbasbasbag67
(g83
g69
NtRp1518
(dp1519
g72
(dp1520
sg81
g1394
sg74
(lp1521
g67
(g88
g69
NtRp1522
(dp1523
g72
(dp1524
g92
g93
ssg81
g1518
sg74
(lp1525
g408
asbag67
(g88
g69
NtRp1526
(dp1527
g72
(dp1528
g99
g100
ssg81
g1518
sg74
(lp1529
S':'
asbag67
(g88
g69
NtRp1530
(dp1531
g72
(dp1532
sg81
g1518
sg74
(lp1533
g67
(g68
g69
NtRp1534
(dp1535
g72
(dp1536
g80
I3
ssg81
g1530
sg74
(lp1537
S''
asbasbasbag67
(g83
g69
NtRp1538
(dp1539
g72
(dp1540
sg81
g1394
sg74
(lp1541
g67
(g88
g69
NtRp1542
(dp1543
g72
(dp1544
g92
g93
ssg81
g1538
sg74
(lp1545
g429
asbag67
(g88
g69
NtRp1546
(dp1547
g72
(dp1548
g99
g100
ssg81
g1538
sg74
(lp1549
S':'
asbag67
(g88
g69
NtRp1550
(dp1551
g72
(dp1552
sg81
g1538
sg74
(lp1553
g67
(g68
g69
NtRp1554
(dp1555
g72
(dp1556
g80
I3
ssg81
g1550
sg74
(lp1557
S''
asbasbasbasbasbasbasbasbasbasbasbag67
(g83
g69
NtRp1558
(dp1559
g72
(dp1560
sg81
g77
sg74
(lp1561
g67
(g88
g69
NtRp1562
(dp1563
g72
(dp1564
g92
g93
ssg81
g1558
sg74
(lp1565
S'env'
p1566
asbag67
(g88
g69
NtRp1567
(dp1568
g72
(dp1569
g99
g100
ssg81
g1558
sg74
(lp1570
S':'
asbag67
(g88
g69
NtRp1571
(dp1572
g72
(dp1573
sg81
g1558
sg74
(lp1574
g67
(g68
g69
NtRp1575
(dp1576
g72
(dp1577
g80
I5
ssg81
g1571
sg74
(lp1578
g67
(g76
g69
NtRp1579
(dp1580
g72
(dp1581
g80
I4
ssg81
Nsg74
(lp1582
g67
(g83
g69
NtRp1583
(dp1584
g72
(dp1585
sg81
g1579
sg74
(lp1586
g67
(g88
g69
NtRp1587
(dp1588
g72
(dp1589
g92
g93
ssg81
g1583
sg74
(lp1590
S'app_folders'
p1591
asbag67
(g88
g69
NtRp1592
(dp1593
g72
(dp1594
g99
g100
ssg81
g1583
sg74
(lp1595
S':'
asbag67
(g88
g69
NtRp1596
(dp1597
g72
(dp1598
sg81
g1583
sg74
(lp1599
g67
(g68
g69
NtRp1600
(dp1601
g72
(dp1602
g80
I4
ssg81
g1596
sg74
(lp1603
S"set(['/web2pyTrunk/applications/GPIBHWS/', '/web2pyTrunk/applications/HWSGPIB/', '/web2pyTrunk/applications/welcome/', '/web2pyTrunk/applications/admin/', '/web2pyTrunk/applications/GPIBFinal/'])"
p1604
asbasbasbag67
(g83
g69
NtRp1605
(dp1606
g72
(dp1607
sg81
g1579
sg74
(lp1608
g67
(g88
g69
NtRp1609
(dp1610
g72
(dp1611
g92
g93
ssg81
g1605
sg74
(lp1612
S'applications_parent'
p1613
asbag67
(g88
g69
NtRp1614
(dp1615
g72
(dp1616
g99
g100
ssg81
g1605
sg74
(lp1617
S':'
asbag67
(g88
g69
NtRp1618
(dp1619
g72
(dp1620
sg81
g1605
sg74
(lp1621
g67
(g68
g69
NtRp1622
(dp1623
g72
(dp1624
g80
I4
ssg81
g1618
sg74
(lp1625
S'/web2pyTrunk'
p1626
asbasbasbag67
(g83
g69
NtRp1627
(dp1628
g72
(dp1629
sg81
g1579
sg74
(lp1630
g67
(g88
g69
NtRp1631
(dp1632
g72
(dp1633
g92
g93
ssg81
g1627
sg74
(lp1634
S'cmd_args'
p1635
asbag67
(g88
g69
NtRp1636
(dp1637
g72
(dp1638
g99
g100
ssg81
g1627
sg74
(lp1639
S':'
asbag67
(g88
g69
NtRp1640
(dp1641
g72
(dp1642
sg81
g1627
sg74
(lp1643
g67
(g68
g69
NtRp1644
(dp1645
g72
(dp1646
g80
I4
ssg81
g1640
sg74
(lp1647
g67
(g76
g69
NtRp1648
(dp1649
g72
(dp1650
g80
I3
ssg81
Nsg74
(lp1651
sbasbasbasbag67
(g83
g69
NtRp1652
(dp1653
g72
(dp1654
sg81
g1579
sg74
(lp1655
g67
(g88
g69
NtRp1656
(dp1657
g72
(dp1658
g92
g93
ssg81
g1652
sg74
(lp1659
S'cmd_options'
p1660
asbag67
(g88
g69
NtRp1661
(dp1662
g72
(dp1663
g99
g100
ssg81
g1652
sg74
(lp1664
S':'
asbag67
(g88
g69
NtRp1665
(dp1666
g72
(dp1667
sg81
g1652
sg74
(lp1668
g67
(g68
g69
NtRp1669
(dp1670
g72
(dp1671
g80
I4
ssg81
g1665
sg74
(lp1672
S"<Values at 0x18c4990: {'verbose': False, 'ip': '127.0.0.1', 'shutdown_timeout': 5, 'taskbar': False, 'nocron': False, 'pid_filename': 'httpserver.pid', 'maxthreads': None, 'softcron': False, 'server_name': 'frost.gravity.hws.edu', 'bpython': False, 'nogui': False, 'port': 8000, 'extcron': False, 'run_system_tests': False, 'test': None, 'folder': '/web2pyTrunk', 'config': '', 'import_models': False, 'winservice': '', 'shell': None, 'run': '', 'log_filename': 'httpserver.log', 'debuglevel': 30, 'args': [''], 'socket_timeout': 5, 'ssl_ca_certificate': None, 'scheduler': None, 'profiler_filename': None, 'ssl_private_key': '', 'password': '<ask>', 'request_queue_size': 5, 'ssl_certificate': '', 'cronjob': False, 'numthreads': None, 'quiet': False, 'interfaces': None, 'minthreads': None, 'timeout': 10, 'plain': False, 'nobanner': False}>"
p1673
asbasbasbag67
(g83
g69
NtRp1674
(dp1675
g72
(dp1676
sg81
g1579
sg74
(lp1677
g67
(g88
g69
NtRp1678
(dp1679
g72
(dp1680
g92
g93
ssg81
g1674
sg74
(lp1681
S'content_length'
p1682
asbag67
(g88
g69
NtRp1683
(dp1684
g72
(dp1685
g99
g100
ssg81
g1674
sg74
(lp1686
S':'
asbag67
(g88
g69
NtRp1687
(dp1688
g72
(dp1689
sg81
g1674
sg74
(lp1690
g67
(g68
g69
NtRp1691
(dp1692
g72
(dp1693
g80
I4
ssg81
g1687
sg74
(lp1694
S'1201'
p1695
asbasbasbag67
(g83
g69
NtRp1696
(dp1697
g72
(dp1698
sg81
g1579
sg74
(lp1699
g67
(g88
g69
NtRp1700
(dp1701
g72
(dp1702
g92
g93
ssg81
g1696
sg74
(lp1703
S'content_type'
p1704
asbag67
(g88
g69
NtRp1705
(dp1706
g72
(dp1707
g99
g100
ssg81
g1696
sg74
(lp1708
S':'
asbag67
(g88
g69
NtRp1709
(dp1710
g72
(dp1711
sg81
g1696
sg74
(lp1712
g67
(g68
g69
NtRp1713
(dp1714
g72
(dp1715
g80
I4
ssg81
g1709
sg74
(lp1716
S'multipart/form-data; boundary=----WebKitFormBoundarykGLOfdIaSqOMZjbc'
p1717
asbasbasbag67
(g83
g69
NtRp1718
(dp1719
g72
(dp1720
sg81
g1579
sg74
(lp1721
g67
(g88
g69
NtRp1722
(dp1723
g72
(dp1724
g92
g93
ssg81
g1718
sg74
(lp1725
S'db_sessions'
p1726
asbag67
(g88
g69
NtRp1727
(dp1728
g72
(dp1729
g99
g100
ssg81
g1718
sg74
(lp1730
S':'
asbag67
(g88
g69
NtRp1731
(dp1732
g72
(dp1733
sg81
g1718
sg74
(lp1734
g67
(g68
g69
NtRp1735
(dp1736
g72
(dp1737
g80
I4
ssg81
g1731
sg74
(lp1738
S'set([])'
p1739
asbasbasbag67
(g83
g69
NtRp1740
(dp1741
g72
(dp1742
sg81
g1579
sg74
(lp1743
g67
(g88
g69
NtRp1744
(dp1745
g72
(dp1746
g92
g93
ssg81
g1740
sg74
(lp1747
S'debugging'
p1748
asbag67
(g88
g69
NtRp1749
(dp1750
g72
(dp1751
g99
g100
ssg81
g1740
sg74
(lp1752
S':'
asbag67
(g88
g69
NtRp1753
(dp1754
g72
(dp1755
sg81
g1740
sg74
(lp1756
g67
(g68
g69
NtRp1757
(dp1758
g72
(dp1759
g80
I4
ssg81
g1753
sg74
(lp1760
g110
asbasbasbag67
(g83
g69
NtRp1761
(dp1762
g72
(dp1763
sg81
g1579
sg74
(lp1764
g67
(g88
g69
NtRp1765
(dp1766
g72
(dp1767
g92
g93
ssg81
g1761
sg74
(lp1768
S'gluon_parent'
p1769
asbag67
(g88
g69
NtRp1770
(dp1771
g72
(dp1772
g99
g100
ssg81
g1761
sg74
(lp1773
S':'
asbag67
(g88
g69
NtRp1774
(dp1775
g72
(dp1776
sg81
g1761
sg74
(lp1777
g67
(g68
g69
NtRp1778
(dp1779
g72
(dp1780
g80
I4
ssg81
g1774
sg74
(lp1781
S'/web2pyTrunk'
p1782
asbasbasbag67
(g83
g69
NtRp1783
(dp1784
g72
(dp1785
sg81
g1579
sg74
(lp1786
g67
(g88
g69
NtRp1787
(dp1788
g72
(dp1789
g92
g93
ssg81
g1783
sg74
(lp1790
S'http_accept'
p1791
asbag67
(g88
g69
NtRp1792
(dp1793
g72
(dp1794
g99
g100
ssg81
g1783
sg74
(lp1795
S':'
asbag67
(g88
g69
NtRp1796
(dp1797
g72
(dp1798
sg81
g1783
sg74
(lp1799
g67
(g68
g69
NtRp1800
(dp1801
g72
(dp1802
g80
I4
ssg81
g1796
sg74
(lp1803
S'text/html,application/xhtml+xml,application/xml;q=0.9,*/*;q=0.8'
p1804
asbasbasbag67
(g83
g69
NtRp1805
(dp1806
g72
(dp1807
sg81
g1579
sg74
(lp1808
g67
(g88
g69
NtRp1809
(dp1810
g72
(dp1811
g92
g93
ssg81
g1805
sg74
(lp1812
S'http_accept_charset'
p1813
asbag67
(g88
g69
NtRp1814
(dp1815
g72
(dp1816
g99
g100
ssg81
g1805
sg74
(lp1817
S':'
asbag67
(g88
g69
NtRp1818
(dp1819
g72
(dp1820
sg81
g1805
sg74
(lp1821
g67
(g68
g69
NtRp1822
(dp1823
g72
(dp1824
g80
I4
ssg81
g1818
sg74
(lp1825
S'ISO-8859-1,utf-8;q=0.7,*;q=0.3'
p1826
asbasbasbag67
(g83
g69
NtRp1827
(dp1828
g72
(dp1829
sg81
g1579
sg74
(lp1830
g67
(g88
g69
NtRp1831
(dp1832
g72
(dp1833
g92
g93
ssg81
g1827
sg74
(lp1834
S'http_accept_encoding'
p1835
asbag67
(g88
g69
NtRp1836
(dp1837
g72
(dp1838
g99
g100
ssg81
g1827
sg74
(lp1839
S':'
asbag67
(g88
g69
NtRp1840
(dp1841
g72
(dp1842
sg81
g1827
sg74
(lp1843
g67
(g68
g69
NtRp1844
(dp1845
g72
(dp1846
g80
I4
ssg81
g1840
sg74
(lp1847
S'gzip,deflate,sdch'
p1848
asbasbasbag67
(g83
g69
NtRp1849
(dp1850
g72
(dp1851
sg81
g1579
sg74
(lp1852
g67
(g88
g69
NtRp1853
(dp1854
g72
(dp1855
g92
g93
ssg81
g1849
sg74
(lp1856
S'http_accept_language'
p1857
asbag67
(g88
g69
NtRp1858
(dp1859
g72
(dp1860
g99
g100
ssg81
g1849
sg74
(lp1861
S':'
asbag67
(g88
g69
NtRp1862
(dp1863
g72
(dp1864
sg81
g1849
sg74
(lp1865
g67
(g68
g69
NtRp1866
(dp1867
g72
(dp1868
g80
I4
ssg81
g1862
sg74
(lp1869
S'en-US,en;q=0.8'
p1870
asbasbasbag67
(g83
g69
NtRp1871
(dp1872
g72
(dp1873
sg81
g1579
sg74
(lp1874
g67
(g88
g69
NtRp1875
(dp1876
g72
(dp1877
g92
g93
ssg81
g1871
sg74
(lp1878
S'http_cache_control'
p1879
asbag67
(g88
g69
NtRp1880
(dp1881
g72
(dp1882
g99
g100
ssg81
g1871
sg74
(lp1883
S':'
asbag67
(g88
g69
NtRp1884
(dp1885
g72
(dp1886
sg81
g1871
sg74
(lp1887
g67
(g68
g69
NtRp1888
(dp1889
g72
(dp1890
g80
I4
ssg81
g1884
sg74
(lp1891
S'max-age=0'
p1892
asbasbasbag67
(g83
g69
NtRp1893
(dp1894
g72
(dp1895
sg81
g1579
sg74
(lp1896
g67
(g88
g69
NtRp1897
(dp1898
g72
(dp1899
g92
g93
ssg81
g1893
sg74
(lp1900
S'http_connection'
p1901
asbag67
(g88
g69
NtRp1902
(dp1903
g72
(dp1904
g99
g100
ssg81
g1893
sg74
(lp1905
S':'
asbag67
(g88
g69
NtRp1906
(dp1907
g72
(dp1908
sg81
g1893
sg74
(lp1909
g67
(g68
g69
NtRp1910
(dp1911
g72
(dp1912
g80
I4
ssg81
g1906
sg74
(lp1913
S'keep-alive'
p1914
asbasbasbag67
(g83
g69
NtRp1915
(dp1916
g72
(dp1917
sg81
g1579
sg74
(lp1918
g67
(g88
g69
NtRp1919
(dp1920
g72
(dp1921
g92
g93
ssg81
g1915
sg74
(lp1922
S'http_content_length'
p1923
asbag67
(g88
g69
NtRp1924
(dp1925
g72
(dp1926
g99
g100
ssg81
g1915
sg74
(lp1927
S':'
asbag67
(g88
g69
NtRp1928
(dp1929
g72
(dp1930
sg81
g1915
sg74
(lp1931
g67
(g68
g69
NtRp1932
(dp1933
g72
(dp1934
g80
I4
ssg81
g1928
sg74
(lp1935
g1695
asbasbasbag67
(g83
g69
NtRp1936
(dp1937
g72
(dp1938
sg81
g1579
sg74
(lp1939
g67
(g88
g69
NtRp1940
(dp1941
g72
(dp1942
g92
g93
ssg81
g1936
sg74
(lp1943
S'http_content_type'
p1944
asbag67
(g88
g69
NtRp1945
(dp1946
g72
(dp1947
g99
g100
ssg81
g1936
sg74
(lp1948
S':'
asbag67
(g88
g69
NtRp1949
(dp1950
g72
(dp1951
sg81
g1936
sg74
(lp1952
g67
(g68
g69
NtRp1953
(dp1954
g72
(dp1955
g80
I4
ssg81
g1949
sg74
(lp1956
g1717
asbasbasbag67
(g83
g69
NtRp1957
(dp1958
g72
(dp1959
sg81
g1579
sg74
(lp1960
g67
(g88
g69
NtRp1961
(dp1962
g72
(dp1963
g92
g93
ssg81
g1957
sg74
(lp1964
S'http_cookie'
p1965
asbag67
(g88
g69
NtRp1966
(dp1967
g72
(dp1968
g99
g100
ssg81
g1957
sg74
(lp1969
S':'
asbag67
(g88
g69
NtRp1970
(dp1971
g72
(dp1972
sg81
g1957
sg74
(lp1973
g67
(g68
g69
NtRp1974
(dp1975
g72
(dp1976
g80
I4
ssg81
g1970
sg74
(lp1977
S'session_id_gpibtrunk=127.0.0.1-33c70933-7db5-4e9b-ab7a-f4656c326e0a; session_id_gpib3562a=127.0.0.1-d49cba14-6f33-40cd-983c-34bd052e67de; session_id_welcome=127.0.0.1-5bd988bf-ef0d-4236-8631-f2014dc6917d; session_id_gpibfinal=127.0.0.1-b6082bee-e94c-4b95-a41a-f1f299c63111; session_id_hwsgpib=127.0.0.1-afa8ab56-4fed-4264-a529-a1ab8333277d; session_id_admin=127.0.0.1-aa4f76c9-9d67-46ca-a892-d9c6fd0665fe; session_id_gpibhws=127.0.0.1-6f11aa51-d759-4ec6-a0c2-b8d4140bb744'
p1978
asbasbasbag67
(g83
g69
NtRp1979
(dp1980
g72
(dp1981
sg81
g1579
sg74
(lp1982
g67
(g88
g69
NtRp1983
(dp1984
g72
(dp1985
g92
g93
ssg81
g1979
sg74
(lp1986
S'http_host'
p1987
asbag67
(g88
g69
NtRp1988
(dp1989
g72
(dp1990
g99
g100
ssg81
g1979
sg74
(lp1991
S':'
asbag67
(g88
g69
NtRp1992
(dp1993
g72
(dp1994
sg81
g1979
sg74
(lp1995
g67
(g68
g69
NtRp1996
(dp1997
g72
(dp1998
g80
I4
ssg81
g1992
sg74
(lp1999
S'127.0.0.1:8000'
p2000
asbasbasbag67
(g83
g69
NtRp2001
(dp2002
g72
(dp2003
sg81
g1579
sg74
(lp2004
g67
(g88
g69
NtRp2005
(dp2006
g72
(dp2007
g92
g93
ssg81
g2001
sg74
(lp2008
S'http_origin'
p2009
asbag67
(g88
g69
NtRp2010
(dp2011
g72
(dp2012
g99
g100
ssg81
g2001
sg74
(lp2013
S':'
asbag67
(g88
g69
NtRp2014
(dp2015
g72
(dp2016
sg81
g2001
sg74
(lp2017
g67
(g68
g69
NtRp2018
(dp2019
g72
(dp2020
g80
I4
ssg81
g2014
sg74
(lp2021
S'http://127.0.0.1:8000'
p2022
asbasbasbag67
(g83
g69
NtRp2023
(dp2024
g72
(dp2025
sg81
g1579
sg74
(lp2026
g67
(g88
g69
NtRp2027
(dp2028
g72
(dp2029
g92
g93
ssg81
g2023
sg74
(lp2030
S'http_referer'
p2031
asbag67
(g88
g69
NtRp2032
(dp2033
g72
(dp2034
g99
g100
ssg81
g2023
sg74
(lp2035
S':'
asbag67
(g88
g69
NtRp2036
(dp2037
g72
(dp2038
sg81
g2023
sg74
(lp2039
g67
(g68
g69
NtRp2040
(dp2041
g72
(dp2042
g80
I4
ssg81
g2036
sg74
(lp2043
S'http://127.0.0.1:8000/GPIBHWS/default/index'
p2044
asbasbasbag67
(g83
g69
NtRp2045
(dp2046
g72
(dp2047
sg81
g1579
sg74
(lp2048
g67
(g88
g69
NtRp2049
(dp2050
g72
(dp2051
g92
g93
ssg81
g2045
sg74
(lp2052
S'http_user_agent'
p2053
asbag67
(g88
g69
NtRp2054
(dp2055
g72
(dp2056
g99
g100
ssg81
g2045
sg74
(lp2057
S':'
asbag67
(g88
g69
NtRp2058
(dp2059
g72
(dp2060
sg81
g2045
sg74
(lp2061
g67
(g68
g69
NtRp2062
(dp2063
g72
(dp2064
g80
I4
ssg81
g2058
sg74
(lp2065
S'Mozilla/5.0 (Macintosh; Intel Mac OS X 10_6_8) AppleWebKit/536.11 (KHTML, like Gecko) Chrome/20.0.1132.57 Safari/536.11'
p2066
asbasbasbag67
(g83
g69
NtRp2067
(dp2068
g72
(dp2069
sg81
g1579
sg74
(lp2070
g67
(g88
g69
NtRp2071
(dp2072
g72
(dp2073
g92
g93
ssg81
g2067
sg74
(lp2074
S'is_jython'
p2075
asbag67
(g88
g69
NtRp2076
(dp2077
g72
(dp2078
g99
g100
ssg81
g2067
sg74
(lp2079
S':'
asbag67
(g88
g69
NtRp2080
(dp2081
g72
(dp2082
sg81
g2067
sg74
(lp2083
g67
(g68
g69
NtRp2084
(dp2085
g72
(dp2086
g80
I4
ssg81
g2080
sg74
(lp2087
g110
asbasbasbag67
(g83
g69
NtRp2088
(dp2089
g72
(dp2090
sg81
g1579
sg74
(lp2091
g67
(g88
g69
NtRp2092
(dp2093
g72
(dp2094
g92
g93
ssg81
g2088
sg74
(lp2095
S'is_pypy'
p2096
asbag67
(g88
g69
NtRp2097
(dp2098
g72
(dp2099
g99
g100
ssg81
g2088
sg74
(lp2100
S':'
asbag67
(g88
g69
NtRp2101
(dp2102
g72
(dp2103
sg81
g2088
sg74
(lp2104
g67
(g68
g69
NtRp2105
(dp2106
g72
(dp2107
g80
I4
ssg81
g2101
sg74
(lp2108
g110
asbasbasbag67
(g83
g69
NtRp2109
(dp2110
g72
(dp2111
sg81
g1579
sg74
(lp2112
g67
(g88
g69
NtRp2113
(dp2114
g72
(dp2115
g92
g93
ssg81
g2109
sg74
(lp2116
S'path_info'
p2117
asbag67
(g88
g69
NtRp2118
(dp2119
g72
(dp2120
g99
g100
ssg81
g2109
sg74
(lp2121
S':'
asbag67
(g88
g69
NtRp2122
(dp2123
g72
(dp2124
sg81
g2109
sg74
(lp2125
g67
(g68
g69
NtRp2126
(dp2127
g72
(dp2128
g80
I4
ssg81
g2122
sg74
(lp2129
S'/GPIBHWS/default/index'
p2130
asbasbasbag67
(g83
g69
NtRp2131
(dp2132
g72
(dp2133
sg81
g1579
sg74
(lp2134
g67
(g88
g69
NtRp2135
(dp2136
g72
(dp2137
g92
g93
ssg81
g2131
sg74
(lp2138
S'query_string'
p2139
asbag67
(g88
g69
NtRp2140
(dp2141
g72
(dp2142
g99
g100
ssg81
g2131
sg74
(lp2143
S':'
asbag67
(g88
g69
NtRp2144
(dp2145
g72
(dp2146
sg81
g2131
sg74
(lp2147
g67
(g68
g69
NtRp2148
(dp2149
g72
(dp2150
g80
I4
ssg81
g2144
sg74
(lp2151
S''
asbasbasbag67
(g83
g69
NtRp2152
(dp2153
g72
(dp2154
sg81
g1579
sg74
(lp2155
g67
(g88
g69
NtRp2156
(dp2157
g72
(dp2158
g92
g93
ssg81
g2152
sg74
(lp2159
S'remote_addr'
p2160
asbag67
(g88
g69
NtRp2161
(dp2162
g72
(dp2163
g99
g100
ssg81
g2152
sg74
(lp2164
S':'
asbag67
(g88
g69
NtRp2165
(dp2166
g72
(dp2167
sg81
g2152
sg74
(lp2168
g67
(g68
g69
NtRp2169
(dp2170
g72
(dp2171
g80
I4
ssg81
g2165
sg74
(lp2172
g200
asbasbasbag67
(g83
g69
NtRp2173
(dp2174
g72
(dp2175
sg81
g1579
sg74
(lp2176
g67
(g88
g69
NtRp2177
(dp2178
g72
(dp2179
g92
g93
ssg81
g2173
sg74
(lp2180
S'remote_port'
p2181
asbag67
(g88
g69
NtRp2182
(dp2183
g72
(dp2184
g99
g100
ssg81
g2173
sg74
(lp2185
S':'
asbag67
(g88
g69
NtRp2186
(dp2187
g72
(dp2188
sg81
g2173
sg74
(lp2189
g67
(g68
g69
NtRp2190
(dp2191
g72
(dp2192
g80
I4
ssg81
g2186
sg74
(lp2193
S'52202'
p2194
asbasbasbag67
(g83
g69
NtRp2195
(dp2196
g72
(dp2197
sg81
g1579
sg74
(lp2198
g67
(g88
g69
NtRp2199
(dp2200
g72
(dp2201
g92
g93
ssg81
g2195
sg74
(lp2202
S'request_method'
p2203
asbag67
(g88
g69
NtRp2204
(dp2205
g72
(dp2206
g99
g100
ssg81
g2195
sg74
(lp2207
S':'
asbag67
(g88
g69
NtRp2208
(dp2209
g72
(dp2210
sg81
g2195
sg74
(lp2211
g67
(g68
g69
NtRp2212
(dp2213
g72
(dp2214
g80
I4
ssg81
g2208
sg74
(lp2215
S'POST'
p2216
asbasbasbag67
(g83
g69
NtRp2217
(dp2218
g72
(dp2219
sg81
g1579
sg74
(lp2220
g67
(g88
g69
NtRp2221
(dp2222
g72
(dp2223
g92
g93
ssg81
g2217
sg74
(lp2224
S'script_name'
p2225
asbag67
(g88
g69
NtRp2226
(dp2227
g72
(dp2228
g99
g100
ssg81
g2217
sg74
(lp2229
S':'
asbag67
(g88
g69
NtRp2230
(dp2231
g72
(dp2232
sg81
g2217
sg74
(lp2233
g67
(g68
g69
NtRp2234
(dp2235
g72
(dp2236
g80
I4
ssg81
g2230
sg74
(lp2237
S''
asbasbasbag67
(g83
g69
NtRp2238
(dp2239
g72
(dp2240
sg81
g1579
sg74
(lp2241
g67
(g88
g69
NtRp2242
(dp2243
g72
(dp2244
g92
g93
ssg81
g2238
sg74
(lp2245
S'server_name'
p2246
asbag67
(g88
g69
NtRp2247
(dp2248
g72
(dp2249
g99
g100
ssg81
g2238
sg74
(lp2250
S':'
asbag67
(g88
g69
NtRp2251
(dp2252
g72
(dp2253
sg81
g2238
sg74
(lp2254
g67
(g68
g69
NtRp2255
(dp2256
g72
(dp2257
g80
I4
ssg81
g2251
sg74
(lp2258
S'frost.gravity.hws.edu'
p2259
asbasbasbag67
(g83
g69
NtRp2260
(dp2261
g72
(dp2262
sg81
g1579
sg74
(lp2263
g67
(g88
g69
NtRp2264
(dp2265
g72
(dp2266
g92
g93
ssg81
g2260
sg74
(lp2267
S'server_port'
p2268
asbag67
(g88
g69
NtRp2269
(dp2270
g72
(dp2271
g99
g100
ssg81
g2260
sg74
(lp2272
S':'
asbag67
(g88
g69
NtRp2273
(dp2274
g72
(dp2275
sg81
g2260
sg74
(lp2276
g67
(g68
g69
NtRp2277
(dp2278
g72
(dp2279
g80
I4
ssg81
g2273
sg74
(lp2280
S'8000'
p2281
asbasbasbag67
(g83
g69
NtRp2282
(dp2283
g72
(dp2284
sg81
g1579
sg74
(lp2285
g67
(g88
g69
NtRp2286
(dp2287
g72
(dp2288
g92
g93
ssg81
g2282
sg74
(lp2289
S'server_protocol'
p2290
asbag67
(g88
g69
NtRp2291
(dp2292
g72
(dp2293
g99
g100
ssg81
g2282
sg74
(lp2294
S':'
asbag67
(g88
g69
NtRp2295
(dp2296
g72
(dp2297
sg81
g2282
sg74
(lp2298
g67
(g68
g69
NtRp2299
(dp2300
g72
(dp2301
g80
I4
ssg81
g2295
sg74
(lp2302
S'HTTP/1.1'
p2303
asbasbasbag67
(g83
g69
NtRp2304
(dp2305
g72
(dp2306
sg81
g1579
sg74
(lp2307
g67
(g88
g69
NtRp2308
(dp2309
g72
(dp2310
g92
g93
ssg81
g2304
sg74
(lp2311
S'server_software'
p2312
asbag67
(g88
g69
NtRp2313
(dp2314
g72
(dp2315
g99
g100
ssg81
g2304
sg74
(lp2316
S':'
asbag67
(g88
g69
NtRp2317
(dp2318
g72
(dp2319
sg81
g2304
sg74
(lp2320
g67
(g68
g69
NtRp2321
(dp2322
g72
(dp2323
g80
I4
ssg81
g2317
sg74
(lp2324
S'Rocket 1.2.4'
p2325
asbasbasbag67
(g83
g69
NtRp2326
(dp2327
g72
(dp2328
sg81
g1579
sg74
(lp2329
g67
(g88
g69
NtRp2330
(dp2331
g72
(dp2332
g92
g93
ssg81
g2326
sg74
(lp2333
S'web2py_crontype'
p2334
asbag67
(g88
g69
NtRp2335
(dp2336
g72
(dp2337
g99
g100
ssg81
g2326
sg74
(lp2338
S':'
asbag67
(g88
g69
NtRp2339
(dp2340
g72
(dp2341
sg81
g2326
sg74
(lp2342
g67
(g68
g69
NtRp2343
(dp2344
g72
(dp2345
g80
I4
ssg81
g2339
sg74
(lp2346
S'hard'
p2347
asbasbasbag67
(g83
g69
NtRp2348
(dp2349
g72
(dp2350
sg81
g1579
sg74
(lp2351
g67
(g88
g69
NtRp2352
(dp2353
g72
(dp2354
g92
g93
ssg81
g2348
sg74
(lp2355
S'web2py_path'
p2356
asbag67
(g88
g69
NtRp2357
(dp2358
g72
(dp2359
g99
g100
ssg81
g2348
sg74
(lp2360
S':'
asbag67
(g88
g69
NtRp2361
(dp2362
g72
(dp2363
sg81
g2348
sg74
(lp2364
g67
(g68
g69
NtRp2365
(dp2366
g72
(dp2367
g80
I4
ssg81
g2361
sg74
(lp2368
g1626
asbasbasbag67
(g83
g69
NtRp2369
(dp2370
g72
(dp2371
sg81
g1579
sg74
(lp2372
g67
(g88
g69
NtRp2373
(dp2374
g72
(dp2375
g92
g93
ssg81
g2369
sg74
(lp2376
S'web2py_version'
p2377
asbag67
(g88
g69
NtRp2378
(dp2379
g72
(dp2380
g99
g100
ssg81
g2369
sg74
(lp2381
S':'
asbag67
(g88
g69
NtRp2382
(dp2383
g72
(dp2384
sg81
g2369
sg74
(lp2385
g67
(g68
g69
NtRp2386
(dp2387
g72
(dp2388
g80
I4
ssg81
g2382
sg74
(lp2389
g67
(g76
g69
NtRp2390
(dp2391
g72
(dp2392
g80
I3
ssg81
Nsg74
(lp2393
g67
(g83
g69
NtRp2394
(dp2395
g72
(dp2396
sg81
g2390
sg74
(lp2397
g67
(g88
g69
NtRp2398
(dp2399
g72
(dp2400
sg81
g2394
sg74
(lp2401
g67
(g68
g69
NtRp2402
(dp2403
g72
(dp2404
g80
I3
ssg81
g2398
sg74
(lp2405
S'2'
asbasbasbag67
(g83
g69
NtRp2406
(dp2407
g72
(dp2408
sg81
g2390
sg74
(lp2409
g67
(g88
g69
NtRp2410
(dp2411
g72
(dp2412
sg81
g2406
sg74
(lp2413
g67
(g68
g69
NtRp2414
(dp2415
g72
(dp2416
g80
I3
ssg81
g2410
sg74
(lp2417
S'0'
asbasbasbag67
(g83
g69
NtRp2418
(dp2419
g72
(dp2420
sg81
g2390
sg74
(lp2421
g67
(g88
g69
NtRp2422
(dp2423
g72
(dp2424
sg81
g2418
sg74
(lp2425
g67
(g68
g69
NtRp2426
(dp2427
g72
(dp2428
g80
I3
ssg81
g2422
sg74
(lp2429
S'0'
asbasbasbag67
(g83
g69
NtRp2430
(dp2431
g72
(dp2432
sg81
g2390
sg74
(lp2433
g67
(g88
g69
NtRp2434
(dp2435
g72
(dp2436
sg81
g2430
sg74
(lp2437
g67
(g68
g69
NtRp2438
(dp2439
g72
(dp2440
g80
I3
ssg81
g2434
sg74
(lp2441
S'datetime.datetime(2012, 7, 11, 9, 17, 27)'
p2442
asbasbasbag67
(g83
g69
NtRp2443
(dp2444
g72
(dp2445
sg81
g2390
sg74
(lp2446
g67
(g88
g69
NtRp2447
(dp2448
g72
(dp2449
sg81
g2443
sg74
(lp2450
g67
(g68
g69
NtRp2451
(dp2452
g72
(dp2453
g80
I3
ssg81
g2447
sg74
(lp2454
S'dev'
p2455
asbasbasbasbasbasbasbag67
(g83
g69
NtRp2456
(dp2457
g72
(dp2458
sg81
g1579
sg74
(lp2459
g67
(g88
g69
NtRp2460
(dp2461
g72
(dp2462
g92
g93
ssg81
g2456
sg74
(lp2463
S'wsgi_errors'
p2464
asbag67
(g88
g69
NtRp2465
(dp2466
g72
(dp2467
g99
g100
ssg81
g2456
sg74
(lp2468
S':'
asbag67
(g88
g69
NtRp2469
(dp2470
g72
(dp2471
sg81
g2456
sg74
(lp2472
g67
(g68
g69
NtRp2473
(dp2474
g72
(dp2475
g80
I4
ssg81
g2469
sg74
(lp2476
S"<open file '<stderr>', mode 'w' at 0x3410d0>"
p2477
asbasbasbag67
(g83
g69
NtRp2478
(dp2479
g72
(dp2480
sg81
g1579
sg74
(lp2481
g67
(g88
g69
NtRp2482
(dp2483
g72
(dp2484
g92
g93
ssg81
g2478
sg74
(lp2485
S'wsgi_file_wrapper'
p2486
asbag67
(g88
g69
NtRp2487
(dp2488
g72
(dp2489
g99
g100
ssg81
g2478
sg74
(lp2490
S':'
asbag67
(g88
g69
NtRp2491
(dp2492
g72
(dp2493
sg81
g2478
sg74
(lp2494
g67
(g68
g69
NtRp2495
(dp2496
g72
(dp2497
g80
I4
ssg81
g2491
sg74
(lp2498
S'<class wsgiref.util.FileWrapper at 0x18934b0>'
p2499
asbasbasbag67
(g83
g69
NtRp2500
(dp2501
g72
(dp2502
sg81
g1579
sg74
(lp2503
g67
(g88
g69
NtRp2504
(dp2505
g72
(dp2506
g92
g93
ssg81
g2500
sg74
(lp2507
S'wsgi_input'
p2508
asbag67
(g88
g69
NtRp2509
(dp2510
g72
(dp2511
g99
g100
ssg81
g2500
sg74
(lp2512
S':'
asbag67
(g88
g69
NtRp2513
(dp2514
g72
(dp2515
sg81
g2500
sg74
(lp2516
g67
(g68
g69
NtRp2517
(dp2518
g72
(dp2519
g80
I4
ssg81
g2513
sg74
(lp2520
S'<socket._fileobject object at 0x19fdb370>'
p2521
asbasbasbag67
(g83
g69
NtRp2522
(dp2523
g72
(dp2524
sg81
g1579
sg74
(lp2525
g67
(g88
g69
NtRp2526
(dp2527
g72
(dp2528
g92
g93
ssg81
g2522
sg74
(lp2529
S'wsgi_multiprocess'
p2530
asbag67
(g88
g69
NtRp2531
(dp2532
g72
(dp2533
g99
g100
ssg81
g2522
sg74
(lp2534
S':'
asbag67
(g88
g69
NtRp2535
(dp2536
g72
(dp2537
sg81
g2522
sg74
(lp2538
g67
(g68
g69
NtRp2539
(dp2540
g72
(dp2541
g80
I4
ssg81
g2535
sg74
(lp2542
g110
asbasbasbag67
(g83
g69
NtRp2543
(dp2544
g72
(dp2545
sg81
g1579
sg74
(lp2546
g67
(g88
g69
NtRp2547
(dp2548
g72
(dp2549
g92
g93
ssg81
g2543
sg74
(lp2550
S'wsgi_multithread'
p2551
asbag67
(g88
g69
NtRp2552
(dp2553
g72
(dp2554
g99
g100
ssg81
g2543
sg74
(lp2555
S':'
asbag67
(g88
g69
NtRp2556
(dp2557
g72
(dp2558
sg81
g2543
sg74
(lp2559
g67
(g68
g69
NtRp2560
(dp2561
g72
(dp2562
g80
I4
ssg81
g2556
sg74
(lp2563
S'True'
p2564
asbasbasbag67
(g83
g69
NtRp2565
(dp2566
g72
(dp2567
sg81
g1579
sg74
(lp2568
g67
(g88
g69
NtRp2569
(dp2570
g72
(dp2571
g92
g93
ssg81
g2565
sg74
(lp2572
S'wsgi_run_once'
p2573
asbag67
(g88
g69
NtRp2574
(dp2575
g72
(dp2576
g99
g100
ssg81
g2565
sg74
(lp2577
S':'
asbag67
(g88
g69
NtRp2578
(dp2579
g72
(dp2580
sg81
g2565
sg74
(lp2581
g67
(g68
g69
NtRp2582
(dp2583
g72
(dp2584
g80
I4
ssg81
g2578
sg74
(lp2585
g110
asbasbasbag67
(g83
g69
NtRp2586
(dp2587
g72
(dp2588
sg81
g1579
sg74
(lp2589
g67
(g88
g69
NtRp2590
(dp2591
g72
(dp2592
g92
g93
ssg81
g2586
sg74
(lp2593
S'wsgi_url_scheme'
p2594
asbag67
(g88
g69
NtRp2595
(dp2596
g72
(dp2597
g99
g100
ssg81
g2586
sg74
(lp2598
S':'
asbag67
(g88
g69
NtRp2599
(dp2600
g72
(dp2601
sg81
g2586
sg74
(lp2602
g67
(g68
g69
NtRp2603
(dp2604
g72
(dp2605
g80
I4
ssg81
g2599
sg74
(lp2606
S'http'
p2607
asbasbasbag67
(g83
g69
NtRp2608
(dp2609
g72
(dp2610
sg81
g1579
sg74
(lp2611
g67
(g88
g69
NtRp2612
(dp2613
g72
(dp2614
g92
g93
ssg81
g2608
sg74
(lp2615
S'wsgi_version'
p2616
asbag67
(g88
g69
NtRp2617
(dp2618
g72
(dp2619
g99
g100
ssg81
g2608
sg74
(lp2620
S':'
asbag67
(g88
g69
NtRp2621
(dp2622
g72
(dp2623
sg81
g2608
sg74
(lp2624
g67
(g68
g69
NtRp2625
(dp2626
g72
(dp2627
g80
I4
ssg81
g2621
sg74
(lp2628
g67
(g76
g69
NtRp2629
(dp2630
g72
(dp2631
g80
I3
ssg81
Nsg74
(lp2632
g67
(g83
g69
NtRp2633
(dp2634
g72
(dp2635
sg81
g2629
sg74
(lp2636
g67
(g88
g69
NtRp2637
(dp2638
g72
(dp2639
sg81
g2633
sg74
(lp2640
g67
(g68
g69
NtRp2641
(dp2642
g72
(dp2643
g80
I3
ssg81
g2637
sg74
(lp2644
S'1'
asbasbasbag67
(g83
g69
NtRp2645
(dp2646
g72
(dp2647
sg81
g2629
sg74
(lp2648
g67
(g88
g69
NtRp2649
(dp2650
g72
(dp2651
sg81
g2645
sg74
(lp2652
g67
(g68
g69
NtRp2653
(dp2654
g72
(dp2655
g80
I3
ssg81
g2649
sg74
(lp2656
S'0'
asbasbasbasbasbasbasbasbasbasbasbag67
(g83
g69
NtRp2657
(dp2658
g72
(dp2659
sg81
g77
sg74
(lp2660
g67
(g88
g69
NtRp2661
(dp2662
g72
(dp2663
g92
g93
ssg81
g2657
sg74
(lp2664
S'extension'
p2665
asbag67
(g88
g69
NtRp2666
(dp2667
g72
(dp2668
g99
g100
ssg81
g2657
sg74
(lp2669
S':'
asbag67
(g88
g69
NtRp2670
(dp2671
g72
(dp2672
sg81
g2657
sg74
(lp2673
g67
(g68
g69
NtRp2674
(dp2675
g72
(dp2676
g80
I5
ssg81
g2670
sg74
(lp2677
S'html'
p2678
asbasbasbag67
(g83
g69
NtRp2679
(dp2680
g72
(dp2681
sg81
g77
sg74
(lp2682
g67
(g88
g69
NtRp2683
(dp2684
g72
(dp2685
g92
g93
ssg81
g2679
sg74
(lp2686
S'folder'
p2687
asbag67
(g88
g69
NtRp2688
(dp2689
g72
(dp2690
g99
g100
ssg81
g2679
sg74
(lp2691
S':'
asbag67
(g88
g69
NtRp2692
(dp2693
g72
(dp2694
sg81
g2679
sg74
(lp2695
g67
(g68
g69
NtRp2696
(dp2697
g72
(dp2698
g80
I5
ssg81
g2692
sg74
(lp2699
S'/web2pyTrunk/applications/GPIBHWS/'
p2700
asbasbasbag67
(g83
g69
NtRp2701
(dp2702
g72
(dp2703
sg81
g77
sg74
(lp2704
g67
(g88
g69
NtRp2705
(dp2706
g72
(dp2707
g92
g93
ssg81
g2701
sg74
(lp2708
S'function'
p2709
asbag67
(g88
g69
NtRp2710
(dp2711
g72
(dp2712
g99
g100
ssg81
g2701
sg74
(lp2713
S':'
asbag67
(g88
g69
NtRp2714
(dp2715
g72
(dp2716
sg81
g2701
sg74
(lp2717
g67
(g68
g69
NtRp2718
(dp2719
g72
(dp2720
g80
I5
ssg81
g2714
sg74
(lp2721
S'index'
p2722
asbasbasbag67
(g83
g69
NtRp2723
(dp2724
g72
(dp2725
sg81
g77
sg74
(lp2726
g67
(g88
g69
NtRp2727
(dp2728
g72
(dp2729
g92
g93
ssg81
g2723
sg74
(lp2730
S'get_vars'
p2731
asbag67
(g88
g69
NtRp2732
(dp2733
g72
(dp2734
g99
g100
ssg81
g2723
sg74
(lp2735
S':'
asbag67
(g88
g69
NtRp2736
(dp2737
g72
(dp2738
sg81
g2723
sg74
(lp2739
g67
(g68
g69
NtRp2740
(dp2741
g72
(dp2742
g80
I5
ssg81
g2736
sg74
(lp2743
g67
(g76
g69
NtRp2744
(dp2745
g72
(dp2746
g80
I4
ssg81
Nsg74
(lp2747
sbasbasbasbag67
(g83
g69
NtRp2748
(dp2749
g72
(dp2750
sg81
g77
sg74
(lp2751
g67
(g88
g69
NtRp2752
(dp2753
g72
(dp2754
g92
g93
ssg81
g2748
sg74
(lp2755
S'global_settings'
p2756
asbag67
(g88
g69
NtRp2757
(dp2758
g72
(dp2759
g99
g100
ssg81
g2748
sg74
(lp2760
S':'
asbag67
(g88
g69
NtRp2761
(dp2762
g72
(dp2763
sg81
g2748
sg74
(lp2764
g67
(g68
g69
NtRp2765
(dp2766
g72
(dp2767
g80
I5
ssg81
g2761
sg74
(lp2768
g67
(g76
g69
NtRp2769
(dp2770
g72
(dp2771
g80
I4
ssg81
Nsg74
(lp2772
g67
(g83
g69
NtRp2773
(dp2774
g72
(dp2775
sg81
g2769
sg74
(lp2776
g67
(g88
g69
NtRp2777
(dp2778
g72
(dp2779
g92
g93
ssg81
g2773
sg74
(lp2780
g1591
asbag67
(g88
g69
NtRp2781
(dp2782
g72
(dp2783
g99
g100
ssg81
g2773
sg74
(lp2784
S':'
asbag67
(g88
g69
NtRp2785
(dp2786
g72
(dp2787
sg81
g2773
sg74
(lp2788
g67
(g68
g69
NtRp2789
(dp2790
g72
(dp2791
g80
I4
ssg81
g2785
sg74
(lp2792
S"set(['/web2pyTrunk/applications/GPIBHWS/', '/web2pyTrunk/applications/HWSGPIB/', '/web2pyTrunk/applications/welcome/', '/web2pyTrunk/applications/admin/', '/web2pyTrunk/applications/GPIBFinal/'])"
p2793
asbasbasbag67
(g83
g69
NtRp2794
(dp2795
g72
(dp2796
sg81
g2769
sg74
(lp2797
g67
(g88
g69
NtRp2798
(dp2799
g72
(dp2800
g92
g93
ssg81
g2794
sg74
(lp2801
g1613
asbag67
(g88
g69
NtRp2802
(dp2803
g72
(dp2804
g99
g100
ssg81
g2794
sg74
(lp2805
S':'
asbag67
(g88
g69
NtRp2806
(dp2807
g72
(dp2808
sg81
g2794
sg74
(lp2809
g67
(g68
g69
NtRp2810
(dp2811
g72
(dp2812
g80
I4
ssg81
g2806
sg74
(lp2813
g1626
asbasbasbag67
(g83
g69
NtRp2814
(dp2815
g72
(dp2816
sg81
g2769
sg74
(lp2817
g67
(g88
g69
NtRp2818
(dp2819
g72
(dp2820
g92
g93
ssg81
g2814
sg74
(lp2821
g1635
asbag67
(g88
g69
NtRp2822
(dp2823
g72
(dp2824
g99
g100
ssg81
g2814
sg74
(lp2825
S':'
asbag67
(g88
g69
NtRp2826
(dp2827
g72
(dp2828
sg81
g2814
sg74
(lp2829
g67
(g68
g69
NtRp2830
(dp2831
g72
(dp2832
g80
I4
ssg81
g2826
sg74
(lp2833
g67
(g76
g69
NtRp2834
(dp2835
g72
(dp2836
g80
I3
ssg81
Nsg74
(lp2837
sbasbasbasbag67
(g83
g69
NtRp2838
(dp2839
g72
(dp2840
sg81
g2769
sg74
(lp2841
g67
(g88
g69
NtRp2842
(dp2843
g72
(dp2844
g92
g93
ssg81
g2838
sg74
(lp2845
g1660
asbag67
(g88
g69
NtRp2846
(dp2847
g72
(dp2848
g99
g100
ssg81
g2838
sg74
(lp2849
S':'
asbag67
(g88
g69
NtRp2850
(dp2851
g72
(dp2852
sg81
g2838
sg74
(lp2853
g67
(g68
g69
NtRp2854
(dp2855
g72
(dp2856
g80
I4
ssg81
g2850
sg74
(lp2857
S"<Values at 0x18c4990: {'verbose': False, 'ip': '127.0.0.1', 'shutdown_timeout': 5, 'taskbar': False, 'nocron': False, 'pid_filename': 'httpserver.pid', 'maxthreads': None, 'softcron': False, 'server_name': 'frost.gravity.hws.edu', 'bpython': False, 'nogui': False, 'port': 8000, 'extcron': False, 'run_system_tests': False, 'test': None, 'folder': '/web2pyTrunk', 'config': '', 'import_models': False, 'winservice': '', 'shell': None, 'run': '', 'log_filename': 'httpserver.log', 'debuglevel': 30, 'args': [''], 'socket_timeout': 5, 'ssl_ca_certificate': None, 'scheduler': None, 'profiler_filename': None, 'ssl_private_key': '', 'password': '<ask>', 'request_queue_size': 5, 'ssl_certificate': '', 'cronjob': False, 'numthreads': None, 'quiet': False, 'interfaces': None, 'minthreads': None, 'timeout': 10, 'plain': False, 'nobanner': False}>"
p2858
asbasbasbag67
(g83
g69
NtRp2859
(dp2860
g72
(dp2861
sg81
g2769
sg74
(lp2862
g67
(g88
g69
NtRp2863
(dp2864
g72
(dp2865
g92
g93
ssg81
g2859
sg74
(lp2866
g1726
asbag67
(g88
g69
NtRp2867
(dp2868
g72
(dp2869
g99
g100
ssg81
g2859
sg74
(lp2870
S':'
asbag67
(g88
g69
NtRp2871
(dp2872
g72
(dp2873
sg81
g2859
sg74
(lp2874
g67
(g68
g69
NtRp2875
(dp2876
g72
(dp2877
g80
I4
ssg81
g2871
sg74
(lp2878
S'set([])'
p2879
asbasbasbag67
(g83
g69
NtRp2880
(dp2881
g72
(dp2882
sg81
g2769
sg74
(lp2883
g67
(g88
g69
NtRp2884
(dp2885
g72
(dp2886
g92
g93
ssg81
g2880
sg74
(lp2887
g1748
asbag67
(g88
g69
NtRp2888
(dp2889
g72
(dp2890
g99
g100
ssg81
g2880
sg74
(lp2891
S':'
asbag67
(g88
g69
NtRp2892
(dp2893
g72
(dp2894
sg81
g2880
sg74
(lp2895
g67
(g68
g69
NtRp2896
(dp2897
g72
(dp2898
g80
I4
ssg81
g2892
sg74
(lp2899
g110
asbasbasbag67
(g83
g69
NtRp2900
(dp2901
g72
(dp2902
sg81
g2769
sg74
(lp2903
g67
(g88
g69
NtRp2904
(dp2905
g72
(dp2906
g92
g93
ssg81
g2900
sg74
(lp2907
g1769
asbag67
(g88
g69
NtRp2908
(dp2909
g72
(dp2910
g99
g100
ssg81
g2900
sg74
(lp2911
S':'
asbag67
(g88
g69
NtRp2912
(dp2913
g72
(dp2914
sg81
g2900
sg74
(lp2915
g67
(g68
g69
NtRp2916
(dp2917
g72
(dp2918
g80
I4
ssg81
g2912
sg74
(lp2919
g1782
asbasbasbag67
(g83
g69
NtRp2920
(dp2921
g72
(dp2922
sg81
g2769
sg74
(lp2923
g67
(g88
g69
NtRp2924
(dp2925
g72
(dp2926
g92
g93
ssg81
g2920
sg74
(lp2927
g2075
asbag67
(g88
g69
NtRp2928
(dp2929
g72
(dp2930
g99
g100
ssg81
g2920
sg74
(lp2931
S':'
asbag67
(g88
g69
NtRp2932
(dp2933
g72
(dp2934
sg81
g2920
sg74
(lp2935
g67
(g68
g69
NtRp2936
(dp2937
g72
(dp2938
g80
I4
ssg81
g2932
sg74
(lp2939
g110
asbasbasbag67
(g83
g69
NtRp2940
(dp2941
g72
(dp2942
sg81
g2769
sg74
(lp2943
g67
(g88
g69
NtRp2944
(dp2945
g72
(dp2946
g92
g93
ssg81
g2940
sg74
(lp2947
g2096
asbag67
(g88
g69
NtRp2948
(dp2949
g72
(dp2950
g99
g100
ssg81
g2940
sg74
(lp2951
S':'
asbag67
(g88
g69
NtRp2952
(dp2953
g72
(dp2954
sg81
g2940
sg74
(lp2955
g67
(g68
g69
NtRp2956
(dp2957
g72
(dp2958
g80
I4
ssg81
g2952
sg74
(lp2959
g110
asbasbasbag67
(g83
g69
NtRp2960
(dp2961
g72
(dp2962
sg81
g2769
sg74
(lp2963
g67
(g88
g69
NtRp2964
(dp2965
g72
(dp2966
g92
g93
ssg81
g2960
sg74
(lp2967
g2334
asbag67
(g88
g69
NtRp2968
(dp2969
g72
(dp2970
g99
g100
ssg81
g2960
sg74
(lp2971
S':'
asbag67
(g88
g69
NtRp2972
(dp2973
g72
(dp2974
sg81
g2960
sg74
(lp2975
g67
(g68
g69
NtRp2976
(dp2977
g72
(dp2978
g80
I4
ssg81
g2972
sg74
(lp2979
g2347
asbasbasbag67
(g83
g69
NtRp2980
(dp2981
g72
(dp2982
sg81
g2769
sg74
(lp2983
g67
(g88
g69
NtRp2984
(dp2985
g72
(dp2986
g92
g93
ssg81
g2980
sg74
(lp2987
g2377
asbag67
(g88
g69
NtRp2988
(dp2989
g72
(dp2990
g99
g100
ssg81
g2980
sg74
(lp2991
S':'
asbag67
(g88
g69
NtRp2992
(dp2993
g72
(dp2994
sg81
g2980
sg74
(lp2995
g67
(g68
g69
NtRp2996
(dp2997
g72
(dp2998
g80
I4
ssg81
g2992
sg74
(lp2999
g67
(g76
g69
NtRp3000
(dp3001
g72
(dp3002
g80
I3
ssg81
Nsg74
(lp3003
g67
(g83
g69
NtRp3004
(dp3005
g72
(dp3006
sg81
g3000
sg74
(lp3007
g67
(g88
g69
NtRp3008
(dp3009
g72
(dp3010
sg81
g3004
sg74
(lp3011
g67
(g68
g69
NtRp3012
(dp3013
g72
(dp3014
g80
I3
ssg81
g3008
sg74
(lp3015
S'2'
asbasbasbag67
(g83
g69
NtRp3016
(dp3017
g72
(dp3018
sg81
g3000
sg74
(lp3019
g67
(g88
g69
NtRp3020
(dp3021
g72
(dp3022
sg81
g3016
sg74
(lp3023
g67
(g68
g69
NtRp3024
(dp3025
g72
(dp3026
g80
I3
ssg81
g3020
sg74
(lp3027
S'0'
asbasbasbag67
(g83
g69
NtRp3028
(dp3029
g72
(dp3030
sg81
g3000
sg74
(lp3031
g67
(g88
g69
NtRp3032
(dp3033
g72
(dp3034
sg81
g3028
sg74
(lp3035
g67
(g68
g69
NtRp3036
(dp3037
g72
(dp3038
g80
I3
ssg81
g3032
sg74
(lp3039
S'0'
asbasbasbag67
(g83
g69
NtRp3040
(dp3041
g72
(dp3042
sg81
g3000
sg74
(lp3043
g67
(g88
g69
NtRp3044
(dp3045
g72
(dp3046
sg81
g3040
sg74
(lp3047
g67
(g68
g69
NtRp3048
(dp3049
g72
(dp3050
g80
I3
ssg81
g3044
sg74
(lp3051
S'datetime.datetime(2012, 7, 11, 9, 17, 27)'
p3052
asbasbasbag67
(g83
g69
NtRp3053
(dp3054
g72
(dp3055
sg81
g3000
sg74
(lp3056
g67
(g88
g69
NtRp3057
(dp3058
g72
(dp3059
sg81
g3053
sg74
(lp3060
g67
(g68
g69
NtRp3061
(dp3062
g72
(dp3063
g80
I3
ssg81
g3057
sg74
(lp3064
g2455
asbasbasbasbasbasbasbasbasbasbasbag67
(g83
g69
NtRp3065
(dp3066
g72
(dp3067
sg81
g77
sg74
(lp3068
g67
(g88
g69
NtRp3069
(dp3070
g72
(dp3071
g92
g93
ssg81
g3065
sg74
(lp3072
S'is_https'
p3073
asbag67
(g88
g69
NtRp3074
(dp3075
g72
(dp3076
g99
g100
ssg81
g3065
sg74
(lp3077
S':'
asbag67
(g88
g69
NtRp3078
(dp3079
g72
(dp3080
sg81
g3065
sg74
(lp3081
g67
(g68
g69
NtRp3082
(dp3083
g72
(dp3084
g80
I5
ssg81
g3078
sg74
(lp3085
g110
asbasbasbag67
(g83
g69
NtRp3086
(dp3087
g72
(dp3088
sg81
g77
sg74
(lp3089
g67
(g88
g69
NtRp3090
(dp3091
g72
(dp3092
g92
g93
ssg81
g3086
sg74
(lp3093
S'is_local'
p3094
asbag67
(g88
g69
NtRp3095
(dp3096
g72
(dp3097
g99
g100
ssg81
g3086
sg74
(lp3098
S':'
asbag67
(g88
g69
NtRp3099
(dp3100
g72
(dp3101
sg81
g3086
sg74
(lp3102
g67
(g68
g69
NtRp3103
(dp3104
g72
(dp3105
g80
I5
ssg81
g3099
sg74
(lp3106
g2564
asbasbasbag67
(g83
g69
NtRp3107
(dp3108
g72
(dp3109
sg81
g77
sg74
(lp3110
g67
(g88
g69
NtRp3111
(dp3112
g72
(dp3113
g92
g93
ssg81
g3107
sg74
(lp3114
S'is_restful'
p3115
asbag67
(g88
g69
NtRp3116
(dp3117
g72
(dp3118
g99
g100
ssg81
g3107
sg74
(lp3119
S':'
asbag67
(g88
g69
NtRp3120
(dp3121
g72
(dp3122
sg81
g3107
sg74
(lp3123
g67
(g68
g69
NtRp3124
(dp3125
g72
(dp3126
g80
I5
ssg81
g3120
sg74
(lp3127
g110
asbasbasbag67
(g83
g69
NtRp3128
(dp3129
g72
(dp3130
sg81
g77
sg74
(lp3131
g67
(g88
g69
NtRp3132
(dp3133
g72
(dp3134
g92
g93
ssg81
g3128
sg74
(lp3135
S'now'
p3136
asbag67
(g88
g69
NtRp3137
(dp3138
g72
(dp3139
g99
g100
ssg81
g3128
sg74
(lp3140
S':'
asbag67
(g88
g69
NtRp3141
(dp3142
g72
(dp3143
sg81
g3128
sg74
(lp3144
g67
(g68
g69
NtRp3145
(dp3146
g72
(dp3147
g80
I5
ssg81
g3141
sg74
(lp3148
S'datetime.datetime(2012, 7, 27, 5, 31, 28, 138789)'
p3149
asbasbasbag67
(g83
g69
NtRp3150
(dp3151
g72
(dp3152
sg81
g77
sg74
(lp3153
g67
(g88
g69
NtRp3154
(dp3155
g72
(dp3156
g92
g93
ssg81
g3150
sg74
(lp3157
S'post_vars'
p3158
asbag67
(g88
g69
NtRp3159
(dp3160
g72
(dp3161
g99
g100
ssg81
g3150
sg74
(lp3162
S':'
asbag67
(g88
g69
NtRp3163
(dp3164
g72
(dp3165
sg81
g3150
sg74
(lp3166
g67
(g68
g69
NtRp3167
(dp3168
g72
(dp3169
g80
I5
ssg81
g3163
sg74
(lp3170
g67
(g76
g69
NtRp3171
(dp3172
g72
(dp3173
g80
I4
ssg81
Nsg74
(lp3174
g67
(g83
g69
NtRp3175
(dp3176
g72
(dp3177
sg81
g3171
sg74
(lp3178
g67
(g88
g69
NtRp3179
(dp3180
g72
(dp3181
g92
g93
ssg81
g3175
sg74
(lp3182
S'device'
p3183
asbag67
(g88
g69
NtRp3184
(dp3185
g72
(dp3186
g99
g100
ssg81
g3175
sg74
(lp3187
S':'
asbag67
(g88
g69
NtRp3188
(dp3189
g72
(dp3190
sg81
g3175
sg74
(lp3191
g67
(g68
g69
NtRp3192
(dp3193
g72
(dp3194
g80
I4
ssg81
g3188
sg74
(lp3195
S'Glass'
p3196
asbasbasbag67
(g83
g69
NtRp3197
(dp3198
g72
(dp3199
sg81
g3171
sg74
(lp3200
g67
(g88
g69
NtRp3201
(dp3202
g72
(dp3203
g92
g93
ssg81
g3197
sg74
(lp3204
S'frequency_range'
p3205
asbag67
(g88
g69
NtRp3206
(dp3207
g72
(dp3208
g99
g100
ssg81
g3197
sg74
(lp3209
S':'
asbag67
(g88
g69
NtRp3210
(dp3211
g72
(dp3212
sg81
g3197
sg74
(lp3213
g67
(g68
g69
NtRp3214
(dp3215
g72
(dp3216
g80
I4
ssg81
g3210
sg74
(lp3217
S'5'
asbasbasbag67
(g83
g69
NtRp3218
(dp3219
g72
(dp3220
sg81
g3171
sg74
(lp3221
g67
(g88
g69
NtRp3222
(dp3223
g72
(dp3224
g92
g93
ssg81
g3218
sg74
(lp3225
S'frequency_start'
p3226
asbag67
(g88
g69
NtRp3227
(dp3228
g72
(dp3229
g99
g100
ssg81
g3218
sg74
(lp3230
S':'
asbag67
(g88
g69
NtRp3231
(dp3232
g72
(dp3233
sg81
g3218
sg74
(lp3234
g67
(g68
g69
NtRp3235
(dp3236
g72
(dp3237
g80
I4
ssg81
g3231
sg74
(lp3238
S'2000'
p3239
asbasbasbag67
(g83
g69
NtRp3240
(dp3241
g72
(dp3242
sg81
g3171
sg74
(lp3243
g67
(g88
g69
NtRp3244
(dp3245
g72
(dp3246
g92
g93
ssg81
g3240
sg74
(lp3247
S'multiple_runs'
p3248
asbag67
(g88
g69
NtRp3249
(dp3250
g72
(dp3251
g99
g100
ssg81
g3240
sg74
(lp3252
S':'
asbag67
(g88
g69
NtRp3253
(dp3254
g72
(dp3255
sg81
g3240
sg74
(lp3256
g67
(g68
g69
NtRp3257
(dp3258
g72
(dp3259
g80
I4
ssg81
g3253
sg74
(lp3260
S'on'
p3261
asbasbasbag67
(g83
g69
NtRp3262
(dp3263
g72
(dp3264
sg81
g3171
sg74
(lp3265
g67
(g88
g69
NtRp3266
(dp3267
g72
(dp3268
g92
g93
ssg81
g3262
sg74
(lp3269
S'number_runs'
p3270
asbag67
(g88
g69
NtRp3271
(dp3272
g72
(dp3273
g99
g100
ssg81
g3262
sg74
(lp3274
S':'
asbag67
(g88
g69
NtRp3275
(dp3276
g72
(dp3277
sg81
g3262
sg74
(lp3278
g67
(g68
g69
NtRp3279
(dp3280
g72
(dp3281
g80
I4
ssg81
g3275
sg74
(lp3282
S'2'
asbasbasbag67
(g83
g69
NtRp3283
(dp3284
g72
(dp3285
sg81
g3171
sg74
(lp3286
g67
(g88
g69
NtRp3287
(dp3288
g72
(dp3289
g92
g93
ssg81
g3283
sg74
(lp3290
S'run_type'
p3291
asbag67
(g88
g69
NtRp3292
(dp3293
g72
(dp3294
g99
g100
ssg81
g3283
sg74
(lp3295
S':'
asbag67
(g88
g69
NtRp3296
(dp3297
g72
(dp3298
sg81
g3283
sg74
(lp3299
g67
(g68
g69
NtRp3300
(dp3301
g72
(dp3302
g80
I4
ssg81
g3296
sg74
(lp3303
S'Sweep'
p3304
asbasbasbag67
(g83
g69
NtRp3305
(dp3306
g72
(dp3307
sg81
g3171
sg74
(lp3308
g67
(g88
g69
NtRp3309
(dp3310
g72
(dp3311
g92
g93
ssg81
g3305
sg74
(lp3312
S'source_level'
p3313
asbag67
(g88
g69
NtRp3314
(dp3315
g72
(dp3316
g99
g100
ssg81
g3305
sg74
(lp3317
S':'
asbag67
(g88
g69
NtRp3318
(dp3319
g72
(dp3320
sg81
g3305
sg74
(lp3321
g67
(g68
g69
NtRp3322
(dp3323
g72
(dp3324
g80
I4
ssg81
g3318
sg74
(lp3325
S'1'
asbasbasbag67
(g83
g69
NtRp3326
(dp3327
g72
(dp3328
sg81
g3171
sg74
(lp3329
g67
(g88
g69
NtRp3330
(dp3331
g72
(dp3332
g92
g93
ssg81
g3326
sg74
(lp3333
S'source_offset'
p3334
asbag67
(g88
g69
NtRp3335
(dp3336
g72
(dp3337
g99
g100
ssg81
g3326
sg74
(lp3338
S':'
asbag67
(g88
g69
NtRp3339
(dp3340
g72
(dp3341
sg81
g3326
sg74
(lp3342
g67
(g68
g69
NtRp3343
(dp3344
g72
(dp3345
g80
I4
ssg81
g3339
sg74
(lp3346
S'1'
asbasbasbag67
(g83
g69
NtRp3347
(dp3348
g72
(dp3349
sg81
g3171
sg74
(lp3350
g67
(g88
g69
NtRp3351
(dp3352
g72
(dp3353
g92
g93
ssg81
g3347
sg74
(lp3354
S'sweep_rate'
p3355
asbag67
(g88
g69
NtRp3356
(dp3357
g72
(dp3358
g99
g100
ssg81
g3347
sg74
(lp3359
S':'
asbag67
(g88
g69
NtRp3360
(dp3361
g72
(dp3362
sg81
g3347
sg74
(lp3363
g67
(g68
g69
NtRp3364
(dp3365
g72
(dp3366
g80
I4
ssg81
g3360
sg74
(lp3367
S'+5.494499E-02'
p3368
asbasbasbasbasbasbasbag67
(g83
g69
NtRp3369
(dp3370
g72
(dp3371
sg81
g77
sg74
(lp3372
g67
(g88
g69
NtRp3373
(dp3374
g72
(dp3375
g92
g93
ssg81
g3369
sg74
(lp3376
S'url'
p3377
asbag67
(g88
g69
NtRp3378
(dp3379
g72
(dp3380
g99
g100
ssg81
g3369
sg74
(lp3381
S':'
asbag67
(g88
g69
NtRp3382
(dp3383
g72
(dp3384
sg81
g3369
sg74
(lp3385
g67
(g68
g69
NtRp3386
(dp3387
g72
(dp3388
g80
I5
ssg81
g3382
sg74
(lp3389
S'/GPIBHWS/default/index'
p3390
asbasbasbag67
(g83
g69
NtRp3391
(dp3392
g72
(dp3393
sg81
g77
sg74
(lp3394
g67
(g88
g69
NtRp3395
(dp3396
g72
(dp3397
g92
g93
ssg81
g3391
sg74
(lp3398
S'utcnow'
p3399
asbag67
(g88
g69
NtRp3400
(dp3401
g72
(dp3402
g99
g100
ssg81
g3391
sg74
(lp3403
S':'
asbag67
(g88
g69
NtRp3404
(dp3405
g72
(dp3406
sg81
g3391
sg74
(lp3407
g67
(g68
g69
NtRp3408
(dp3409
g72
(dp3410
g80
I5
ssg81
g3404
sg74
(lp3411
S'datetime.datetime(2012, 7, 27, 9, 31, 28, 138799)'
p3412
asbasbasbag67
(g83
g69
NtRp3413
(dp3414
g72
(dp3415
sg81
g77
sg74
(lp3416
g67
(g88
g69
NtRp3417
(dp3418
g72
(dp3419
g92
g93
ssg81
g3413
sg74
(lp3420
S'uuid'
p3421
asbag67
(g88
g69
NtRp3422
(dp3423
g72
(dp3424
g99
g100
ssg81
g3413
sg74
(lp3425
S':'
asbag67
(g88
g69
NtRp3426
(dp3427
g72
(dp3428
sg81
g3413
sg74
(lp3429
g67
(g68
g69
NtRp3430
(dp3431
g72
(dp3432
g80
I5
ssg81
g3426
sg74
(lp3433
S'GPIBHWS/127.0.0.1.2012-07-27.05-31-28.c08e0806-b2df-4343-aa96-74ed75d93853'
p3434
asbasbasbag67
(g83
g69
NtRp3435
(dp3436
g72
(dp3437
sg81
g77
sg74
(lp3438
g67
(g88
g69
NtRp3439
(dp3440
g72
(dp3441
g92
g93
ssg81
g3435
sg74
(lp3442
S'vars'
p3443
asbag67
(g88
g69
NtRp3444
(dp3445
g72
(dp3446
g99
g100
ssg81
g3435
sg74
(lp3447
S':'
asbag67
(g88
g69
NtRp3448
(dp3449
g72
(dp3450
sg81
g3435
sg74
(lp3451
g67
(g68
g69
NtRp3452
(dp3453
g72
(dp3454
g80
I5
ssg81
g3448
sg74
(lp3455
g67
(g76
g69
NtRp3456
(dp3457
g72
(dp3458
g80
I4
ssg81
Nsg74
(lp3459
g67
(g83
g69
NtRp3460
(dp3461
g72
(dp3462
sg81
g3456
sg74
(lp3463
g67
(g88
g69
NtRp3464
(dp3465
g72
(dp3466
g92
g93
ssg81
g3460
sg74
(lp3467
g3183
asbag67
(g88
g69
NtRp3468
(dp3469
g72
(dp3470
g99
g100
ssg81
g3460
sg74
(lp3471
S':'
asbag67
(g88
g69
NtRp3472
(dp3473
g72
(dp3474
sg81
g3460
sg74
(lp3475
g67
(g68
g69
NtRp3476
(dp3477
g72
(dp3478
g80
I4
ssg81
g3472
sg74
(lp3479
g3196
asbasbasbag67
(g83
g69
NtRp3480
(dp3481
g72
(dp3482
sg81
g3456
sg74
(lp3483
g67
(g88
g69
NtRp3484
(dp3485
g72
(dp3486
g92
g93
ssg81
g3480
sg74
(lp3487
g3205
asbag67
(g88
g69
NtRp3488
(dp3489
g72
(dp3490
g99
g100
ssg81
g3480
sg74
(lp3491
S':'
asbag67
(g88
g69
NtRp3492
(dp3493
g72
(dp3494
sg81
g3480
sg74
(lp3495
g67
(g68
g69
NtRp3496
(dp3497
g72
(dp3498
g80
I4
ssg81
g3492
sg74
(lp3499
S'5'
asbasbasbag67
(g83
g69
NtRp3500
(dp3501
g72
(dp3502
sg81
g3456
sg74
(lp3503
g67
(g88
g69
NtRp3504
(dp3505
g72
(dp3506
g92
g93
ssg81
g3500
sg74
(lp3507
g3226
asbag67
(g88
g69
NtRp3508
(dp3509
g72
(dp3510
g99
g100
ssg81
g3500
sg74
(lp3511
S':'
asbag67
(g88
g69
NtRp3512
(dp3513
g72
(dp3514
sg81
g3500
sg74
(lp3515
g67
(g68
g69
NtRp3516
(dp3517
g72
(dp3518
g80
I4
ssg81
g3512
sg74
(lp3519
g3239
asbasbasbag67
(g83
g69
NtRp3520
(dp3521
g72
(dp3522
sg81
g3456
sg74
(lp3523
g67
(g88
g69
NtRp3524
(dp3525
g72
(dp3526
g92
g93
ssg81
g3520
sg74
(lp3527
g3248
asbag67
(g88
g69
NtRp3528
(dp3529
g72
(dp3530
g99
g100
ssg81
g3520
sg74
(lp3531
S':'
asbag67
(g88
g69
NtRp3532
(dp3533
g72
(dp3534
sg81
g3520
sg74
(lp3535
g67
(g68
g69
NtRp3536
(dp3537
g72
(dp3538
g80
I4
ssg81
g3532
sg74
(lp3539
g3261
asbasbasbag67
(g83
g69
NtRp3540
(dp3541
g72
(dp3542
sg81
g3456
sg74
(lp3543
g67
(g88
g69
NtRp3544
(dp3545
g72
(dp3546
g92
g93
ssg81
g3540
sg74
(lp3547
g3270
asbag67
(g88
g69
NtRp3548
(dp3549
g72
(dp3550
g99
g100
ssg81
g3540
sg74
(lp3551
S':'
asbag67
(g88
g69
NtRp3552
(dp3553
g72
(dp3554
sg81
g3540
sg74
(lp3555
g67
(g68
g69
NtRp3556
(dp3557
g72
(dp3558
g80
I4
ssg81
g3552
sg74
(lp3559
S'2'
asbasbasbag67
(g83
g69
NtRp3560
(dp3561
g72
(dp3562
sg81
g3456
sg74
(lp3563
g67
(g88
g69
NtRp3564
(dp3565
g72
(dp3566
g92
g93
ssg81
g3560
sg74
(lp3567
g3291
asbag67
(g88
g69
NtRp3568
(dp3569
g72
(dp3570
g99
g100
ssg81
g3560
sg74
(lp3571
S':'
asbag67
(g88
g69
NtRp3572
(dp3573
g72
(dp3574
sg81
g3560
sg74
(lp3575
g67
(g68
g69
NtRp3576
(dp3577
g72
(dp3578
g80
I4
ssg81
g3572
sg74
(lp3579
g3304
asbasbasbag67
(g83
g69
NtRp3580
(dp3581
g72
(dp3582
sg81
g3456
sg74
(lp3583
g67
(g88
g69
NtRp3584
(dp3585
g72
(dp3586
g92
g93
ssg81
g3580
sg74
(lp3587
g3313
asbag67
(g88
g69
NtRp3588
(dp3589
g72
(dp3590
g99
g100
ssg81
g3580
sg74
(lp3591
S':'
asbag67
(g88
g69
NtRp3592
(dp3593
g72
(dp3594
sg81
g3580
sg74
(lp3595
g67
(g68
g69
NtRp3596
(dp3597
g72
(dp3598
g80
I4
ssg81
g3592
sg74
(lp3599
S'1'
asbasbasbag67
(g83
g69
NtRp3600
(dp3601
g72
(dp3602
sg81
g3456
sg74
(lp3603
g67
(g88
g69
NtRp3604
(dp3605
g72
(dp3606
g92
g93
ssg81
g3600
sg74
(lp3607
g3334
asbag67
(g88
g69
NtRp3608
(dp3609
g72
(dp3610
g99
g100
ssg81
g3600
sg74
(lp3611
S':'
asbag67
(g88
g69
NtRp3612
(dp3613
g72
(dp3614
sg81
g3600
sg74
(lp3615
g67
(g68
g69
NtRp3616
(dp3617
g72
(dp3618
g80
I4
ssg81
g3612
sg74
(lp3619
S'1'
asbasbasbag67
(g83
g69
NtRp3620
(dp3621
g72
(dp3622
sg81
g3456
sg74
(lp3623
g67
(g88
g69
NtRp3624
(dp3625
g72
(dp3626
g92
g93
ssg81
g3620
sg74
(lp3627
g3355
asbag67
(g88
g69
NtRp3628
(dp3629
g72
(dp3630
g99
g100
ssg81
g3620
sg74
(lp3631
S':'
asbag67
(g88
g69
NtRp3632
(dp3633
g72
(dp3634
sg81
g3620
sg74
(lp3635
g67
(g68
g69
NtRp3636
(dp3637
g72
(dp3638
g80
I4
ssg81
g3632
sg74
(lp3639
g3368
asbasbasbasbasbasbasbag67
(g83
g69
NtRp3640
(dp3641
g72
(dp3642
sg81
g77
sg74
(lp3643
g67
(g88
g69
NtRp3644
(dp3645
g72
(dp3646
g92
g93
ssg81
g3640
sg74
(lp3647
S'wsgi'
p3648
asbag67
(g88
g69
NtRp3649
(dp3650
g72
(dp3651
g99
g100
ssg81
g3640
sg74
(lp3652
S':'
asbag67
(g88
g69
NtRp3653
(dp3654
g72
(dp3655
sg81
g3640
sg74
(lp3656
g67
(g68
g69
NtRp3657
(dp3658
g72
(dp3659
g80
I5
ssg81
g3653
sg74
(lp3660
g67
(g76
g69
NtRp3661
(dp3662
g72
(dp3663
g80
I4
ssg81
Nsg74
(lp3664
g67
(g83
g69
NtRp3665
(dp3666
g72
(dp3667
sg81
g3661
sg74
(lp3668
g67
(g88
g69
NtRp3669
(dp3670
g72
(dp3671
g92
g93
ssg81
g3665
sg74
(lp3672
S'environ'
p3673
asbag67
(g88
g69
NtRp3674
(dp3675
g72
(dp3676
g99
g100
ssg81
g3665
sg74
(lp3677
S':'
asbag67
(g88
g69
NtRp3678
(dp3679
g72
(dp3680
sg81
g3665
sg74
(lp3681
g67
(g68
g69
NtRp3682
(dp3683
g72
(dp3684
g80
I4
ssg81
g3678
sg74
(lp3685
g67
(g76
g69
NtRp3686
(dp3687
g72
(dp3688
g80
I3
ssg81
Nsg74
(lp3689
g67
(g83
g69
NtRp3690
(dp3691
g72
(dp3692
sg81
g3686
sg74
(lp3693
g67
(g88
g69
NtRp3694
(dp3695
g72
(dp3696
g92
g93
ssg81
g3690
sg74
(lp3697
S'CONTENT_LENGTH'
p3698
asbag67
(g88
g69
NtRp3699
(dp3700
g72
(dp3701
g99
g100
ssg81
g3690
sg74
(lp3702
S':'
asbag67
(g88
g69
NtRp3703
(dp3704
g72
(dp3705
sg81
g3690
sg74
(lp3706
g67
(g68
g69
NtRp3707
(dp3708
g72
(dp3709
g80
I3
ssg81
g3703
sg74
(lp3710
g1695
asbasbasbag67
(g83
g69
NtRp3711
(dp3712
g72
(dp3713
sg81
g3686
sg74
(lp3714
g67
(g88
g69
NtRp3715
(dp3716
g72
(dp3717
g92
g93
ssg81
g3711
sg74
(lp3718
S'CONTENT_TYPE'
p3719
asbag67
(g88
g69
NtRp3720
(dp3721
g72
(dp3722
g99
g100
ssg81
g3711
sg74
(lp3723
S':'
asbag67
(g88
g69
NtRp3724
(dp3725
g72
(dp3726
sg81
g3711
sg74
(lp3727
g67
(g68
g69
NtRp3728
(dp3729
g72
(dp3730
g80
I3
ssg81
g3724
sg74
(lp3731
g1717
asbasbasbag67
(g83
g69
NtRp3732
(dp3733
g72
(dp3734
sg81
g3686
sg74
(lp3735
g67
(g88
g69
NtRp3736
(dp3737
g72
(dp3738
g92
g93
ssg81
g3732
sg74
(lp3739
S'HTTP_ACCEPT'
p3740
asbag67
(g88
g69
NtRp3741
(dp3742
g72
(dp3743
g99
g100
ssg81
g3732
sg74
(lp3744
S':'
asbag67
(g88
g69
NtRp3745
(dp3746
g72
(dp3747
sg81
g3732
sg74
(lp3748
g67
(g68
g69
NtRp3749
(dp3750
g72
(dp3751
g80
I3
ssg81
g3745
sg74
(lp3752
g1804
asbasbasbag67
(g83
g69
NtRp3753
(dp3754
g72
(dp3755
sg81
g3686
sg74
(lp3756
g67
(g88
g69
NtRp3757
(dp3758
g72
(dp3759
g92
g93
ssg81
g3753
sg74
(lp3760
S'HTTP_ACCEPT_CHARSET'
p3761
asbag67
(g88
g69
NtRp3762
(dp3763
g72
(dp3764
g99
g100
ssg81
g3753
sg74
(lp3765
S':'
asbag67
(g88
g69
NtRp3766
(dp3767
g72
(dp3768
sg81
g3753
sg74
(lp3769
g67
(g68
g69
NtRp3770
(dp3771
g72
(dp3772
g80
I3
ssg81
g3766
sg74
(lp3773
g1826
asbasbasbag67
(g83
g69
NtRp3774
(dp3775
g72
(dp3776
sg81
g3686
sg74
(lp3777
g67
(g88
g69
NtRp3778
(dp3779
g72
(dp3780
g92
g93
ssg81
g3774
sg74
(lp3781
S'HTTP_ACCEPT_ENCODING'
p3782
asbag67
(g88
g69
NtRp3783
(dp3784
g72
(dp3785
g99
g100
ssg81
g3774
sg74
(lp3786
S':'
asbag67
(g88
g69
NtRp3787
(dp3788
g72
(dp3789
sg81
g3774
sg74
(lp3790
g67
(g68
g69
NtRp3791
(dp3792
g72
(dp3793
g80
I3
ssg81
g3787
sg74
(lp3794
g1848
asbasbasbag67
(g83
g69
NtRp3795
(dp3796
g72
(dp3797
sg81
g3686
sg74
(lp3798
g67
(g88
g69
NtRp3799
(dp3800
g72
(dp3801
g92
g93
ssg81
g3795
sg74
(lp3802
S'HTTP_ACCEPT_LANGUAGE'
p3803
asbag67
(g88
g69
NtRp3804
(dp3805
g72
(dp3806
g99
g100
ssg81
g3795
sg74
(lp3807
S':'
asbag67
(g88
g69
NtRp3808
(dp3809
g72
(dp3810
sg81
g3795
sg74
(lp3811
g67
(g68
g69
NtRp3812
(dp3813
g72
(dp3814
g80
I3
ssg81
g3808
sg74
(lp3815
g1870
asbasbasbag67
(g83
g69
NtRp3816
(dp3817
g72
(dp3818
sg81
g3686
sg74
(lp3819
g67
(g88
g69
NtRp3820
(dp3821
g72
(dp3822
g92
g93
ssg81
g3816
sg74
(lp3823
S'HTTP_CACHE_CONTROL'
p3824
asbag67
(g88
g69
NtRp3825
(dp3826
g72
(dp3827
g99
g100
ssg81
g3816
sg74
(lp3828
S':'
asbag67
(g88
g69
NtRp3829
(dp3830
g72
(dp3831
sg81
g3816
sg74
(lp3832
g67
(g68
g69
NtRp3833
(dp3834
g72
(dp3835
g80
I3
ssg81
g3829
sg74
(lp3836
g1892
asbasbasbag67
(g83
g69
NtRp3837
(dp3838
g72
(dp3839
sg81
g3686
sg74
(lp3840
g67
(g88
g69
NtRp3841
(dp3842
g72
(dp3843
g92
g93
ssg81
g3837
sg74
(lp3844
S'HTTP_CONNECTION'
p3845
asbag67
(g88
g69
NtRp3846
(dp3847
g72
(dp3848
g99
g100
ssg81
g3837
sg74
(lp3849
S':'
asbag67
(g88
g69
NtRp3850
(dp3851
g72
(dp3852
sg81
g3837
sg74
(lp3853
g67
(g68
g69
NtRp3854
(dp3855
g72
(dp3856
g80
I3
ssg81
g3850
sg74
(lp3857
g1914
asbasbasbag67
(g83
g69
NtRp3858
(dp3859
g72
(dp3860
sg81
g3686
sg74
(lp3861
g67
(g88
g69
NtRp3862
(dp3863
g72
(dp3864
g92
g93
ssg81
g3858
sg74
(lp3865
S'HTTP_CONTENT_LENGTH'
p3866
asbag67
(g88
g69
NtRp3867
(dp3868
g72
(dp3869
g99
g100
ssg81
g3858
sg74
(lp3870
S':'
asbag67
(g88
g69
NtRp3871
(dp3872
g72
(dp3873
sg81
g3858
sg74
(lp3874
g67
(g68
g69
NtRp3875
(dp3876
g72
(dp3877
g80
I3
ssg81
g3871
sg74
(lp3878
g1695
asbasbasbag67
(g83
g69
NtRp3879
(dp3880
g72
(dp3881
sg81
g3686
sg74
(lp3882
g67
(g88
g69
NtRp3883
(dp3884
g72
(dp3885
g92
g93
ssg81
g3879
sg74
(lp3886
S'HTTP_CONTENT_TYPE'
p3887
asbag67
(g88
g69
NtRp3888
(dp3889
g72
(dp3890
g99
g100
ssg81
g3879
sg74
(lp3891
S':'
asbag67
(g88
g69
NtRp3892
(dp3893
g72
(dp3894
sg81
g3879
sg74
(lp3895
g67
(g68
g69
NtRp3896
(dp3897
g72
(dp3898
g80
I3
ssg81
g3892
sg74
(lp3899
g1717
asbasbasbag67
(g83
g69
NtRp3900
(dp3901
g72
(dp3902
sg81
g3686
sg74
(lp3903
g67
(g88
g69
NtRp3904
(dp3905
g72
(dp3906
g92
g93
ssg81
g3900
sg74
(lp3907
S'HTTP_COOKIE'
p3908
asbag67
(g88
g69
NtRp3909
(dp3910
g72
(dp3911
g99
g100
ssg81
g3900
sg74
(lp3912
S':'
asbag67
(g88
g69
NtRp3913
(dp3914
g72
(dp3915
sg81
g3900
sg74
(lp3916
g67
(g68
g69
NtRp3917
(dp3918
g72
(dp3919
g80
I3
ssg81
g3913
sg74
(lp3920
g1978
asbasbasbag67
(g83
g69
NtRp3921
(dp3922
g72
(dp3923
sg81
g3686
sg74
(lp3924
g67
(g88
g69
NtRp3925
(dp3926
g72
(dp3927
g92
g93
ssg81
g3921
sg74
(lp3928
S'HTTP_HOST'
p3929
asbag67
(g88
g69
NtRp3930
(dp3931
g72
(dp3932
g99
g100
ssg81
g3921
sg74
(lp3933
S':'
asbag67
(g88
g69
NtRp3934
(dp3935
g72
(dp3936
sg81
g3921
sg74
(lp3937
g67
(g68
g69
NtRp3938
(dp3939
g72
(dp3940
g80
I3
ssg81
g3934
sg74
(lp3941
g2000
asbasbasbag67
(g83
g69
NtRp3942
(dp3943
g72
(dp3944
sg81
g3686
sg74
(lp3945
g67
(g88
g69
NtRp3946
(dp3947
g72
(dp3948
g92
g93
ssg81
g3942
sg74
(lp3949
S'HTTP_ORIGIN'
p3950
asbag67
(g88
g69
NtRp3951
(dp3952
g72
(dp3953
g99
g100
ssg81
g3942
sg74
(lp3954
S':'
asbag67
(g88
g69
NtRp3955
(dp3956
g72
(dp3957
sg81
g3942
sg74
(lp3958
g67
(g68
g69
NtRp3959
(dp3960
g72
(dp3961
g80
I3
ssg81
g3955
sg74
(lp3962
g2022
asbasbasbag67
(g83
g69
NtRp3963
(dp3964
g72
(dp3965
sg81
g3686
sg74
(lp3966
g67
(g88
g69
NtRp3967
(dp3968
g72
(dp3969
g92
g93
ssg81
g3963
sg74
(lp3970
S'HTTP_REFERER'
p3971
asbag67
(g88
g69
NtRp3972
(dp3973
g72
(dp3974
g99
g100
ssg81
g3963
sg74
(lp3975
S':'
asbag67
(g88
g69
NtRp3976
(dp3977
g72
(dp3978
sg81
g3963
sg74
(lp3979
g67
(g68
g69
NtRp3980
(dp3981
g72
(dp3982
g80
I3
ssg81
g3976
sg74
(lp3983
g2044
asbasbasbag67
(g83
g69
NtRp3984
(dp3985
g72
(dp3986
sg81
g3686
sg74
(lp3987
g67
(g88
g69
NtRp3988
(dp3989
g72
(dp3990
g92
g93
ssg81
g3984
sg74
(lp3991
S'HTTP_USER_AGENT'
p3992
asbag67
(g88
g69
NtRp3993
(dp3994
g72
(dp3995
g99
g100
ssg81
g3984
sg74
(lp3996
S':'
asbag67
(g88
g69
NtRp3997
(dp3998
g72
(dp3999
sg81
g3984
sg74
(lp4000
g67
(g68
g69
NtRp4001
(dp4002
g72
(dp4003
g80
I3
ssg81
g3997
sg74
(lp4004
g2066
asbasbasbag67
(g83
g69
NtRp4005
(dp4006
g72
(dp4007
sg81
g3686
sg74
(lp4008
g67
(g88
g69
NtRp4009
(dp4010
g72
(dp4011
g92
g93
ssg81
g4005
sg74
(lp4012
S'PATH_INFO'
p4013
asbag67
(g88
g69
NtRp4014
(dp4015
g72
(dp4016
g99
g100
ssg81
g4005
sg74
(lp4017
S':'
asbag67
(g88
g69
NtRp4018
(dp4019
g72
(dp4020
sg81
g4005
sg74
(lp4021
g67
(g68
g69
NtRp4022
(dp4023
g72
(dp4024
g80
I3
ssg81
g4018
sg74
(lp4025
g2130
asbasbasbag67
(g83
g69
NtRp4026
(dp4027
g72
(dp4028
sg81
g3686
sg74
(lp4029
g67
(g88
g69
NtRp4030
(dp4031
g72
(dp4032
g92
g93
ssg81
g4026
sg74
(lp4033
S'QUERY_STRING'
p4034
asbag67
(g88
g69
NtRp4035
(dp4036
g72
(dp4037
g99
g100
ssg81
g4026
sg74
(lp4038
S':'
asbag67
(g88
g69
NtRp4039
(dp4040
g72
(dp4041
sg81
g4026
sg74
(lp4042
g67
(g68
g69
NtRp4043
(dp4044
g72
(dp4045
g80
I3
ssg81
g4039
sg74
(lp4046
S''
asbasbasbag67
(g83
g69
NtRp4047
(dp4048
g72
(dp4049
sg81
g3686
sg74
(lp4050
g67
(g88
g69
NtRp4051
(dp4052
g72
(dp4053
g92
g93
ssg81
g4047
sg74
(lp4054
S'REMOTE_ADDR'
p4055
asbag67
(g88
g69
NtRp4056
(dp4057
g72
(dp4058
g99
g100
ssg81
g4047
sg74
(lp4059
S':'
asbag67
(g88
g69
NtRp4060
(dp4061
g72
(dp4062
sg81
g4047
sg74
(lp4063
g67
(g68
g69
NtRp4064
(dp4065
g72
(dp4066
g80
I3
ssg81
g4060
sg74
(lp4067
g200
asbasbasbag67
(g83
g69
NtRp4068
(dp4069
g72
(dp4070
sg81
g3686
sg74
(lp4071
g67
(g88
g69
NtRp4072
(dp4073
g72
(dp4074
g92
g93
ssg81
g4068
sg74
(lp4075
S'REMOTE_PORT'
p4076
asbag67
(g88
g69
NtRp4077
(dp4078
g72
(dp4079
g99
g100
ssg81
g4068
sg74
(lp4080
S':'
asbag67
(g88
g69
NtRp4081
(dp4082
g72
(dp4083
sg81
g4068
sg74
(lp4084
g67
(g68
g69
NtRp4085
(dp4086
g72
(dp4087
g80
I3
ssg81
g4081
sg74
(lp4088
g2194
asbasbasbag67
(g83
g69
NtRp4089
(dp4090
g72
(dp4091
sg81
g3686
sg74
(lp4092
g67
(g88
g69
NtRp4093
(dp4094
g72
(dp4095
g92
g93
ssg81
g4089
sg74
(lp4096
S'REQUEST_METHOD'
p4097
asbag67
(g88
g69
NtRp4098
(dp4099
g72
(dp4100
g99
g100
ssg81
g4089
sg74
(lp4101
S':'
asbag67
(g88
g69
NtRp4102
(dp4103
g72
(dp4104
sg81
g4089
sg74
(lp4105
g67
(g68
g69
NtRp4106
(dp4107
g72
(dp4108
g80
I3
ssg81
g4102
sg74
(lp4109
g2216
asbasbasbag67
(g83
g69
NtRp4110
(dp4111
g72
(dp4112
sg81
g3686
sg74
(lp4113
g67
(g88
g69
NtRp4114
(dp4115
g72
(dp4116
g92
g93
ssg81
g4110
sg74
(lp4117
S'SCRIPT_NAME'
p4118
asbag67
(g88
g69
NtRp4119
(dp4120
g72
(dp4121
g99
g100
ssg81
g4110
sg74
(lp4122
S':'
asbag67
(g88
g69
NtRp4123
(dp4124
g72
(dp4125
sg81
g4110
sg74
(lp4126
g67
(g68
g69
NtRp4127
(dp4128
g72
(dp4129
g80
I3
ssg81
g4123
sg74
(lp4130
S''
asbasbasbag67
(g83
g69
NtRp4131
(dp4132
g72
(dp4133
sg81
g3686
sg74
(lp4134
g67
(g88
g69
NtRp4135
(dp4136
g72
(dp4137
g92
g93
ssg81
g4131
sg74
(lp4138
S'SERVER_NAME'
p4139
asbag67
(g88
g69
NtRp4140
(dp4141
g72
(dp4142
g99
g100
ssg81
g4131
sg74
(lp4143
S':'
asbag67
(g88
g69
NtRp4144
(dp4145
g72
(dp4146
sg81
g4131
sg74
(lp4147
g67
(g68
g69
NtRp4148
(dp4149
g72
(dp4150
g80
I3
ssg81
g4144
sg74
(lp4151
g2259
asbasbasbag67
(g83
g69
NtRp4152
(dp4153
g72
(dp4154
sg81
g3686
sg74
(lp4155
g67
(g88
g69
NtRp4156
(dp4157
g72
(dp4158
g92
g93
ssg81
g4152
sg74
(lp4159
S'SERVER_PORT'
p4160
asbag67
(g88
g69
NtRp4161
(dp4162
g72
(dp4163
g99
g100
ssg81
g4152
sg74
(lp4164
S':'
asbag67
(g88
g69
NtRp4165
(dp4166
g72
(dp4167
sg81
g4152
sg74
(lp4168
g67
(g68
g69
NtRp4169
(dp4170
g72
(dp4171
g80
I3
ssg81
g4165
sg74
(lp4172
g2281
asbasbasbag67
(g83
g69
NtRp4173
(dp4174
g72
(dp4175
sg81
g3686
sg74
(lp4176
g67
(g88
g69
NtRp4177
(dp4178
g72
(dp4179
g92
g93
ssg81
g4173
sg74
(lp4180
S'SERVER_PROTOCOL'
p4181
asbag67
(g88
g69
NtRp4182
(dp4183
g72
(dp4184
g99
g100
ssg81
g4173
sg74
(lp4185
S':'
asbag67
(g88
g69
NtRp4186
(dp4187
g72
(dp4188
sg81
g4173
sg74
(lp4189
g67
(g68
g69
NtRp4190
(dp4191
g72
(dp4192
g80
I3
ssg81
g4186
sg74
(lp4193
g2303
asbasbasbag67
(g83
g69
NtRp4194
(dp4195
g72
(dp4196
sg81
g3686
sg74
(lp4197
g67
(g88
g69
NtRp4198
(dp4199
g72
(dp4200
g92
g93
ssg81
g4194
sg74
(lp4201
S'SERVER_SOFTWARE'
p4202
asbag67
(g88
g69
NtRp4203
(dp4204
g72
(dp4205
g99
g100
ssg81
g4194
sg74
(lp4206
S':'
asbag67
(g88
g69
NtRp4207
(dp4208
g72
(dp4209
sg81
g4194
sg74
(lp4210
g67
(g68
g69
NtRp4211
(dp4212
g72
(dp4213
g80
I3
ssg81
g4207
sg74
(lp4214
g2325
asbasbasbag67
(g83
g69
NtRp4215
(dp4216
g72
(dp4217
sg81
g3686
sg74
(lp4218
g67
(g88
g69
NtRp4219
(dp4220
g72
(dp4221
g92
g93
ssg81
g4215
sg74
(lp4222
S'wsgi.errors'
p4223
asbag67
(g88
g69
NtRp4224
(dp4225
g72
(dp4226
g99
g100
ssg81
g4215
sg74
(lp4227
S':'
asbag67
(g88
g69
NtRp4228
(dp4229
g72
(dp4230
sg81
g4215
sg74
(lp4231
g67
(g68
g69
NtRp4232
(dp4233
g72
(dp4234
g80
I3
ssg81
g4228
sg74
(lp4235
S"<open file '<stderr>', mode 'w' at 0x3410d0>"
p4236
asbasbasbag67
(g83
g69
NtRp4237
(dp4238
g72
(dp4239
sg81
g3686
sg74
(lp4240
g67
(g88
g69
NtRp4241
(dp4242
g72
(dp4243
g92
g93
ssg81
g4237
sg74
(lp4244
S'wsgi.file_wrapper'
p4245
asbag67
(g88
g69
NtRp4246
(dp4247
g72
(dp4248
g99
g100
ssg81
g4237
sg74
(lp4249
S':'
asbag67
(g88
g69
NtRp4250
(dp4251
g72
(dp4252
sg81
g4237
sg74
(lp4253
g67
(g68
g69
NtRp4254
(dp4255
g72
(dp4256
g80
I3
ssg81
g4250
sg74
(lp4257
S'<class wsgiref.util.FileWrapper at 0x18934b0>'
p4258
asbasbasbag67
(g83
g69
NtRp4259
(dp4260
g72
(dp4261
sg81
g3686
sg74
(lp4262
g67
(g88
g69
NtRp4263
(dp4264
g72
(dp4265
g92
g93
ssg81
g4259
sg74
(lp4266
S'wsgi.input'
p4267
asbag67
(g88
g69
NtRp4268
(dp4269
g72
(dp4270
g99
g100
ssg81
g4259
sg74
(lp4271
S':'
asbag67
(g88
g69
NtRp4272
(dp4273
g72
(dp4274
sg81
g4259
sg74
(lp4275
g67
(g68
g69
NtRp4276
(dp4277
g72
(dp4278
g80
I3
ssg81
g4272
sg74
(lp4279
S"<open file '<fdopen>', mode 'w+b' at 0x19e3fc80>"
p4280
asbasbasbag67
(g83
g69
NtRp4281
(dp4282
g72
(dp4283
sg81
g3686
sg74
(lp4284
g67
(g88
g69
NtRp4285
(dp4286
g72
(dp4287
g92
g93
ssg81
g4281
sg74
(lp4288
S'wsgi.multiprocess'
p4289
asbag67
(g88
g69
NtRp4290
(dp4291
g72
(dp4292
g99
g100
ssg81
g4281
sg74
(lp4293
S':'
asbag67
(g88
g69
NtRp4294
(dp4295
g72
(dp4296
sg81
g4281
sg74
(lp4297
g67
(g68
g69
NtRp4298
(dp4299
g72
(dp4300
g80
I3
ssg81
g4294
sg74
(lp4301
g110
asbasbasbag67
(g83
g69
NtRp4302
(dp4303
g72
(dp4304
sg81
g3686
sg74
(lp4305
g67
(g88
g69
NtRp4306
(dp4307
g72
(dp4308
g92
g93
ssg81
g4302
sg74
(lp4309
S'wsgi.multithread'
p4310
asbag67
(g88
g69
NtRp4311
(dp4312
g72
(dp4313
g99
g100
ssg81
g4302
sg74
(lp4314
S':'
asbag67
(g88
g69
NtRp4315
(dp4316
g72
(dp4317
sg81
g4302
sg74
(lp4318
g67
(g68
g69
NtRp4319
(dp4320
g72
(dp4321
g80
I3
ssg81
g4315
sg74
(lp4322
g2564
asbasbasbag67
(g83
g69
NtRp4323
(dp4324
g72
(dp4325
sg81
g3686
sg74
(lp4326
g67
(g88
g69
NtRp4327
(dp4328
g72
(dp4329
g92
g93
ssg81
g4323
sg74
(lp4330
S'wsgi.run_once'
p4331
asbag67
(g88
g69
NtRp4332
(dp4333
g72
(dp4334
g99
g100
ssg81
g4323
sg74
(lp4335
S':'
asbag67
(g88
g69
NtRp4336
(dp4337
g72
(dp4338
sg81
g4323
sg74
(lp4339
g67
(g68
g69
NtRp4340
(dp4341
g72
(dp4342
g80
I3
ssg81
g4336
sg74
(lp4343
g110
asbasbasbag67
(g83
g69
NtRp4344
(dp4345
g72
(dp4346
sg81
g3686
sg74
(lp4347
g67
(g88
g69
NtRp4348
(dp4349
g72
(dp4350
g92
g93
ssg81
g4344
sg74
(lp4351
S'wsgi.url_scheme'
p4352
asbag67
(g88
g69
NtRp4353
(dp4354
g72
(dp4355
g99
g100
ssg81
g4344
sg74
(lp4356
S':'
asbag67
(g88
g69
NtRp4357
(dp4358
g72
(dp4359
sg81
g4344
sg74
(lp4360
g67
(g68
g69
NtRp4361
(dp4362
g72
(dp4363
g80
I3
ssg81
g4357
sg74
(lp4364
g2607
asbasbasbag67
(g83
g69
NtRp4365
(dp4366
g72
(dp4367
sg81
g3686
sg74
(lp4368
g67
(g88
g69
NtRp4369
(dp4370
g72
(dp4371
g92
g93
ssg81
g4365
sg74
(lp4372
S'wsgi.version'
p4373
asbag67
(g88
g69
NtRp4374
(dp4375
g72
(dp4376
g99
g100
ssg81
g4365
sg74
(lp4377
S':'
asbag67
(g88
g69
NtRp4378
(dp4379
g72
(dp4380
sg81
g4365
sg74
(lp4381
g67
(g68
g69
NtRp4382
(dp4383
g72
(dp4384
g80
I3
ssg81
g4378
sg74
(lp4385
S'1'
asbasbasbasbasbasbasbasbasbasbasbasbasbsS'frames'
p4386
(lp4387
(dp4388
S'file'
p4389
S'/web2pyTrunk/gluon/restricted.py'
p4390
sS'dump'
p4391
(dp4392
S'environment'
p4393
S"{'A': <class 'gluon.html.A'>, 'ALLOW_THREADS': 1, 'Annotation': <class 'matplotlib.text.Annotation'>, 'Arrow': <class 'matplotlib.patches.Arrow'>, 'Artist': <class 'matplotlib.artist.Artist'>, 'Auth': <class 'gluon.tools.Auth'>, 'AutoLocator': <class matplotlib.ticker.AutoLocator>, 'Axes': <class 'matplotlib.axes.Axes'>, 'B': <class 'gluon.html.B'>, 'BEAUTIFY': <class 'gluon.html.BEAUTIFY'>, ...}"
p4394
sS'ccode'
p4395
S'<code object <module> at 0x1873ac80, file "/web2...cations/GPIBHWS/controllers/default.py", line 10>'
p4396
ssS'lnum'
p4397
I205
sS'lines'
p4398
(dp4399
I200
S'    try:'
p4400
sI201
S'        if type(code) == types.CodeType:'
p4401
sI202
S'            ccode = code'
p4402
sI203
S'        else:'
p4403
sI204
S'            ccode = compile2(code,layer)'
p4404
sI205
S'        exec ccode in environment'
p4405
sI206
S'    except HTTP:'
p4406
sI207
S'        raise'
p4407
sI208
S'    except RestrictedError:'
p4408
sI209
S'        # do not encapsulate (obfuscate) the original RestrictedError'
p4409
ssS'call'
p4410
S"(code='# -*- coding: utf-8 -*-\\n\\n#######################...=crud())\\n\\nresponse._vars=response._caller(index)\\n', environment={'A': <class 'gluon.html.A'>, 'ALLOW_THREADS': 1, 'Annotation': <class 'matplotlib.text.Annotation'>, 'Arrow': <class 'matplotlib.patches.Arrow'>, 'Artist': <class 'matplotlib.artist.Artist'>, 'Auth': <class 'gluon.tools.Auth'>, 'AutoLocator': <class matplotlib.ticker.AutoLocator>, 'Axes': <class 'matplotlib.axes.Axes'>, 'B': <class 'gluon.html.B'>, 'BEAUTIFY': <class 'gluon.html.BEAUTIFY'>, ...}, layer='/web2pyTrunk/applications/GPIBHWS/controllers/default.py')"
p4411
sS'func'
p4412
S'restricted'
p4413
sa(dp4414
g4389
S'/web2pyTrunk/applications/GPIBHWS/controllers/default.py'
p4415
sg4391
(dp4416
sg4397
I689
sg4398
(dp4417
I678
S'    http://..../[app]/default/data/update/[table]/[id]'
p4418
sI679
S'    http://..../[app]/default/data/delete/[table]/[id]'
p4419
sI680
S'    http://..../[app]/default/data/select/[table]'
p4420
sI681
S'    http://..../[app]/default/data/search/[table]'
p4421
sI682
S'    but URLs must be signed, i.e. linked with'
p4422
sI683
S"      A('table',_href=URL('data/tables',user_signature=True))"
p4423
sI684
S'    or with the signed load operator'
p4424
sI685
S"      LOAD('default','data.load',args='tables',ajax=True,user_signature=True)"
p4425
sI686
S'    """'
p4426
sI687
S'    return dict(form=crud())'
p4427
ssg4410
S'()'
p4428
sg4412
S'<module>'
p4429
sa(dp4430
g4389
S'/web2pyTrunk/gluon/globals.py'
p4431
sg4391
(dp4432
S'self'
p4433
S'undefined'
p4434
sS'f'
S'<function index>'
p4435
ssg4397
I182
sg4398
(dp4436
I177
S'        self.menu = []             # used by the default view layout'
p4437
sI178
S'        self.files = []            # used by web2py_ajax.html'
p4438
sI179
S'        self.generic_patterns = [] # patterns to allow generic views'
p4439
sI180
S"        self.delimiters = ('{{','}}')"
p4440
sI181
S'        self._vars = None'
p4441
sI182
S'        self._caller = lambda f: f()'
p4442
sI183
S'        self._view_environment = None'
p4443
sI184
S'        self._custom_commit = None'
p4444
sI185
S'        self._custom_rollback = None'
p4445
sI186
S''
ssg4410
S'(f=<function index>)'
p4446
sg4412
S'<lambda>'
p4447
sa(dp4448
g4389
S'/web2pyTrunk/applications/GPIBHWS/controllers/default.py'
p4449
sg4391
(dp4450
S'ms_check'
p4451
S"'0\\r\\n'"
p4452
sS'sock.recv'
p4453
S'<built-in method recv of _socket.socket object>'
p4454
sS'sock'
p4455
S'<socket._socketobject object>'
p4456
ssg4397
I284
sg4398
(dp4457
I288
S'                        sock.send("DDAS;" + NL)'
p4458
sI279
S'                            time.sleep(10)'
p4459
sI280
S'                            sock.send("SMSD;" + NL)'
p4460
sI281
S'                            time.sleep(10)'
p4461
sI282
S'                            sock.send("++read eoi" + NL)'
p4462
sI283
S'                            time.sleep(4)'
p4463
sI284
S'                            ms_check = sock.recv(64)'
p4464
sI285
S'                            time.sleep(1)'
p4465
sI286
S''
sI287
S'                        # Active Data Trace Dump in ASCII'
p4466
ssg4410
S'()'
p4467
sg4412
S'index'
p4468
sasS'pyver'
p4469
S'Python 2.6.6: /Library/Frameworks/Python.framework/Versions/2.6/Resources/Python.app/Contents/MacOS/Python'
p4470
sS'session'
p4471
g67
(g68
g69
NtRp4472
(dp4473
g72
(dp4474
sg74
(lp4475
g67
(g76
g69
NtRp4476
(dp4477
g72
(dp4478
g80
I5
ssg81
Nsg74
(lp4479
g67
(g83
g69
NtRp4480
(dp4481
g72
(dp4482
sg81
g4476
sg74
(lp4483
g67
(g88
g69
NtRp4484
(dp4485
g72
(dp4486
g92
g93
ssg81
g4480
sg74
(lp4487
S'run_type'
p4488
asbag67
(g88
g69
NtRp4489
(dp4490
g72
(dp4491
g99
g100
ssg81
g4480
sg74
(lp4492
S':'
asbag67
(g88
g69
NtRp4493
(dp4494
g72
(dp4495
sg81
g4480
sg74
(lp4496
g67
(g68
g69
NtRp4497
(dp4498
g72
(dp4499
g80
I5
ssg81
g4493
sg74
(lp4500
g3304
asbasbasbasbasbsS'etype'
p4501
S"<class 'socket.timeout'>"
p4502
sS'date'
p4503
S'Fri Jul 27 05:37:20 2012'
p4504
sS'response'
p4505
g67
(g68
g69
NtRp4506
(dp4507
g72
(dp4508
sg74
(lp4509
g67
(g76
g69
NtRp4510
(dp4511
g72
(dp4512
g80
I5
ssg81
Nsg74
(lp4513
g67
(g83
g69
NtRp4514
(dp4515
g72
(dp4516
sg81
g4510
sg74
(lp4517
g67
(g88
g69
NtRp4518
(dp4519
g72
(dp4520
g92
g93
ssg81
g4514
sg74
(lp4521
g165
asbag67
(g88
g69
NtRp4522
(dp4523
g72
(dp4524
g99
g100
ssg81
g4514
sg74
(lp4525
S':'
asbag67
(g88
g69
NtRp4526
(dp4527
g72
(dp4528
sg81
g4514
sg74
(lp4529
g67
(g68
g69
NtRp4530
(dp4531
g72
(dp4532
g80
I5
ssg81
g4526
sg74
(lp4533
S'<cStringIO.StringO object at 0x19efe0e0>'
p4534
asbasbasbag67
(g83
g69
NtRp4535
(dp4536
g72
(dp4537
sg81
g4510
sg74
(lp4538
g67
(g88
g69
NtRp4539
(dp4540
g72
(dp4541
g92
g93
ssg81
g4535
sg74
(lp4542
g231
asbag67
(g88
g69
NtRp4543
(dp4544
g72
(dp4545
g99
g100
ssg81
g4535
sg74
(lp4546
S':'
asbag67
(g88
g69
NtRp4547
(dp4548
g72
(dp4549
sg81
g4535
sg74
(lp4550
g67
(g68
g69
NtRp4551
(dp4552
g72
(dp4553
g80
I5
ssg81
g4547
sg74
(lp4554
g67
(g76
g69
NtRp4555
(dp4556
g72
(dp4557
g80
I4
ssg81
Nsg74
(lp4558
g67
(g83
g69
NtRp4559
(dp4560
g72
(dp4561
sg81
g4555
sg74
(lp4562
g67
(g88
g69
NtRp4563
(dp4564
g72
(dp4565
g92
g93
ssg81
g4559
sg74
(lp4566
S'session_id_gpibhws'
p4567
asbag67
(g88
g69
NtRp4568
(dp4569
g72
(dp4570
g99
g100
ssg81
g4559
sg74
(lp4571
S':'
asbag67
(g88
g69
NtRp4572
(dp4573
g72
(dp4574
sg81
g4559
sg74
(lp4575
g67
(g68
g69
NtRp4576
(dp4577
g72
(dp4578
g80
I4
ssg81
g4572
sg74
(lp4579
g835
ag67
(g76
g69
NtRp4580
(dp4581
g72
(dp4582
g80
I3
ssg81
Nsg74
(lp4583
g67
(g83
g69
NtRp4584
(dp4585
g72
(dp4586
sg81
g4580
sg74
(lp4587
g67
(g88
g69
NtRp4588
(dp4589
g72
(dp4590
g92
g93
ssg81
g4584
sg74
(lp4591
g282
asbag67
(g88
g69
NtRp4592
(dp4593
g72
(dp4594
g99
g100
ssg81
g4584
sg74
(lp4595
S':'
asbag67
(g88
g69
NtRp4596
(dp4597
g72
(dp4598
sg81
g4584
sg74
(lp4599
g67
(g68
g69
NtRp4600
(dp4601
g72
(dp4602
g80
I3
ssg81
g4596
sg74
(lp4603
S''
asbasbasbag67
(g83
g69
NtRp4604
(dp4605
g72
(dp4606
sg81
g4580
sg74
(lp4607
g67
(g88
g69
NtRp4608
(dp4609
g72
(dp4610
g92
g93
ssg81
g4604
sg74
(lp4611
g303
asbag67
(g88
g69
NtRp4612
(dp4613
g72
(dp4614
g99
g100
ssg81
g4604
sg74
(lp4615
S':'
asbag67
(g88
g69
NtRp4616
(dp4617
g72
(dp4618
sg81
g4604
sg74
(lp4619
g67
(g68
g69
NtRp4620
(dp4621
g72
(dp4622
g80
I3
ssg81
g4616
sg74
(lp4623
S''
asbasbasbag67
(g83
g69
NtRp4624
(dp4625
g72
(dp4626
sg81
g4580
sg74
(lp4627
g67
(g88
g69
NtRp4628
(dp4629
g72
(dp4630
g92
g93
ssg81
g4624
sg74
(lp4631
g324
asbag67
(g88
g69
NtRp4632
(dp4633
g72
(dp4634
g99
g100
ssg81
g4624
sg74
(lp4635
S':'
asbag67
(g88
g69
NtRp4636
(dp4637
g72
(dp4638
sg81
g4624
sg74
(lp4639
g67
(g68
g69
NtRp4640
(dp4641
g72
(dp4642
g80
I3
ssg81
g4636
sg74
(lp4643
S''
asbasbasbag67
(g83
g69
NtRp4644
(dp4645
g72
(dp4646
sg81
g4580
sg74
(lp4647
g67
(g88
g69
NtRp4648
(dp4649
g72
(dp4650
g92
g93
ssg81
g4644
sg74
(lp4651
g345
asbag67
(g88
g69
NtRp4652
(dp4653
g72
(dp4654
g99
g100
ssg81
g4644
sg74
(lp4655
S':'
asbag67
(g88
g69
NtRp4656
(dp4657
g72
(dp4658
sg81
g4644
sg74
(lp4659
g67
(g68
g69
NtRp4660
(dp4661
g72
(dp4662
g80
I3
ssg81
g4656
sg74
(lp4663
S''
asbasbasbag67
(g83
g69
NtRp4664
(dp4665
g72
(dp4666
sg81
g4580
sg74
(lp4667
g67
(g88
g69
NtRp4668
(dp4669
g72
(dp4670
g92
g93
ssg81
g4664
sg74
(lp4671
g366
asbag67
(g88
g69
NtRp4672
(dp4673
g72
(dp4674
g99
g100
ssg81
g4664
sg74
(lp4675
S':'
asbag67
(g88
g69
NtRp4676
(dp4677
g72
(dp4678
sg81
g4664
sg74
(lp4679
g67
(g68
g69
NtRp4680
(dp4681
g72
(dp4682
g80
I3
ssg81
g4676
sg74
(lp4683
S''
asbasbasbag67
(g83
g69
NtRp4684
(dp4685
g72
(dp4686
sg81
g4580
sg74
(lp4687
g67
(g88
g69
NtRp4688
(dp4689
g72
(dp4690
g92
g93
ssg81
g4684
sg74
(lp4691
g387
asbag67
(g88
g69
NtRp4692
(dp4693
g72
(dp4694
g99
g100
ssg81
g4684
sg74
(lp4695
S':'
asbag67
(g88
g69
NtRp4696
(dp4697
g72
(dp4698
sg81
g4684
sg74
(lp4699
g67
(g68
g69
NtRp4700
(dp4701
g72
(dp4702
g80
I3
ssg81
g4696
sg74
(lp4703
S'/'
asbasbasbag67
(g83
g69
NtRp4704
(dp4705
g72
(dp4706
sg81
g4580
sg74
(lp4707
g67
(g88
g69
NtRp4708
(dp4709
g72
(dp4710
g92
g93
ssg81
g4704
sg74
(lp4711
g408
asbag67
(g88
g69
NtRp4712
(dp4713
g72
(dp4714
g99
g100
ssg81
g4704
sg74
(lp4715
S':'
asbag67
(g88
g69
NtRp4716
(dp4717
g72
(dp4718
sg81
g4704
sg74
(lp4719
g67
(g68
g69
NtRp4720
(dp4721
g72
(dp4722
g80
I3
ssg81
g4716
sg74
(lp4723
S''
asbasbasbag67
(g83
g69
NtRp4724
(dp4725
g72
(dp4726
sg81
g4580
sg74
(lp4727
g67
(g88
g69
NtRp4728
(dp4729
g72
(dp4730
g92
g93
ssg81
g4724
sg74
(lp4731
g429
asbag67
(g88
g69
NtRp4732
(dp4733
g72
(dp4734
g99
g100
ssg81
g4724
sg74
(lp4735
S':'
asbag67
(g88
g69
NtRp4736
(dp4737
g72
(dp4738
sg81
g4724
sg74
(lp4739
g67
(g68
g69
NtRp4740
(dp4741
g72
(dp4742
g80
I3
ssg81
g4736
sg74
(lp4743
S''
asbasbasbasbasbasbasbasbasbasbasbag67
(g83
g69
NtRp4744
(dp4745
g72
(dp4746
sg81
g4510
sg74
(lp4747
g67
(g88
g69
NtRp4748
(dp4749
g72
(dp4750
g92
g93
ssg81
g4744
sg74
(lp4751
S'delimiters'
p4752
asbag67
(g88
g69
NtRp4753
(dp4754
g72
(dp4755
g99
g100
ssg81
g4744
sg74
(lp4756
S':'
asbag67
(g88
g69
NtRp4757
(dp4758
g72
(dp4759
sg81
g4744
sg74
(lp4760
g67
(g68
g69
NtRp4761
(dp4762
g72
(dp4763
g80
I5
ssg81
g4757
sg74
(lp4764
g67
(g76
g69
NtRp4765
(dp4766
g72
(dp4767
g80
I4
ssg81
Nsg74
(lp4768
g67
(g83
g69
NtRp4769
(dp4770
g72
(dp4771
sg81
g4765
sg74
(lp4772
g67
(g88
g69
NtRp4773
(dp4774
g72
(dp4775
sg81
g4769
sg74
(lp4776
g67
(g68
g69
NtRp4777
(dp4778
g72
(dp4779
g80
I4
ssg81
g4773
sg74
(lp4780
S'{{'
p4781
asbasbasbag67
(g83
g69
NtRp4782
(dp4783
g72
(dp4784
sg81
g4765
sg74
(lp4785
g67
(g88
g69
NtRp4786
(dp4787
g72
(dp4788
sg81
g4782
sg74
(lp4789
g67
(g68
g69
NtRp4790
(dp4791
g72
(dp4792
g80
I4
ssg81
g4786
sg74
(lp4793
S'}}'
p4794
asbasbasbasbasbasbasbag67
(g83
g69
NtRp4795
(dp4796
g72
(dp4797
sg81
g4510
sg74
(lp4798
g67
(g88
g69
NtRp4799
(dp4800
g72
(dp4801
g92
g93
ssg81
g4795
sg74
(lp4802
S'files'
p4803
asbag67
(g88
g69
NtRp4804
(dp4805
g72
(dp4806
g99
g100
ssg81
g4795
sg74
(lp4807
S':'
asbag67
(g88
g69
NtRp4808
(dp4809
g72
(dp4810
sg81
g4795
sg74
(lp4811
g67
(g68
g69
NtRp4812
(dp4813
g72
(dp4814
g80
I5
ssg81
g4808
sg74
(lp4815
g67
(g76
g69
NtRp4816
(dp4817
g72
(dp4818
g80
I4
ssg81
Nsg74
(lp4819
sbasbasbasbag67
(g83
g69
NtRp4820
(dp4821
g72
(dp4822
sg81
g4510
sg74
(lp4823
g67
(g88
g69
NtRp4824
(dp4825
g72
(dp4826
g92
g93
ssg81
g4820
sg74
(lp4827
S'flash'
p4828
asbag67
(g88
g69
NtRp4829
(dp4830
g72
(dp4831
g99
g100
ssg81
g4820
sg74
(lp4832
S':'
asbag67
(g88
g69
NtRp4833
(dp4834
g72
(dp4835
sg81
g4820
sg74
(lp4836
g67
(g68
g69
NtRp4837
(dp4838
g72
(dp4839
g80
I5
ssg81
g4833
sg74
(lp4840
S''
asbasbasbag67
(g83
g69
NtRp4841
(dp4842
g72
(dp4843
sg81
g4510
sg74
(lp4844
g67
(g88
g69
NtRp4845
(dp4846
g72
(dp4847
g92
g93
ssg81
g4841
sg74
(lp4848
S'generic_patterns'
p4849
asbag67
(g88
g69
NtRp4850
(dp4851
g72
(dp4852
g99
g100
ssg81
g4841
sg74
(lp4853
S':'
asbag67
(g88
g69
NtRp4854
(dp4855
g72
(dp4856
sg81
g4841
sg74
(lp4857
g67
(g68
g69
NtRp4858
(dp4859
g72
(dp4860
g80
I5
ssg81
g4854
sg74
(lp4861
g67
(g76
g69
NtRp4862
(dp4863
g72
(dp4864
g80
I4
ssg81
Nsg74
(lp4865
g67
(g83
g69
NtRp4866
(dp4867
g72
(dp4868
sg81
g4862
sg74
(lp4869
g67
(g88
g69
NtRp4870
(dp4871
g72
(dp4872
sg81
g4866
sg74
(lp4873
g67
(g68
g69
NtRp4874
(dp4875
g72
(dp4876
g80
I4
ssg81
g4870
sg74
(lp4877
S'*'
asbasbasbasbasbasbasbag67
(g83
g69
NtRp4878
(dp4879
g72
(dp4880
sg81
g4510
sg74
(lp4881
g67
(g88
g69
NtRp4882
(dp4883
g72
(dp4884
g92
g93
ssg81
g4878
sg74
(lp4885
S'headers'
p4886
asbag67
(g88
g69
NtRp4887
(dp4888
g72
(dp4889
g99
g100
ssg81
g4878
sg74
(lp4890
S':'
asbag67
(g88
g69
NtRp4891
(dp4892
g72
(dp4893
sg81
g4878
sg74
(lp4894
g67
(g68
g69
NtRp4895
(dp4896
g72
(dp4897
g80
I5
ssg81
g4891
sg74
(lp4898
g67
(g76
g69
NtRp4899
(dp4900
g72
(dp4901
g80
I4
ssg81
Nsg74
(lp4902
g67
(g83
g69
NtRp4903
(dp4904
g72
(dp4905
sg81
g4899
sg74
(lp4906
g67
(g88
g69
NtRp4907
(dp4908
g72
(dp4909
g92
g93
ssg81
g4903
sg74
(lp4910
S'Cache-Control'
p4911
asbag67
(g88
g69
NtRp4912
(dp4913
g72
(dp4914
g99
g100
ssg81
g4903
sg74
(lp4915
S':'
asbag67
(g88
g69
NtRp4916
(dp4917
g72
(dp4918
sg81
g4903
sg74
(lp4919
g67
(g68
g69
NtRp4920
(dp4921
g72
(dp4922
g80
I4
ssg81
g4916
sg74
(lp4923
S'no-store, no-cache, must-revalidate, post-check=0, pre-check=0'
p4924
asbasbasbag67
(g83
g69
NtRp4925
(dp4926
g72
(dp4927
sg81
g4899
sg74
(lp4928
g67
(g88
g69
NtRp4929
(dp4930
g72
(dp4931
g92
g93
ssg81
g4925
sg74
(lp4932
S'Content-Type'
p4933
asbag67
(g88
g69
NtRp4934
(dp4935
g72
(dp4936
g99
g100
ssg81
g4925
sg74
(lp4937
S':'
asbag67
(g88
g69
NtRp4938
(dp4939
g72
(dp4940
sg81
g4925
sg74
(lp4941
g67
(g68
g69
NtRp4942
(dp4943
g72
(dp4944
g80
I4
ssg81
g4938
sg74
(lp4945
S'text/html; charset=utf-8'
p4946
asbasbasbag67
(g83
g69
NtRp4947
(dp4948
g72
(dp4949
sg81
g4899
sg74
(lp4950
g67
(g88
g69
NtRp4951
(dp4952
g72
(dp4953
g92
g93
ssg81
g4947
sg74
(lp4954
S'Expires'
p4955
asbag67
(g88
g69
NtRp4956
(dp4957
g72
(dp4958
g99
g100
ssg81
g4947
sg74
(lp4959
S':'
asbag67
(g88
g69
NtRp4960
(dp4961
g72
(dp4962
sg81
g4947
sg74
(lp4963
g67
(g68
g69
NtRp4964
(dp4965
g72
(dp4966
g80
I4
ssg81
g4960
sg74
(lp4967
S'Fri, 27 Jul 2012 09:31:28 GMT'
p4968
asbasbasbag67
(g83
g69
NtRp4969
(dp4970
g72
(dp4971
sg81
g4899
sg74
(lp4972
g67
(g88
g69
NtRp4973
(dp4974
g72
(dp4975
g92
g93
ssg81
g4969
sg74
(lp4976
S'Pragma'
p4977
asbag67
(g88
g69
NtRp4978
(dp4979
g72
(dp4980
g99
g100
ssg81
g4969
sg74
(lp4981
S':'
asbag67
(g88
g69
NtRp4982
(dp4983
g72
(dp4984
sg81
g4969
sg74
(lp4985
g67
(g68
g69
NtRp4986
(dp4987
g72
(dp4988
g80
I4
ssg81
g4982
sg74
(lp4989
S'no-cache'
p4990
asbasbasbag67
(g83
g69
NtRp4991
(dp4992
g72
(dp4993
sg81
g4899
sg74
(lp4994
g67
(g88
g69
NtRp4995
(dp4996
g72
(dp4997
g92
g93
ssg81
g4991
sg74
(lp4998
S'X-Powered-By'
p4999
asbag67
(g88
g69
NtRp5000
(dp5001
g72
(dp5002
g99
g100
ssg81
g4991
sg74
(lp5003
S':'
asbag67
(g88
g69
NtRp5004
(dp5005
g72
(dp5006
sg81
g4991
sg74
(lp5007
g67
(g68
g69
NtRp5008
(dp5009
g72
(dp5010
g80
I4
ssg81
g5004
sg74
(lp5011
S'web2py'
p5012
asbasbasbasbasbasbasbag67
(g83
g69
NtRp5013
(dp5014
g72
(dp5015
sg81
g4510
sg74
(lp5016
g67
(g88
g69
NtRp5017
(dp5018
g72
(dp5019
g92
g93
ssg81
g5013
sg74
(lp5020
S'menu'
p5021
asbag67
(g88
g69
NtRp5022
(dp5023
g72
(dp5024
g99
g100
ssg81
g5013
sg74
(lp5025
S':'
asbag67
(g88
g69
NtRp5026
(dp5027
g72
(dp5028
sg81
g5013
sg74
(lp5029
g67
(g68
g69
NtRp5030
(dp5031
g72
(dp5032
g80
I5
ssg81
g5026
sg74
(lp5033
g67
(g76
g69
NtRp5034
(dp5035
g72
(dp5036
g80
I4
ssg81
Nsg74
(lp5037
g67
(g83
g69
NtRp5038
(dp5039
g72
(dp5040
sg81
g5034
sg74
(lp5041
g67
(g88
g69
NtRp5042
(dp5043
g72
(dp5044
sg81
g5038
sg74
(lp5045
g67
(g68
g69
NtRp5046
(dp5047
g72
(dp5048
g80
I4
ssg81
g5042
sg74
(lp5049
g67
(g76
g69
NtRp5050
(dp5051
g72
(dp5052
g80
I3
ssg81
Nsg74
(lp5053
g67
(g83
g69
NtRp5054
(dp5055
g72
(dp5056
sg81
g5050
sg74
(lp5057
g67
(g88
g69
NtRp5058
(dp5059
g72
(dp5060
sg81
g5054
sg74
(lp5061
g67
(g68
g69
NtRp5062
(dp5063
g72
(dp5064
g80
I3
ssg81
g5058
sg74
(lp5065
cgluon.languages
lazyT_unpickle
p5066
(S's\x04\x00\x00\x00Home'
tRp5067
asbasbasbag67
(g83
g69
NtRp5068
(dp5069
g72
(dp5070
sg81
g5050
sg74
(lp5071
g67
(g88
g69
NtRp5072
(dp5073
g72
(dp5074
sg81
g5068
sg74
(lp5075
g67
(g68
g69
NtRp5076
(dp5077
g72
(dp5078
g80
I3
ssg81
g5072
sg74
(lp5079
g110
asbasbasbag67
(g83
g69
NtRp5080
(dp5081
g72
(dp5082
sg81
g5050
sg74
(lp5083
g67
(g88
g69
NtRp5084
(dp5085
g72
(dp5086
sg81
g5080
sg74
(lp5087
g67
(g68
g69
NtRp5088
(dp5089
g72
(dp5090
g80
I3
ssg81
g5084
sg74
(lp5091
S'/GPIBHWS/default/index'
p5092
asbasbasbag67
(g83
g69
NtRp5093
(dp5094
g72
(dp5095
sg81
g5050
sg74
(lp5096
g67
(g88
g69
NtRp5097
(dp5098
g72
(dp5099
sg81
g5093
sg74
(lp5100
g67
(g68
g69
NtRp5101
(dp5102
g72
(dp5103
g80
I3
ssg81
g5097
sg74
(lp5104
g67
(g76
g69
NtRp5105
(dp5106
g72
(dp5107
g80
I2
ssg81
Nsg74
(lp5108
sbasbasbasbasbasbasbasbag67
(g83
g69
NtRp5109
(dp5110
g72
(dp5111
sg81
g5034
sg74
(lp5112
g67
(g88
g69
NtRp5113
(dp5114
g72
(dp5115
sg81
g5109
sg74
(lp5116
g67
(g68
g69
NtRp5117
(dp5118
g72
(dp5119
g80
I4
ssg81
g5113
sg74
(lp5120
g67
(g76
g69
NtRp5121
(dp5122
g72
(dp5123
g80
I3
ssg81
Nsg74
(lp5124
g67
(g83
g69
NtRp5125
(dp5126
g72
(dp5127
sg81
g5121
sg74
(lp5128
g67
(g88
g69
NtRp5129
(dp5130
g72
(dp5131
sg81
g5125
sg74
(lp5132
g67
(g68
g69
NtRp5133
(dp5134
g72
(dp5135
g80
I3
ssg81
g5129
sg74
(lp5136
g67
(cgluon.html
SPAN
p5137
g69
NtRp5138
(dp5139
g72
(dp5140
g92
S'color:yellow'
p5141
ssg81
Nsg74
(lp5142
g5012
asbasbasbasbag67
(g83
g69
NtRp5143
(dp5144
g72
(dp5145
sg81
g5121
sg74
(lp5146
g67
(g88
g69
NtRp5147
(dp5148
g72
(dp5149
sg81
g5143
sg74
(lp5150
g67
(g68
g69
NtRp5151
(dp5152
g72
(dp5153
g80
I3
ssg81
g5147
sg74
(lp5154
g110
asbasbasbag67
(g83
g69
NtRp5155
(dp5156
g72
(dp5157
sg81
g5121
sg74
(lp5158
g67
(g88
g69
NtRp5159
(dp5160
g72
(dp5161
sg81
g5155
sg74
(lp5162
g67
(g68
g69
NtRp5163
(dp5164
g72
(dp5165
g80
I3
ssg81
g5159
sg74
(lp5166
S'None'
p5167
asbasbasbag67
(g83
g69
NtRp5168
(dp5169
g72
(dp5170
sg81
g5121
sg74
(lp5171
g67
(g88
g69
NtRp5172
(dp5173
g72
(dp5174
sg81
g5168
sg74
(lp5175
g67
(g68
g69
NtRp5176
(dp5177
g72
(dp5178
g80
I3
ssg81
g5172
sg74
(lp5179
g67
(g76
g69
NtRp5180
(dp5181
g72
(dp5182
g80
I2
ssg81
Nsg74
(lp5183
g67
(g83
g69
NtRp5184
(dp5185
g72
(dp5186
sg81
g5180
sg74
(lp5187
g67
(g88
g69
NtRp5188
(dp5189
g72
(dp5190
sg81
g5184
sg74
(lp5191
g67
(g68
g69
NtRp5192
(dp5193
g72
(dp5194
g80
I2
ssg81
g5188
sg74
(lp5195
g67
(g76
g69
NtRp5196
(dp5197
g72
(dp5198
g80
I1
ssg81
Nsg74
(lp5199
g67
(g83
g69
NtRp5200
(dp5201
g72
(dp5202
sg81
g5196
sg74
(lp5203
g67
(g88
g69
NtRp5204
(dp5205
g72
(dp5206
sg81
g5200
sg74
(lp5207
g67
(g68
g69
NtRp5208
(dp5209
g72
(dp5210
g80
I1
ssg81
g5204
sg74
(lp5211
g5066
(S's\x08\x00\x00\x00My Sites'
tRp5212
asbasbasbag67
(g83
g69
NtRp5213
(dp5214
g72
(dp5215
sg81
g5196
sg74
(lp5216
g67
(g88
g69
NtRp5217
(dp5218
g72
(dp5219
sg81
g5213
sg74
(lp5220
g67
(g68
g69
NtRp5221
(dp5222
g72
(dp5223
g80
I1
ssg81
g5217
sg74
(lp5224
I00
asbasbasbag67
(g83
g69
NtRp5225
(dp5226
g72
(dp5227
sg81
g5196
sg74
(lp5228
g67
(g88
g69
NtRp5229
(dp5230
g72
(dp5231
sg81
g5225
sg74
(lp5232
g67
(g68
g69
NtRp5233
(dp5234
g72
(dp5235
g80
I1
ssg81
g5229
sg74
(lp5236
S'/admin/default/site'
p5237
asbasbasbasbasbasbasbag67
(g83
g69
NtRp5238
(dp5239
g72
(dp5240
sg81
g5180
sg74
(lp5241
g67
(g88
g69
NtRp5242
(dp5243
g72
(dp5244
sg81
g5238
sg74
(lp5245
g67
(g68
g69
NtRp5246
(dp5247
g72
(dp5248
g80
I2
ssg81
g5242
sg74
(lp5249
g67
(g76
g69
NtRp5250
(dp5251
g72
(dp5252
g80
I1
ssg81
Nsg74
(lp5253
g67
(g83
g69
NtRp5254
(dp5255
g72
(dp5256
sg81
g5250
sg74
(lp5257
g67
(g88
g69
NtRp5258
(dp5259
g72
(dp5260
sg81
g5254
sg74
(lp5261
g67
(g68
g69
NtRp5262
(dp5263
g72
(dp5264
g80
I1
ssg81
g5258
sg74
(lp5265
g5066
(S's\x08\x00\x00\x00This App'
tRp5266
asbasbasbag67
(g83
g69
NtRp5267
(dp5268
g72
(dp5269
sg81
g5250
sg74
(lp5270
g67
(g88
g69
NtRp5271
(dp5272
g72
(dp5273
sg81
g5267
sg74
(lp5274
g67
(g68
g69
NtRp5275
(dp5276
g72
(dp5277
g80
I1
ssg81
g5271
sg74
(lp5278
I00
asbasbasbag67
(g83
g69
NtRp5279
(dp5280
g72
(dp5281
sg81
g5250
sg74
(lp5282
g67
(g88
g69
NtRp5283
(dp5284
g72
(dp5285
sg81
g5279
sg74
(lp5286
g67
(g68
g69
NtRp5287
(dp5288
g72
(dp5289
g80
I1
ssg81
g5283
sg74
(lp5290
S'/admin/default/design/GPIBHWS'
p5291
asbasbasbag67
(g83
g69
NtRp5292
(dp5293
g72
(dp5294
sg81
g5250
sg74
(lp5295
g67
(g88
g69
NtRp5296
(dp5297
g72
(dp5298
sg81
g5292
sg74
(lp5299
g67
(g68
g69
NtRp5300
(dp5301
g72
(dp5302
g80
I1
ssg81
g5296
sg74
(lp5303
(lp5304
(g5066
(S's\n\x00\x00\x00Controller'
tRp5305
I00
S'/admin/default/edit/GPIBHWS/controllers/default.py'
tp5306
a(g5066
(S's\x04\x00\x00\x00View'
tRp5307
I00
S'/admin/default/edit/GPIBHWS/views/default/index.html'
tp5308
a(g5066
(S's\x06\x00\x00\x00Layout'
tRp5309
I00
S'/admin/default/edit/GPIBHWS/views/layout.html'
tp5310
a(g5066
(S's\n\x00\x00\x00Stylesheet'
tRp5311
I00
S'/admin/default/edit/GPIBHWS/static/css/web2py.css'
tp5312
a(g5066
(S's\x08\x00\x00\x00DB Model'
tRp5313
I00
S'/admin/default/edit/GPIBHWS/models/db.py'
tp5314
a(g5066
(S's\n\x00\x00\x00Menu Model'
tRp5315
I00
S'/admin/default/edit/GPIBHWS/models/menu.py'
tp5316
a(g5066
(S's\x08\x00\x00\x00Database'
tRp5317
I00
S'/GPIBHWS/appadmin/index'
tp5318
a(g5066
(S's\x06\x00\x00\x00Errors'
tRp5319
I00
S'/admin/default/errors/GPIBHWS'
tp5320
a(g5066
(S's\x05\x00\x00\x00About'
tRp5321
I00
S'/admin/default/about/GPIBHWS'
tp5322
aasbasbasbasbasbasbasbag67
(g83
g69
NtRp5323
(dp5324
g72
(dp5325
sg81
g5180
sg74
(lp5326
g67
(g88
g69
NtRp5327
(dp5328
g72
(dp5329
sg81
g5323
sg74
(lp5330
g67
(g68
g69
NtRp5331
(dp5332
g72
(dp5333
g80
I2
ssg81
g5327
sg74
(lp5334
g67
(g76
g69
NtRp5335
(dp5336
g72
(dp5337
g80
I1
ssg81
Nsg74
(lp5338
g67
(g83
g69
NtRp5339
(dp5340
g72
(dp5341
sg81
g5335
sg74
(lp5342
g67
(g88
g69
NtRp5343
(dp5344
g72
(dp5345
sg81
g5339
sg74
(lp5346
g67
(g68
g69
NtRp5347
(dp5348
g72
(dp5349
g80
I1
ssg81
g5343
sg74
(lp5350
S'web2py.com'
p5351
asbasbasbag67
(g83
g69
NtRp5352
(dp5353
g72
(dp5354
sg81
g5335
sg74
(lp5355
g67
(g88
g69
NtRp5356
(dp5357
g72
(dp5358
sg81
g5352
sg74
(lp5359
g67
(g68
g69
NtRp5360
(dp5361
g72
(dp5362
g80
I1
ssg81
g5356
sg74
(lp5363
I00
asbasbasbag67
(g83
g69
NtRp5364
(dp5365
g72
(dp5366
sg81
g5335
sg74
(lp5367
g67
(g88
g69
NtRp5368
(dp5369
g72
(dp5370
sg81
g5364
sg74
(lp5371
g67
(g68
g69
NtRp5372
(dp5373
g72
(dp5374
g80
I1
ssg81
g5368
sg74
(lp5375
S'http://www.web2py.com'
p5376
asbasbasbag67
(g83
g69
NtRp5377
(dp5378
g72
(dp5379
sg81
g5335
sg74
(lp5380
g67
(g88
g69
NtRp5381
(dp5382
g72
(dp5383
sg81
g5377
sg74
(lp5384
g67
(g68
g69
NtRp5385
(dp5386
g72
(dp5387
g80
I1
ssg81
g5381
sg74
(lp5388
(lp5389
(g5066
(S's\x08\x00\x00\x00Download'
tRp5390
I00
S'http://www.web2py.com/examples/default/download'
p5391
tp5392
a(g5066
(S's\x07\x00\x00\x00Support'
tRp5393
I00
S'http://www.web2py.com/examples/default/support'
p5394
tp5395
a(g5066
(S's\x04\x00\x00\x00Demo'
tRp5396
I00
S'http://web2py.com/demo_admin'
p5397
tp5398
a(g5066
(S's\x0e\x00\x00\x00Quick Examples'
tRp5399
I00
S'http://web2py.com/examples/default/examples'
p5400
tp5401
a(g5066
(S's\x03\x00\x00\x00FAQ'
tRp5402
I00
S'http://web2py.com/AlterEgo'
p5403
tp5404
a(g5066
(S's\x06\x00\x00\x00Videos'
tRp5405
I00
S'http://www.web2py.com/examples/default/videos/'
p5406
tp5407
a(g5066
(S's\x11\x00\x00\x00Free Applications'
tRp5408
I00
S'http://web2py.com/appliances'
p5409
tp5410
a(g5066
(S's\x07\x00\x00\x00Plugins'
tRp5411
I00
S'http://web2py.com/plugins'
p5412
tp5413
a(g5066
(S's\x07\x00\x00\x00Layouts'
tRp5414
I00
S'http://web2py.com/layouts'
p5415
tp5416
a(g5066
(S's\x07\x00\x00\x00Recipes'
tRp5417
I00
S'http://web2pyslices.com/'
p5418
tp5419
a(g5066
(S's\x08\x00\x00\x00Semantic'
tRp5420
I00
S'http://web2py.com/semantic'
p5421
tp5422
aasbasbasbasbasbasbasbag67
(g83
g69
NtRp5423
(dp5424
g72
(dp5425
sg81
g5180
sg74
(lp5426
g67
(g88
g69
NtRp5427
(dp5428
g72
(dp5429
sg81
g5423
sg74
(lp5430
g67
(g68
g69
NtRp5431
(dp5432
g72
(dp5433
g80
I2
ssg81
g5427
sg74
(lp5434
g67
(g76
g69
NtRp5435
(dp5436
g72
(dp5437
g80
I1
ssg81
Nsg74
(lp5438
g67
(g83
g69
NtRp5439
(dp5440
g72
(dp5441
sg81
g5435
sg74
(lp5442
g67
(g88
g69
NtRp5443
(dp5444
g72
(dp5445
sg81
g5439
sg74
(lp5446
g67
(g68
g69
NtRp5447
(dp5448
g72
(dp5449
g80
I1
ssg81
g5443
sg74
(lp5450
g5066
(S's\r\x00\x00\x00Documentation'
tRp5451
asbasbasbag67
(g83
g69
NtRp5452
(dp5453
g72
(dp5454
sg81
g5435
sg74
(lp5455
g67
(g88
g69
NtRp5456
(dp5457
g72
(dp5458
sg81
g5452
sg74
(lp5459
g67
(g68
g69
NtRp5460
(dp5461
g72
(dp5462
g80
I1
ssg81
g5456
sg74
(lp5463
I00
asbasbasbag67
(g83
g69
NtRp5464
(dp5465
g72
(dp5466
sg81
g5435
sg74
(lp5467
g67
(g88
g69
NtRp5468
(dp5469
g72
(dp5470
sg81
g5464
sg74
(lp5471
g67
(g68
g69
NtRp5472
(dp5473
g72
(dp5474
g80
I1
ssg81
g5468
sg74
(lp5475
S'http://www.web2py.com/book'
p5476
asbasbasbag67
(g83
g69
NtRp5477
(dp5478
g72
(dp5479
sg81
g5435
sg74
(lp5480
g67
(g88
g69
NtRp5481
(dp5482
g72
(dp5483
sg81
g5477
sg74
(lp5484
g67
(g68
g69
NtRp5485
(dp5486
g72
(dp5487
g80
I1
ssg81
g5481
sg74
(lp5488
(lp5489
(g5066
(S's\x07\x00\x00\x00Preface'
tRp5490
I00
S'http://www.web2py.com/book/default/chapter/00'
p5491
tp5492
a(g5066
(S's\x0c\x00\x00\x00Introduction'
tRp5493
I00
S'http://www.web2py.com/book/default/chapter/01'
p5494
tp5495
a(g5066
(S's\x06\x00\x00\x00Python'
tRp5496
I00
S'http://www.web2py.com/book/default/chapter/02'
p5497
tp5498
a(g5066
(S's\x08\x00\x00\x00Overview'
tRp5499
I00
S'http://www.web2py.com/book/default/chapter/03'
p5500
tp5501
a(g5066
(S's\x08\x00\x00\x00The Core'
tRp5502
I00
S'http://www.web2py.com/book/default/chapter/04'
p5503
tp5504
a(g5066
(S's\t\x00\x00\x00The Views'
tRp5505
I00
S'http://www.web2py.com/book/default/chapter/05'
p5506
tp5507
a(g5066
(S's\x08\x00\x00\x00Database'
tRp5508
I00
S'http://www.web2py.com/book/default/chapter/06'
p5509
tp5510
a(g5066
(S's\x14\x00\x00\x00Forms and Validators'
tRp5511
I00
S'http://www.web2py.com/book/default/chapter/07'
p5512
tp5513
a(g5066
(S's\r\x00\x00\x00Email and SMS'
tRp5514
I00
S'http://www.web2py.com/book/default/chapter/08'
p5515
tp5516
a(g5066
(S's\x0e\x00\x00\x00Access Control'
tRp5517
I00
S'http://www.web2py.com/book/default/chapter/09'
p5518
tp5519
a(g5066
(S's\x08\x00\x00\x00Services'
tRp5520
I00
S'http://www.web2py.com/book/default/chapter/10'
p5521
tp5522
a(g5066
(S's\x0c\x00\x00\x00Ajax Recipes'
tRp5523
I00
S'http://www.web2py.com/book/default/chapter/11'
p5524
tp5525
a(g5066
(S's\x16\x00\x00\x00Components and Plugins'
tRp5526
I00
S'http://www.web2py.com/book/default/chapter/12'
p5527
tp5528
a(g5066
(S's\x12\x00\x00\x00Deployment Recipes'
tRp5529
I00
S'http://www.web2py.com/book/default/chapter/13'
p5530
tp5531
a(g5066
(S's\r\x00\x00\x00Other Recipes'
tRp5532
I00
S'http://www.web2py.com/book/default/chapter/14'
p5533
tp5534
a(g5066
(S's\r\x00\x00\x00Buy this book'
tRp5535
I00
S'http://stores.lulu.com/web2py'
p5536
tp5537
aasbasbasbasbasbasbasbag67
(g83
g69
NtRp5538
(dp5539
g72
(dp5540
sg81
g5180
sg74
(lp5541
g67
(g88
g69
NtRp5542
(dp5543
g72
(dp5544
sg81
g5538
sg74
(lp5545
g67
(g68
g69
NtRp5546
(dp5547
g72
(dp5548
g80
I2
ssg81
g5542
sg74
(lp5549
g67
(g76
g69
NtRp5550
(dp5551
g72
(dp5552
g80
I1
ssg81
Nsg74
(lp5553
g67
(g83
g69
NtRp5554
(dp5555
g72
(dp5556
sg81
g5550
sg74
(lp5557
g67
(g88
g69
NtRp5558
(dp5559
g72
(dp5560
sg81
g5554
sg74
(lp5561
g67
(g68
g69
NtRp5562
(dp5563
g72
(dp5564
g80
I1
ssg81
g5558
sg74
(lp5565
g5066
(S's\t\x00\x00\x00Community'
tRp5566
asbasbasbag67
(g83
g69
NtRp5567
(dp5568
g72
(dp5569
sg81
g5550
sg74
(lp5570
g67
(g88
g69
NtRp5571
(dp5572
g72
(dp5573
sg81
g5567
sg74
(lp5574
g67
(g68
g69
NtRp5575
(dp5576
g72
(dp5577
g80
I1
ssg81
g5571
sg74
(lp5578
I00
asbasbasbag67
(g83
g69
NtRp5579
(dp5580
g72
(dp5581
sg81
g5550
sg74
(lp5582
g67
(g88
g69
NtRp5583
(dp5584
g72
(dp5585
sg81
g5579
sg74
(lp5586
g67
(g68
g69
NtRp5587
(dp5588
g72
(dp5589
g80
I1
ssg81
g5583
sg74
(lp5590
Nasbasbasbag67
(g83
g69
NtRp5591
(dp5592
g72
(dp5593
sg81
g5550
sg74
(lp5594
g67
(g88
g69
NtRp5595
(dp5596
g72
(dp5597
sg81
g5591
sg74
(lp5598
g67
(g68
g69
NtRp5599
(dp5600
g72
(dp5601
g80
I1
ssg81
g5595
sg74
(lp5602
(lp5603
(g5066
(S's\x06\x00\x00\x00Groups'
tRp5604
I00
S'http://www.web2py.com/examples/default/usergroups'
p5605
tp5606
a(g5066
(S's\x07\x00\x00\x00Twitter'
tRp5607
I00
S'http://twitter.com/web2py'
p5608
tp5609
a(g5066
(S's\t\x00\x00\x00Live Chat'
tRp5610
I00
S'http://webchat.freenode.net/?channels=web2py'
p5611
tp5612
aasbasbasbasbasbasbasbag67
(g83
g69
NtRp5613
(dp5614
g72
(dp5615
sg81
g5180
sg74
(lp5616
g67
(g88
g69
NtRp5617
(dp5618
g72
(dp5619
sg81
g5613
sg74
(lp5620
g67
(g68
g69
NtRp5621
(dp5622
g72
(dp5623
g80
I2
ssg81
g5617
sg74
(lp5624
g67
(g76
g69
NtRp5625
(dp5626
g72
(dp5627
g80
I1
ssg81
Nsg74
(lp5628
g67
(g83
g69
NtRp5629
(dp5630
g72
(dp5631
sg81
g5625
sg74
(lp5632
g67
(g88
g69
NtRp5633
(dp5634
g72
(dp5635
sg81
g5629
sg74
(lp5636
g67
(g68
g69
NtRp5637
(dp5638
g72
(dp5639
g80
I1
ssg81
g5633
sg74
(lp5640
g5066
(S's\x07\x00\x00\x00Plugins'
tRp5641
asbasbasbag67
(g83
g69
NtRp5642
(dp5643
g72
(dp5644
sg81
g5625
sg74
(lp5645
g67
(g88
g69
NtRp5646
(dp5647
g72
(dp5648
sg81
g5642
sg74
(lp5649
g67
(g68
g69
NtRp5650
(dp5651
g72
(dp5652
g80
I1
ssg81
g5646
sg74
(lp5653
I00
asbasbasbag67
(g83
g69
NtRp5654
(dp5655
g72
(dp5656
sg81
g5625
sg74
(lp5657
g67
(g88
g69
NtRp5658
(dp5659
g72
(dp5660
sg81
g5654
sg74
(lp5661
g67
(g68
g69
NtRp5662
(dp5663
g72
(dp5664
g80
I1
ssg81
g5658
sg74
(lp5665
Nasbasbasbag67
(g83
g69
NtRp5666
(dp5667
g72
(dp5668
sg81
g5625
sg74
(lp5669
g67
(g88
g69
NtRp5670
(dp5671
g72
(dp5672
sg81
g5666
sg74
(lp5673
g67
(g68
g69
NtRp5674
(dp5675
g72
(dp5676
g80
I1
ssg81
g5670
sg74
(lp5677
(lp5678
(S'plugin_wiki'
p5679
I00
S'http://web2py.com/examples/default/download'
p5680
tp5681
a(g5066
(S's\r\x00\x00\x00Other Plugins'
tRp5682
I00
g5412
tp5683
a(g5066
(S's\x0e\x00\x00\x00Layout Plugins'
tRp5684
I00
g5415
tp5685
aasbasbasbasbasbasbasbasbasbasbasbasbasbasbasbasbasbasbasbag67
(g83
g69
NtRp5686
(dp5687
g72
(dp5688
sg81
g4510
sg74
(lp5689
g67
(g88
g69
NtRp5690
(dp5691
g72
(dp5692
g92
g93
ssg81
g5686
sg74
(lp5693
S'meta'
p5694
asbag67
(g88
g69
NtRp5695
(dp5696
g72
(dp5697
g99
g100
ssg81
g5686
sg74
(lp5698
S':'
asbag67
(g88
g69
NtRp5699
(dp5700
g72
(dp5701
sg81
g5686
sg74
(lp5702
g67
(g68
g69
NtRp5703
(dp5704
g72
(dp5705
g80
I5
ssg81
g5699
sg74
(lp5706
g67
(g76
g69
NtRp5707
(dp5708
g72
(dp5709
g80
I4
ssg81
Nsg74
(lp5710
g67
(g83
g69
NtRp5711
(dp5712
g72
(dp5713
sg81
g5707
sg74
(lp5714
g67
(g88
g69
NtRp5715
(dp5716
g72
(dp5717
g92
g93
ssg81
g5711
sg74
(lp5718
S'author'
p5719
asbag67
(g88
g69
NtRp5720
(dp5721
g72
(dp5722
g99
g100
ssg81
g5711
sg74
(lp5723
S':'
asbag67
(g88
g69
NtRp5724
(dp5725
g72
(dp5726
sg81
g5711
sg74
(lp5727
g67
(g68
g69
NtRp5728
(dp5729
g72
(dp5730
g80
I4
ssg81
g5724
sg74
(lp5731
S'Your Name <you@example.com>'
p5732
asbasbasbag67
(g83
g69
NtRp5733
(dp5734
g72
(dp5735
sg81
g5707
sg74
(lp5736
g67
(g88
g69
NtRp5737
(dp5738
g72
(dp5739
g92
g93
ssg81
g5733
sg74
(lp5740
S'copyright'
p5741
asbag67
(g88
g69
NtRp5742
(dp5743
g72
(dp5744
g99
g100
ssg81
g5733
sg74
(lp5745
S':'
asbag67
(g88
g69
NtRp5746
(dp5747
g72
(dp5748
sg81
g5733
sg74
(lp5749
g67
(g68
g69
NtRp5750
(dp5751
g72
(dp5752
g80
I4
ssg81
g5746
sg74
(lp5753
S'Copyright 2011'
p5754
asbasbasbag67
(g83
g69
NtRp5755
(dp5756
g72
(dp5757
sg81
g5707
sg74
(lp5758
g67
(g88
g69
NtRp5759
(dp5760
g72
(dp5761
g92
g93
ssg81
g5755
sg74
(lp5762
S'description'
p5763
asbag67
(g88
g69
NtRp5764
(dp5765
g72
(dp5766
g99
g100
ssg81
g5755
sg74
(lp5767
S':'
asbag67
(g88
g69
NtRp5768
(dp5769
g72
(dp5770
sg81
g5755
sg74
(lp5771
g67
(g68
g69
NtRp5772
(dp5773
g72
(dp5774
g80
I4
ssg81
g5768
sg74
(lp5775
S'a cool new app'
p5776
asbasbasbag67
(g83
g69
NtRp5777
(dp5778
g72
(dp5779
sg81
g5707
sg74
(lp5780
g67
(g88
g69
NtRp5781
(dp5782
g72
(dp5783
g92
g93
ssg81
g5777
sg74
(lp5784
S'generator'
p5785
asbag67
(g88
g69
NtRp5786
(dp5787
g72
(dp5788
g99
g100
ssg81
g5777
sg74
(lp5789
S':'
asbag67
(g88
g69
NtRp5790
(dp5791
g72
(dp5792
sg81
g5777
sg74
(lp5793
g67
(g68
g69
NtRp5794
(dp5795
g72
(dp5796
g80
I4
ssg81
g5790
sg74
(lp5797
S'Web2py Web Framework'
p5798
asbasbasbag67
(g83
g69
NtRp5799
(dp5800
g72
(dp5801
sg81
g5707
sg74
(lp5802
g67
(g88
g69
NtRp5803
(dp5804
g72
(dp5805
g92
g93
ssg81
g5799
sg74
(lp5806
S'keywords'
p5807
asbag67
(g88
g69
NtRp5808
(dp5809
g72
(dp5810
g99
g100
ssg81
g5799
sg74
(lp5811
S':'
asbag67
(g88
g69
NtRp5812
(dp5813
g72
(dp5814
sg81
g5799
sg74
(lp5815
g67
(g68
g69
NtRp5816
(dp5817
g72
(dp5818
g80
I4
ssg81
g5812
sg74
(lp5819
S'web2py, python, framework'
p5820
asbasbasbasbasbasbasbag67
(g83
g69
NtRp5821
(dp5822
g72
(dp5823
sg81
g4510
sg74
(lp5824
g67
(g88
g69
NtRp5825
(dp5826
g72
(dp5827
g92
g93
ssg81
g5821
sg74
(lp5828
S'postprocessing'
p5829
asbag67
(g88
g69
NtRp5830
(dp5831
g72
(dp5832
g99
g100
ssg81
g5821
sg74
(lp5833
S':'
asbag67
(g88
g69
NtRp5834
(dp5835
g72
(dp5836
sg81
g5821
sg74
(lp5837
g67
(g68
g69
NtRp5838
(dp5839
g72
(dp5840
g80
I5
ssg81
g5834
sg74
(lp5841
g67
(g76
g69
NtRp5842
(dp5843
g72
(dp5844
g80
I4
ssg81
Nsg74
(lp5845
sbasbasbasbag67
(g83
g69
NtRp5846
(dp5847
g72
(dp5848
sg81
g4510
sg74
(lp5849
g67
(g88
g69
NtRp5850
(dp5851
g72
(dp5852
g92
g93
ssg81
g5846
sg74
(lp5853
S'session_file'
p5854
asbag67
(g88
g69
NtRp5855
(dp5856
g72
(dp5857
g99
g100
ssg81
g5846
sg74
(lp5858
S':'
asbag67
(g88
g69
NtRp5859
(dp5860
g72
(dp5861
sg81
g5846
sg74
(lp5862
g67
(g68
g69
NtRp5863
(dp5864
g72
(dp5865
g80
I5
ssg81
g5859
sg74
(lp5866
S"<open file '/web2pyTrunk/applications/GPIBHWS/sessions/127.0.0.1-6f11aa51-d759-4ec6-a0c2-b8d4140bb744', mode 'rb+' at 0x19e3fee8>"
p5867
asbasbasbag67
(g83
g69
NtRp5868
(dp5869
g72
(dp5870
sg81
g4510
sg74
(lp5871
g67
(g88
g69
NtRp5872
(dp5873
g72
(dp5874
g92
g93
ssg81
g5868
sg74
(lp5875
S'session_filename'
p5876
asbag67
(g88
g69
NtRp5877
(dp5878
g72
(dp5879
g99
g100
ssg81
g5868
sg74
(lp5880
S':'
asbag67
(g88
g69
NtRp5881
(dp5882
g72
(dp5883
sg81
g5868
sg74
(lp5884
g67
(g68
g69
NtRp5885
(dp5886
g72
(dp5887
g80
I5
ssg81
g5881
sg74
(lp5888
S'/web2pyTrunk/applications/GPIBHWS/sessions/127.0.0.1-6f11aa51-d759-4ec6-a0c2-b8d4140bb744'
p5889
asbasbasbag67
(g83
g69
NtRp5890
(dp5891
g72
(dp5892
sg81
g4510
sg74
(lp5893
g67
(g88
g69
NtRp5894
(dp5895
g72
(dp5896
g92
g93
ssg81
g5890
sg74
(lp5897
S'session_id'
p5898
asbag67
(g88
g69
NtRp5899
(dp5900
g72
(dp5901
g99
g100
ssg81
g5890
sg74
(lp5902
S':'
asbag67
(g88
g69
NtRp5903
(dp5904
g72
(dp5905
sg81
g5890
sg74
(lp5906
g67
(g68
g69
NtRp5907
(dp5908
g72
(dp5909
g80
I5
ssg81
g5903
sg74
(lp5910
g835
asbasbasbag67
(g83
g69
NtRp5911
(dp5912
g72
(dp5913
sg81
g4510
sg74
(lp5914
g67
(g88
g69
NtRp5915
(dp5916
g72
(dp5917
g92
g93
ssg81
g5911
sg74
(lp5918
S'session_id_name'
p5919
asbag67
(g88
g69
NtRp5920
(dp5921
g72
(dp5922
g99
g100
ssg81
g5911
sg74
(lp5923
S':'
asbag67
(g88
g69
NtRp5924
(dp5925
g72
(dp5926
sg81
g5911
sg74
(lp5927
g67
(g68
g69
NtRp5928
(dp5929
g72
(dp5930
g80
I5
ssg81
g5924
sg74
(lp5931
g4567
asbasbasbag67
(g83
g69
NtRp5932
(dp5933
g72
(dp5934
sg81
g4510
sg74
(lp5935
g67
(g88
g69
NtRp5936
(dp5937
g72
(dp5938
g92
g93
ssg81
g5932
sg74
(lp5939
S'session_locked'
p5940
asbag67
(g88
g69
NtRp5941
(dp5942
g72
(dp5943
g99
g100
ssg81
g5932
sg74
(lp5944
S':'
asbag67
(g88
g69
NtRp5945
(dp5946
g72
(dp5947
sg81
g5932
sg74
(lp5948
g67
(g68
g69
NtRp5949
(dp5950
g72
(dp5951
g80
I5
ssg81
g5945
sg74
(lp5952
g2564
asbasbasbag67
(g83
g69
NtRp5953
(dp5954
g72
(dp5955
sg81
g4510
sg74
(lp5956
g67
(g88
g69
NtRp5957
(dp5958
g72
(dp5959
g92
g93
ssg81
g5953
sg74
(lp5960
S'session_new'
p5961
asbag67
(g88
g69
NtRp5962
(dp5963
g72
(dp5964
g99
g100
ssg81
g5953
sg74
(lp5965
S':'
asbag67
(g88
g69
NtRp5966
(dp5967
g72
(dp5968
sg81
g5953
sg74
(lp5969
g67
(g68
g69
NtRp5970
(dp5971
g72
(dp5972
g80
I5
ssg81
g5966
sg74
(lp5973
g110
asbasbasbag67
(g83
g69
NtRp5974
(dp5975
g72
(dp5976
sg81
g4510
sg74
(lp5977
g67
(g88
g69
NtRp5978
(dp5979
g72
(dp5980
g92
g93
ssg81
g5974
sg74
(lp5981
S'status'
p5982
asbag67
(g88
g69
NtRp5983
(dp5984
g72
(dp5985
g99
g100
ssg81
g5974
sg74
(lp5986
S':'
asbag67
(g88
g69
NtRp5987
(dp5988
g72
(dp5989
sg81
g5974
sg74
(lp5990
g67
(g68
g69
NtRp5991
(dp5992
g72
(dp5993
g80
I5
ssg81
g5987
sg74
(lp5994
S'200'
p5995
asbasbasbag67
(g83
g69
NtRp5996
(dp5997
g72
(dp5998
sg81
g4510
sg74
(lp5999
g67
(g88
g69
NtRp6000
(dp6001
g72
(dp6002
g92
g93
ssg81
g5996
sg74
(lp6003
S'subtitle'
p6004
asbag67
(g88
g69
NtRp6005
(dp6006
g72
(dp6007
g99
g100
ssg81
g5996
sg74
(lp6008
S':'
asbag67
(g88
g69
NtRp6009
(dp6010
g72
(dp6011
sg81
g5996
sg74
(lp6012
g67
(g68
g69
NtRp6013
(dp6014
g72
(dp6015
g80
I5
ssg81
g6009
sg74
(lp6016
g5066
(S's\r\x00\x00\x00customize me!'
tRp6017
asbasbasbag67
(g83
g69
NtRp6018
(dp6019
g72
(dp6020
sg81
g4510
sg74
(lp6021
g67
(g88
g69
NtRp6022
(dp6023
g72
(dp6024
g92
g93
ssg81
g6018
sg74
(lp6025
S'title'
p6026
asbag67
(g88
g69
NtRp6027
(dp6028
g72
(dp6029
g99
g100
ssg81
g6018
sg74
(lp6030
S':'
asbag67
(g88
g69
NtRp6031
(dp6032
g72
(dp6033
sg81
g6018
sg74
(lp6034
g67
(g68
g69
NtRp6035
(dp6036
g72
(dp6037
g80
I5
ssg81
g6031
sg74
(lp6038
S'Gpibhws'
p6039
asbasbasbag67
(g83
g69
NtRp6040
(dp6041
g72
(dp6042
sg81
g4510
sg74
(lp6043
g67
(g88
g69
NtRp6044
(dp6045
g72
(dp6046
g92
g93
ssg81
g6040
sg74
(lp6047
g3421
asbag67
(g88
g69
NtRp6048
(dp6049
g72
(dp6050
g99
g100
ssg81
g6040
sg74
(lp6051
S':'
asbag67
(g88
g69
NtRp6052
(dp6053
g72
(dp6054
sg81
g6040
sg74
(lp6055
g67
(g68
g69
NtRp6056
(dp6057
g72
(dp6058
g80
I5
ssg81
g6052
sg74
(lp6059
g3434
asbasbasbag67
(g83
g69
NtRp6060
(dp6061
g72
(dp6062
sg81
g4510
sg74
(lp6063
g67
(g88
g69
NtRp6064
(dp6065
g72
(dp6066
g92
g93
ssg81
g6060
sg74
(lp6067
S'view'
p6068
asbag67
(g88
g69
NtRp6069
(dp6070
g72
(dp6071
g99
g100
ssg81
g6060
sg74
(lp6072
S':'
asbag67
(g88
g69
NtRp6073
(dp6074
g72
(dp6075
sg81
g6060
sg74
(lp6076
g67
(g68
g69
NtRp6077
(dp6078
g72
(dp6079
g80
I5
ssg81
g6073
sg74
(lp6080
S'default/index.html'
p6081
asbasbasbasbasbsS'locals'
p6082
(dp6083
S'frq_res'
p6084
S'0.0062421913004100096'
p6085
sS'x_val_ss'
p6086
S'array([ 2000.        ,  2000.00624219,  2000.012...98126866,  2004.98751085,\n        2004.99375304])'
p6087
sS'mruns'
p6088
S"'on'"
p6089
sS'mSF_db_array'
p6090
S'[2000, 2005]'
p6091
sS'sin_state'
p6092
S"['#I+9.600000E+01', '+2.000000E+00', '+0.000000E+00', '+0.000000E+00', '+1.100000E+01', '+0.000000E+00', '+1.000000E+00', '+1.000000E+01', '+0.000000E+00', '+1.000000E+01', '+1.000000E+00', '+1.800000E+01', '+1.600000E+01', '+2.000000E+00', '+2.400000E+01', '+9.000000E+00', '+9.000000E+00', '+2.800000E+01', '+2.800000E+01', '+3.000000E+01', ...]"
p6093
sS'mSF_array'
p6094
S"['SF 2000 HZ;\\r\\n', 'SF 2005 HZ;\\r\\n']"
p6095
sS'mNumber'
p6096
S'0'
sS'PORT'
p6097
S'1234'
p6098
sg4468
S'1601'
p6099
sS'NL'
p6100
S"'\\r\\n'"
p6101
sS'mSF_in'
p6102
S'2010'
p6103
sS'sin_dat_comp'
p6104
S'[(-1108.7170000000001+48.613140000000001j), (-734.62239999999997+698.0394j), (-87.66225+921.18200000000002j), (491.75779999999997+687.11779999999999j), (750.60630000000003+178.5814j), (565.82870000000003-252.1626j), (237.9091-436.7774j), (-61.2727-394.60219999999998j), (-231.5223-221.7953j), (-227.4753-329.58819999999997j), (-195.41300000000001-460.45089999999999j), (-123.273-612.4923j), (3.2270479999999999-780.36559999999997j), (399.8218-664.79579999999999j), (679.71230000000003-364.30259999999998j), (765.84339999999997+34.734529999999999j), (636.36220000000003+419.33999999999997j), (814.29679999999996+714.24130000000002j), (1007.4059999999999+1164.059j), (1191.7249999999999+1834.934j), ...]'
p6105
sS'item'
p6106
S"'SF 2005 HZ;\\r\\n'"
p6107
sS'sock'
p6108
S'<socket._socketobject object>'
p6109
sS'swp_time'
p6110
S'91.0'
p6111
sS'SF_pre'
p6112
S"'SF '"
p6113
sS'sin_dat_abs'
p6114
S'[1109.7822414643604, 1013.3750907408963, 925.34369139204841, 844.9595285797302, 771.55760253246808, 619.47404673840049, 497.36831122777613, 399.33099054559989, 320.61773266520987, 400.46647011869794, 500.20123138573939, 624.77439935411087, 780.37227238168464, 775.76473718059651, 771.18428091996918, 766.63068090044555, 762.10424824222048, 1083.1527653641151, 1539.4480193618101, 2187.9650956953128, ...]'
p6115
sS'sin_dat_real'
p6116
S'array([ -1.10871700e+03,  -7.34622400e+02,  -8.7...7597000e+03,   2.72603000e+02,  -1.89196800e+03])'
p6117
sS'sin_header'
p6118
S"['#I+1.668000E+03', '+1.000000E+00', '+8.010000E+02', '+8.010000E+02', '+1.000000E+01', '+2.000000E+00', '+3.000000E+00', '+0.000000E+00', '+1.000000E+00', '+2.000000E+00', '+5.000000E+00', '+1.000000E+00', '+2.497000E+03', '-1.092400E+04', '+2.025600E+04', '-1.299100E+04', '-1.119200E+04', '+0.000000E+00', '+0.000000E+00', '+0.000000E+00', ...]"
p6119
sS'swp_intm'
p6120
S'0.050000000000000003'
p6121
sS'x_pck'
p6122
S'"cnumpy.core.multiarray\\n_reconstruct\\np0\\n(cnumpy\\nn...0b6\\\\xf3S\\\\x9f@\\\\xbe\\\\xa0e\\\\x9a\\\\xf9S\\\\x9f@\'\\np13\\ntp14\\nb."'
p6123
sS'swp_rate'
p6124
S'0.054944989999999999'
p6125
sS'mStep_size'
p6126
S"'5'"
p6127
sg4488
S"'Sweep'"
p6128
sS'ya_pck'
p6129
S"'(lp0\\nF1109.7822414643604\\naF1013.3750907408963\\naF...76727\\naF1874.2960432026207\\naF2764.470862101462\\na.'"
p6130
sS'form'
p6131
S'<gluon.sqlhtml.SQLFORM object>'
p6132
sS'sin_dat_header'
p6133
S"['#I+1.668000E+03', '+1.000000E+00', '+8.010000E+02', '+8.010000E+02', '+1.000000E+01', '+2.000000E+00', '+3.000000E+00', '+0.000000E+00', '+1.000000E+00', '+2.000000E+00', '+5.000000E+00', '+1.000000E+00', '+2.497000E+03', '-1.092400E+04', '+2.025600E+04', '-1.299100E+04', '-1.119200E+04', '+0.000000E+00', '+0.000000E+00', '+0.000000E+00', ...]"
p6134
sS'HZ_suf'
p6135
S"' HZ;\\r\\n'"
p6136
sS'yr_pck'
p6137
S'"cnumpy.core.multiarray\\n_reconstruct\\np0\\n(cnumpy\\nn...S\\\\xe3\\\\xa5\\\\tq@\\\\x1dZd;\\\\xdf\\\\x8f\\\\x9d\\\\xc0\'\\np13\\ntp14\\nb."'
p6138
sS'HOST'
p6139
S"'172.21.7.69'"
p6140
sS'device'
p6141
S"'Glass'"
p6142
sS'frq_span'
p6143
S'4.999995231628418'
p6144
sS'SROF_pre'
p6145
S"'DCOF '"
p6146
sS'frq_strt'
p6147
S'1999.9999999999995'
p6148
sS'ms_check'
p6149
S"'0\\r\\n'"
p6150
sS'frq_end'
p6151
S'2004.999995231628'
p6152
sS'swp_res'
p6153
S'200.0'
p6154
sS'V_suf'
p6155
S"' V;\\r\\n'"
p6156
sS'SRC_pre'
p6157
S"'SRLV '"
p6158
sS'x_cord'
p6159
S'1.0'
p6160
sS'n'
S'1'
sS'i'
S'800'
p6161
sS'sin_dat'
p6162
S'array([[-1108.717  ,    48.61314],\n       [ -734... 1854.366  ],\n       [-1891.968  ,  2015.628  ]])'
p6163
sS'sin_dat_imag'
p6164
S'array([  4.86131400e+01,   6.98039400e+02,   9.2...1123900e+03,   1.85436600e+03,   2.01562800e+03])'
p6165
sS'FRS_pre'
p6166
S"'FRS '"
p6167
sssS'traceback'
p6168
S'Traceback (most recent call last):\n  File "/web2pyTrunk/gluon/restricted.py", line 205, in restricted\n    exec ccode in environment\n  File "/web2pyTrunk/applications/GPIBHWS/controllers/default.py", line 689, in <module>\n  File "/web2pyTrunk/gluon/globals.py", line 182, in <lambda>\n    self._caller = lambda f: f()\n  File "/web2pyTrunk/applications/GPIBHWS/controllers/default.py", line 284, in index\n    ms_check = sock.recv(64)\ntimeout: timed out\n'
p6169
s.