(dp1
S'output'
p2
S"<type 'exceptions.TypeError'> float() argument must be a string or a number"
p3
sS'layer'
p4
S'/web2pyTrunk/applications/GPIBHWS/controllers/default.py'
p5
sS'code'
p6
S'# -*- coding: utf-8 -*-\n\n#########################################################################\n## This is a samples controller\n## - index is the default action of any application\n## - user is required for authentication and authorization\n## - download is for downloading files uploaded in the db (does streaming)\n## - call exposes all registered services (none by default)\n#########################################################################\nimport time\nimport socket\nimport numpy as np\nimport scipy as sp\nimport math\nimport binascii\nimport datetime as dt\nimport pickle\nfrom time import localtime, strftime\nfrom pylab import *\n\ndef index():\n    form = SQLFORM(db.gpib,fields=[\'device\',\'run_type\', \'multiple_runs\',\'number_runs\',\'frequency_start\',\'frequency_range\',\'source_level\',\'source_offset\',\'sweep_rate\',\'calculate_sweep_rate\',\'sweep_up\',\'sweep_down\'],col3={\'frequency_start\':\'Hz\',\'frequency_range\':\'Hz\',\'source_level\':\'V\',\'source_offset\':\'V\',\'sweep_rate\':\'Hz/s\'})\n    if form.accepts(request.vars, session):\n        device = request.vars.device\n\n        if device == "Medium":\n            HOST = "172.21.7.68"\n        else:\n            HOST = "172.21.7.69"\n\n            PORT = 1234\n            NL = "\\r\\n"\n\n            SF_pre = "SF "\n            FRS_pre = "FRS "\n            SRC_pre = "SRLV "\n            SROF_pre = "DCOF "\n            V_suf = " V;" + NL\n            HZ_suf = " HZ;" + NL\n\n            sock = socket.socket(socket.AF_INET, socket.SOCK_STREAM, socket.IPPROTO_TCP)\n            sock.settimeout(0.5)\n            sock.connect((HOST,PORT))\n\n            sock.send("++mode 1" + NL)\n            sock.send("++addr 20" + NL)\n            sock.send("++auto 0" + NL)\n            sock.send("++eoi 1" + NL)\n\n            run_type = request.vars.run_type\n\n            if run_type == "PSD":\n\n                SF_in = request.vars.frequency_start\n                FRS_in = request.vars.frequency_range\n\n                SF_var = binascii.a2b_qp(SF_pre+str(SF_in)+HZ_suf)\n                FRS_var = binascii.a2b_qp(FRS_pre+str(FRS_in)+HZ_suf)\n\n                sock.send("SNGL;" + NL)\n                time.sleep(0.5)\n                sock.send("MSMD;" + NL)\n                time.sleep(0.5)\n                sock.send("LNRS;" + NL)\n                time.sleep(0.5)\n                sock.send("MDSP;" + NL)\n                time.sleep(0.5)\n                sock.send("PSP2;" + NL)\n                time.sleep(0.5)\n                sock.send("SMES;" + NL)\n                time.sleep(0.5)\n                sock.send("PSPC;" + NL)\n                time.sleep(0.5)\n                sock.send("CH2;" + NL)\n                time.sleep(0.5)\n                sock.send("FREQ;" + NL)\n                time.sleep(0.5)\n                sock.send(SF_var)\n                time.sleep(0.5)\n                sock.send(FRS_var)\n                time.sleep(0.5)\n                sock.send("CORD;" + NL)\n                time.sleep(0.5)\n                sock.send("MGDB;" + NL)\n                time.sleep(0.5)\n                sock.send("SCAL;" + NL)\n                time.sleep(0.5)\n                sock.send("A;" + NL)\n                time.sleep(0.5)\n                sock.send("YASC;" + NL)\n                time.sleep(0.5)\n                sock.send("STRT;" + NL)\n                time.sleep(1)\n                sock.send("AS?" + NL)\n                time.sleep(2)\n                sock.send("++read eoi" + NL)\n                filter_check = sock.recv(64)\n                filter_check = float(filter_check)\n                time.sleep(10)\n                while filter_check == 2.0:\n                    time.sleep(10)\n                    sock.send("AS?" + NL)\n                    time.sleep(3)\n                    sock.send("++read eoi" + NL)\n                    time.sleep(4)\n                    filter_check = sock.recv(64)\n                    time.sleep(20)\n                    sock.send("PAUS;" + NL)\n                    time.sleep(5)\n\n                # Active Data Trace Dump in ASCII\n                sock.send("DDAS;" + NL)\n                time.sleep(10)\n                sock.send("++read eoi" + NL)\n                time.sleep(10)\n                dat_headerDDAS = sock.recv(32768)\n                dat_headerDDAS = [dat_headerDDAS]\n                dat_headerDDAS = dat_headerDDAS[0].split(\'\\r\\n\')\n                headerDDAS = dat_headerDDAS[:67]\n                dat =  dat_headerDDAS[67:]\n                dat.pop()\n                for index, item in enumerate(dat):\n                    dat[index] = float(item)\n\n                # Instrument State Dump in ASCII\n                sock.send("DSAS;" + NL)\n                time.sleep(10)\n                sock.send("++read eoi" + NL)\n                time.sleep(10)\n                state_header = sock.recv(32768)\n                state_header = [state_header]\n                state_header = state_header[0].split(\'\\r\\n\')\n                state_header.pop()\n\n                # Retrieve useful information from the headers before generating plot\n                frq_span = float(state_header[80])\n                frq_strt = float(state_header[92])\n                frq_res = float(state_header[82])\n                x_cord = float(headerDDAS[11])\n\n                # Scale the data as need be (currently only scales for dB)\n                for i,n in enumerate(dat):\n                    if dat[i] == 0:\n                        n = 0;\n                    else:\n                        dat[i] = 10*math.log10(n)\n\n                # Generate Frequency values based on start frequncy, frequncy span and frequency resolution\n                x_val = np.arange(frq_strt,frq_strt+frq_span,frq_res)\n                x_val = np.append(x_val,x_val[-1]+frq_res)\n\n                # Zero check and array resize\n                try:\n                    while (dat.index(0)):\n                        zero_check = dat.index(0)\n                        dat.remove(0)\n                        x_val = np.delete(x_val,zero_check)\n                except ValueError:\n                    pass\n\n            else:\n\n                mruns = request.vars.multiple_runs\n\n                if (mruns == False):\n\n                    sock.send("STRT;" + NL)\n                    time.sleep(20)\n                    sock.send("SMSD;" + NL)\n                    time.sleep(10)\n                    sock.send("++read eoi" + NL)\n                    time.sleep(2)\n                    ms_check = sock.recv(64)\n\n                    while ms_check == \'0\\r\\n\':\n                        time.sleep(10)\n                        sock.send("SMSD;" + NL)\n                        time.sleep(10)\n                        sock.send("++read eoi" + NL)\n                        time.sleep(4)\n                        ms_check = sock.recv(64)\n                        time.sleep(1)\n\n                    # Active Data Trace Dump in ASCII\n                    sock.send("DDAS;" + NL)\n                    time.sleep(15)\n                    sock.send("++read eoi" + NL)\n                    time.sleep(15)\n                    sin_dat_header = sock.recv(131072)\n                    sin_dat_header = [sin_dat_header]\n                    sin_dat_header = sin_dat_header[0].split(\'\\r\\n\')\n                    sin_dat_header.pop()\n                    sin_header = sin_dat_header[:67]\n                    sin_dat =  sin_dat_header[67:]\n                    for index, item in enumerate(sin_dat):\n                        sin_dat[index] = float(item)\n\n                    # Create data arrays using the dumped real and imaginary pairs\n                    sin_dat = np.array(sin_dat)\n                    sin_dat.shape = 801,2\n                    sin_dat_real = sin_dat[:,0]\n                    sin_dat_imag = sin_dat[:,1]\n\n                    sin_dat_comp = []\n                    for i in range(len(sin_dat_real)):\n                        sin_dat_comp.append(complex(sin_dat_real[i],sin_dat_imag[i]))\n\n                    sin_dat_abs = []\n                    for i in range(len(sin_dat_comp)):\n                        sin_dat_abs.append(abs(sin_dat_comp[i]))\n\n\n                    # Instrument State Dump in ASCII\n                    sock.send("DSAS;" + NL)\n                    time.sleep(15)\n                    sock.send("++read eoi" + NL)\n                    time.sleep(15)\n                    sin_state = sock.recv(131072)\n                    sin_state = [sin_state]\n                    sin_state = sin_state[0].split(\'\\r\\n\')\n                    sin_state.pop()\n\n                    # Retrieve useful information from the headers before generating plot\n                    frq_strt = float(sin_state[94])\n                    frq_end = float(sin_state[95])\n                    frq_span = frq_end - frq_strt\n                    frq_res = frq_span/801\n                    x_cord = float(sin_header[11])\n                    swp_rate = float(sin_state[68])\n                    swp_time = float(sin_state[67])\n                    swp_res = float(sin_state[69])\n                    swp_intm = float(sin_state[70])\n\n                    # Generate Frequency values based on start frequncy, frequncy span and frequency resolution\n                    x_val_ss = np.arange(frq_strt,frq_strt+frq_span,frq_res)\n\n                    session.run_type = request.vars.run_type\n\n                    if run_type == "PSD":\n                        x_psd_pck = pickle.dumps(x_val)\n                        x_psd_dat = pickle.dumps(dat)\n                    else:\n                        x_pck = pickle.dumps(x_val_ss)\n                        yr_pck = pickle.dumps(sin_dat_real)\n                        ya_pck = pickle.dumps(sin_dat_abs)\n                        db.data.insert(x = x_pck,\n                                       yr = yr_pck,\n                                       ya = ya_pck)\n\n                else:\n\n                    mSF_in = request.vars.frequency_start\n                    mStep_size = request.vars.frequency_range\n                    mNumber = request.vars.number_runs\n\n                    mSF_array = []\n                    mSF_db_array = []\n\n                    while mNumber > 0:\n                        mSF_array.append(binascii.a2b_qp(SF_pre+str(mSF_in)+HZ_suf))\n                        mSF_db_array.append(int(float(mSF_in)))\n                        mSF_in = int(float(mSF_in)) + int(float(mStep_size))\n                        mNumber = int(float(mNumber)) - 1\n\n                    for n,item in enumerate(mSF_array):\n                        sock.send("FREQ;" + NL)\n                        time.sleep(0.5)\n                        sock.send(mSF_array[n])\n                        time.sleep(0.5)\n                        sock.send("STRT;" + NL)\n                        time.sleep(20)\n                        sock.send("SMSD;" + NL)\n                        time.sleep(10)\n                        sock.send("++read eoi" + NL)\n                        time.sleep(2)\n                        ms_check = sock.recv(64)\n                    \n                        while ms_check == \'0\\r\\n\':\n                            time.sleep(10)\n                            sock.send("SMSD;" + NL)\n                            time.sleep(10)\n                            sock.send("++read eoi" + NL)\n                            time.sleep(4)\n                            ms_check = sock.recv(64)\n                            time.sleep(1)\n\n                        # Active Data Trace Dump in ASCII\n                        sock.send("DDAS;" + NL)\n                        time.sleep(15)\n                        sock.send("++read eoi" + NL)\n                        time.sleep(15)\n                        sin_dat_header = sock.recv(131072)\n                        sin_dat_header = [sin_dat_header]\n                        sin_dat_header = sin_dat_header[0].split(\'\\r\\n\')\n                        sin_dat_header.pop()\n                        sin_header = sin_dat_header[:67]\n                        sin_dat =  sin_dat_header[67:]\n                        for index, item in enumerate(sin_dat):\n                            sin_dat[index] = float(item)\n\n                        # Create data arrays using the dumped real and imaginary pairs\n                        sin_dat = np.array(sin_dat)\n                        sin_dat.shape = 801,2\n                        sin_dat_real = sin_dat[:,0]\n                        sin_dat_imag = sin_dat[:,1]\n\n                        sin_dat_comp = []\n                        for i in range(len(sin_dat_real)):\n                            sin_dat_comp.append(complex(sin_dat_real[i],sin_dat_imag[i]))\n\n                        sin_dat_abs = []\n                        for i in range(len(sin_dat_comp)):\n                            sin_dat_abs.append(abs(sin_dat_comp[i]))\n\n\n                        # Instrument State Dump in ASCII\n                        sock.send("DSAS;" + NL)\n                        time.sleep(15)\n                        sock.send("++read eoi" + NL)\n                        time.sleep(15)\n                        sin_state = sock.recv(131072)\n                        sin_state = [sin_state]\n                        sin_state = sin_state[0].split(\'\\r\\n\')\n                        sin_state.pop()\n\n                        # Retrieve useful information from the headers before generating plot\n                        frq_strt = float(sin_state[94])\n                        frq_end = float(sin_state[95])\n                        frq_span = frq_end - frq_strt\n                        frq_res = frq_span/801\n                        x_cord = float(sin_header[11])\n                        swp_rate = float(sin_state[68])\n                        swp_time = float(sin_state[67])\n                        swp_res = float(sin_state[69])\n                        swp_intm = float(sin_state[70])\n\n                        # Generate Frequency values based on start frequncy, frequncy span and frequency resolution\n                        x_val_ss = np.arange(frq_strt,frq_strt+frq_span,frq_res)\n\n                        session.run_type = request.vars.run_type\n                        \n                        if run_type == "PSD":\n                            x_psd_pck = pickle.dumps(x_val)\n                            x_psd_dat = pickle.dumps(dat)\n                        else:\n                            db.results.insert(time = strftime("%Y-%m-%d %H:%M:%S", localtime()), \n    \t\t\t\t\t\t\t\t\t\tdevice = request.vars.device,\n\t\t\t\t\t\t\t\t\t\t\trun_type = request.vars.run_type,\n                                            start_frequency = mSF_db_array[n],\n                                            frequency_range = request.vars.frequency_range,\n                                            source_level = request.vars.source_level,\n                                            source_offset = request.vars.source_offset,\n                                            sweep_rate = request.vars.sweep_rate)\n                            x_pck = pickle.dumps(x_val_ss)\n                            yr_pck = pickle.dumps(sin_dat_real)\n                            ya_pck = pickle.dumps(sin_dat_abs)\n                            db.data.insert(x = x_pck,\n                                        yr = yr_pck,\n                                        ya = ya_pck)\n\n\n    elif form.errors:\n        response.flash = \'Error, please try again\'\n    else:\n        response.flash = \'Please fill in the data\'\n\n    rows = db(db.results.id==db.data.id).select(db.results.time,db.results.device,db.results.run_type,db.results.start_frequency,db.results.frequency_range,db.results.source_level,db.results.source_offset,db.results.sweep_rate,db.data.id)\n    records=SQLTABLE(rows, headers=\'labels\')\n    return dict(form=form,vars=form.vars,records=records)\n\ndef plot_data():\n    dataplot=db.data[request.args(0)] or redirect(URL(r=request,f=\'index\'))\n    x_val = dataplot.x\n    y_abs = dataplot.ya\n    y_real = dataplot.yr\n    return image_mat(x_val,y_abs,y_real)\n\ndef image_mat(x,ya,yr):\n    import sys\n    import cStringIO\n    from matplotlib.backends.backend_agg import FigureCanvasAgg as FigureCanvas\n    from matplotlib.figure import Figure\n    import matplotlib\n\n    #run_type = request.vars.run_type\n\n    #if (run_type == "PSD"):\n    #    fig=Figure()\n    #    ax=fig.add_subplot(111)\n    #    x_val = session.x_val\n    #    dat = session.dat\n    #    ax.plot(x_val,dat)\n    #    ax.set_xlabel("Hz")\n    #    ax.set_ylabel("dB")\n    #    ax.axis(\'tight\')\n    #    canvas=FigureCanvas(fig)\n    #    response.headers[\'Content-Type\']="image/png"\n    #    stream=cStringIO.StringIO()\n    #    canvas.print_png(stream)\n    #elif (run_type == "Sweep"):\n    x_val_ss = pickle.loads(x)\n    sin_dat_abs = pickle.loads(ya)\n    sin_dat_real = pickle.loads(yr)\n    fig=Figure()\n    ax=fig.add_subplot(211)\n    ax.plot(x_val_ss,sin_dat_abs)\n    ax.set_xlabel("Hz")\n    ax.set_ylabel("Mag")\n    ax.axis(\'tight\')\n    ay=fig.add_subplot(212)\n    ay.plot(x_val_ss,sin_dat_real)\n    ay.set_xlabel("Hz")\n    ay.set_ylabel("Real")\n    ay.axis(\'tight\')\n    sizer = request.function\n    if sizer == \'index\':\n        rcParams[\'figure.figsize\'] = 1.5,.75\n    else:\n        rcParams[\'figure.figsize\'] = 10,8\n    canvas=FigureCanvas(fig)\n    response.headers[\'Content-Type\']=\'image/png\'\n    stream=cStringIO.StringIO()\n    canvas.print_png(stream)\n\n    return stream.getvalue()\n\ndef plot_thumb():\n    dataplot_th=db.data[request.args(0)] or redirect(URL(r=request,f=\'index\'))\n    x_val_th = dataplot_th.x\n    y_abs_th = dataplot_th.ya\n    y_real_th = dataplot_th.yr\n    return image_mat_thumb(x_val_th,y_abs_th,y_real_th)\n\ndef image_mat_thumb(xth,yath,yrth):\n    import sys\n    import cStringIO\n    from matplotlib.backends.backend_agg import FigureCanvasAgg as FigureCanvas\n    from matplotlib.figure import Figure\n    import matplotlib\n\n    #run_type = request.vars.run_type\n\n    #if (run_type == "PSD"):\n    #    fig=Figure()\n    #    ax=fig.add_subplot(111)\n    #    x_val = session.x_val\n    #    dat = session.dat\n    #    ax.plot(x_val,dat)\n    #    ax.set_xlabel("Hz")\n    #    ax.set_ylabel("dB")\n    #    ax.axis(\'tight\')\n    #    canvas=FigureCanvas(fig)\n    #    response.headers[\'Content-Type\']="image/png"\n    #    stream=cStringIO.StringIO()\n    #    canvas.print_png(stream)\n    #elif (run_type == "Sweep"):\n    x_val_ss = pickle.loads(xth)\n    sin_dat_abs = pickle.loads(yath)\n    sin_dat_real = pickle.loads(yrth)\n    fig=Figure()\n    ax=fig.add_subplot(211)\n    ax.plot(x_val_ss,sin_dat_abs)\n    ax.set_xlabel("Hz")\n    ax.set_ylabel("Mag")\n    ax.axis(\'tight\')\n    ay=fig.add_subplot(212)\n    ay.plot(x_val_ss,sin_dat_real)\n    ay.set_xlabel("Hz")\n    ay.set_ylabel("Real")\n    ay.axis(\'tight\')\n    sizer = request.function\n    if sizer == \'index\':\n        rcParams[\'figure.figsize\'] = 1.5,.75\n    else:\n        rcParams[\'figure.figsize\'] = 10,8\n    canvas=FigureCanvas(fig)\n    response.headers[\'Content-Type\']=\'image/png\'\n    stream=cStringIO.StringIO()\n    canvas.print_png(stream)\n\n    return stream.getvalue()\n\ndef calc_sweep_time():\n    FRS_in = request.vars.frequency_range\n    SW_in = request.vars.sweep_rate\n    m_runs = request.vars.multiple_runs\n    n_in = request.vars.number_runs\n\n    n_runs = float(n_in)\n    frq_range = float(FRS_in)\n    swp_rate = float(SW_in)\n    \n    swp_t_single = ((frq_range/swp_rate) + 90)/60\n    \n    if (m_runs == True):\n        swp_t_tot = swp_t_single * n_runs\n    else:\n        swp_t_tot = swp_t_single\n        \n    swp_t_s = str(swp_t_single)\n    swp_t_t = str(swp_t_tot)\n\n    return "jQuery(\'#run_time\').html(\'Each run should take approximately %s minutes. The total sweep time is approximately %s minutes\')" % (swp_t_s, swp_t_t)\n\ndef calc_sweep_func():\n    SF_in = request.vars.frequency_start\n    FRS_in = request.vars.frequency_range\n    device = request.vars.device\n\n    if device == "Medium":\n        HOST = "172.21.7.68"\n    else:\n        HOST = "172.21.7.69"\n\n    PORT = 1234\n    NL = "\\r\\n"\n\n    SF_pre = "SF "\n    FRS_pre = "FRS "\n    HZ_suf = " HZ;" + NL\n\n    SF_var = binascii.a2b_qp(SF_pre+str(SF_in)+HZ_suf)\n    FRS_var = binascii.a2b_qp(FRS_pre+str(FRS_in)+HZ_suf)\n\n    sock = socket.socket(socket.AF_INET, socket.SOCK_STREAM, socket.IPPROTO_TCP)\n    sock.settimeout(0.5)\n    sock.connect((HOST,PORT))\n\n    sock.send("++mode 1" + NL)\n    sock.send("++addr 20" + NL)\n    sock.send("++auto 0" + NL)\n    sock.send("++eoi 1" + NL)\n\n    sock.send("AB;" + NL)\n    time.sleep(0.5)\n    sock.send("MSMD;" + NL)\n    time.sleep(0.5)\n    sock.send("SSIN;" + NL)\n    time.sleep(0.5)\n    sock.send("LNSW;" + NL)\n    time.sleep(0.5)\n    sock.send("MDSP;" + NL)\n    time.sleep(0.5)\n    sock.send("FRQR;" + NL)\n    time.sleep(0.5)\n    sock.send("SMES;" + NL)\n    time.sleep(0.5)\n    sock.send("FRSP;" + NL)\n    time.sleep(0.5)\n    sock.send("STTR;" + NL)\n    time.sleep(0.5)\n    sock.send("FREQ;" + NL)\n    time.sleep(0.5)\n    sock.send(SF_var)\n    time.sleep(0.5)\n    sock.send(FRS_var)\n    time.sleep(0.5)\n    sock.send("CORD;" + NL)\n    time.sleep(0.5)\n    sock.send("A;" + NL)\n    time.sleep(0.5)\n    sock.send("MAG;" + NL)\n    time.sleep(0.5)\n    sock.send("B;" + NL)\n    time.sleep(0.5)\n    sock.send("REAL;" + NL)\n    time.sleep(0.5)\n    sock.send("SCAL;" + NL)\n    time.sleep(0.5)\n    sock.send("AB;" + NL)\n    time.sleep(0.5)\n    sock.send("YASC;" + NL)\n    time.sleep(0.5)\n    sock.send("XASC;" + NL)\n    time.sleep(0.5)\n    sock.send("STTR;" + NL)\n    time.sleep(0.5)\n    sock.send("SWRT;" + NL)\n    time.sleep(0.5)\n    sock.send("SWRT?" + NL)\n    time.sleep(6)\n    sock.send("++read eoi" + NL)\n    swp_el = sock.recv(64)\n    swp_el = swp_el.split(\'\\r\\n\')[0]\n\n    return "jQuery(\'#gpib_sweep_rate\').val(%s);\\njQuery(\'#gpib_sweep_rate\').blur();" % repr(swp_el)\n\ndef sweep_up_func():\n\n    FRS_in = request.vars.frequency_range\n    device = request.vars.device\n\n    if device == "Medium":\n        HOST = "172.21.7.68"\n    else:\n        HOST = "172.21.7.69"\n\n    PORT = 1234\n    NL = "\\r\\n"\n\n    sock = socket.socket(socket.AF_INET, socket.SOCK_STREAM, socket.IPPROTO_TCP)\n    sock.settimeout(0.5)\n    sock.connect((HOST,PORT))\n\n    sock.send("SWRT;" + NL)\n    time.sleep(0.5)\n    sock.send("UP;" + NL)\n    time.sleep(0.5)\n    sock.send("SWRT?" + NL)\n    time.sleep(6)\n    sock.send("++read eoi" + NL)\n    swp_el_up = sock.recv(64)\n    swp_el_up = swp_el_up.split(\'\\r\\n\')[0]\n\n    return "jQuery(\'#gpib_sweep_rate\').val(%s);\\njQuery(\'#gpib_sweep_rate\').blur();" % repr(swp_el_up)\n\ndef sweep_down_func():\n\n    FRS_in = request.vars.frequency_range\n    device = request.vars.device\n\n    if device == "Medium":\n        HOST = "172.21.7.68"\n    else:\n        HOST = "172.21.7.69"\n\n    PORT = 1234\n    NL = "\\r\\n"\n\n    sock = socket.socket(socket.AF_INET, socket.SOCK_STREAM, socket.IPPROTO_TCP)\n    sock.settimeout(0.5)\n    sock.connect((HOST,PORT))\n\n    sock.send("SWRT;" + NL)\n    time.sleep(0.5)\n    sock.send("DOWN;" + NL)\n    time.sleep(0.5)\n    sock.send("SWRT?" + NL)\n    time.sleep(6)\n    sock.send("++read eoi" + NL)\n    swp_el_down = sock.recv(64)\n    swp_el_down = swp_el_down.split(\'\\r\\n\')[0]\n\n    return "jQuery(\'#gpib_sweep_rate\').val(%s);\\njQuery(\'#gpib_sweep_rate\').blur();" % repr(swp_el_down)\n\ndef user():\n    """\n    exposes:\n    http://..../[app]/default/user/login\n    http://..../[app]/default/user/logout\n    http://..../[app]/default/user/register\n    http://..../[app]/default/user/profile\n    http://..../[app]/default/user/retrieve_password\n    http://..../[app]/default/user/change_password\n    use @auth.requires_login()\n        @auth.requires_membership(\'group name\')\n        @auth.requires_permission(\'read\',\'table name\',record_id)\n    to decorate functions that need access control\n    """\n    return dict(form=auth())\n\n\ndef download():\n    """\n    allows downloading of uploaded files\n    http://..../[app]/default/download/[filename]\n    """\n    return response.download(request,db)\n\n\ndef call():\n    """\n    exposes services. for example:\n    http://..../[app]/default/call/jsonrpc\n    decorate with @services.jsonrpc the functions to expose\n    supports xml, json, xmlrpc, jsonrpc, amfrpc, rss, csv\n    """\n    session.forget()\n    return service()\n\n\n\n@auth.requires_signature()\ndef data():\n    """\n    http://..../[app]/default/data/tables\n    http://..../[app]/default/data/create/[table]\n    http://..../[app]/default/data/read/[table]/[id]\n    http://..../[app]/default/data/update/[table]/[id]\n    http://..../[app]/default/data/delete/[table]/[id]\n    http://..../[app]/default/data/select/[table]\n    http://..../[app]/default/data/search/[table]\n    but URLs must be signed, i.e. linked with\n      A(\'table\',_href=URL(\'data/tables\',user_signature=True))\n    or with the signed load operator\n      LOAD(\'default\',\'data.load\',args=\'tables\',ajax=True,user_signature=True)\n    """\n    return dict(form=crud())\n\nresponse._vars=response._caller(calc_sweep_time)\n'
p7
sS'snapshot'
p8
(dp9
S'exception'
p10
(dp11
S'__hash__'
p12
S"<method-wrapper '__hash__' of exceptions.TypeError object>"
p13
sS'__setattr__'
p14
S"<method-wrapper '__setattr__' of exceptions.TypeError object>"
p15
sS'__reduce_ex__'
p16
S'<built-in method __reduce_ex__ of exceptions.TypeError object>'
p17
sS'__getslice__'
p18
S"<method-wrapper '__getslice__' of exceptions.TypeError object>"
p19
sS'__getitem__'
p20
S"<method-wrapper '__getitem__' of exceptions.TypeError object>"
p21
sS'__setstate__'
p22
S'<built-in method __setstate__ of exceptions.TypeError object>'
p23
sS'__reduce__'
p24
S'<built-in method __reduce__ of exceptions.TypeError object>'
p25
sS'__str__'
p26
S"<method-wrapper '__str__' of exceptions.TypeError object>"
p27
sS'__format__'
p28
S'<built-in method __format__ of exceptions.TypeError object>'
p29
sS'__getattribute__'
p30
S"<method-wrapper '__getattribute__' of exceptions.TypeError object>"
p31
sS'__class__'
p32
S"<type 'exceptions.TypeError'>"
p33
sS'__unicode__'
p34
S'<built-in method __unicode__ of exceptions.TypeError object>'
p35
sS'__delattr__'
p36
S"<method-wrapper '__delattr__' of exceptions.TypeError object>"
p37
sS'__subclasshook__'
p38
S'<built-in method __subclasshook__ of type object>'
p39
sS'__repr__'
p40
S"<method-wrapper '__repr__' of exceptions.TypeError object>"
p41
sS'args'
p42
S"('float() argument must be a string or a number',)"
p43
sS'__dict__'
p44
S'{}'
p45
sS'__sizeof__'
p46
S'<built-in method __sizeof__ of exceptions.TypeError object>'
p47
sS'__doc__'
p48
S"'Inappropriate argument type.'"
p49
sS'__init__'
p50
S"<method-wrapper '__init__' of exceptions.TypeError object>"
p51
sS'__new__'
p52
S'<built-in method __new__ of type object>'
p53
ssS'evalue'
p54
S'float() argument must be a string or a number'
p55
sS'request'
p56
ccopy_reg
_reconstructor
p57
(cgluon.html
BEAUTIFY
p58
c__builtin__
object
p59
NtRp60
(dp61
S'attributes'
p62
(dp63
sS'components'
p64
(lp65
g57
(cgluon.html
TABLE
p66
g59
NtRp67
(dp68
g62
(dp69
S'level'
p70
I5
ssS'parent'
p71
Nsg64
(lp72
g57
(cgluon.html
TR
p73
g59
NtRp74
(dp75
g62
(dp76
sg71
g67
sg64
(lp77
g57
(cgluon.html
TD
p78
g59
NtRp79
(dp80
g62
(dp81
S'_style'
p82
S'font-weight:bold;vertical-align:top'
p83
ssg71
g74
sg64
(lp84
S'ajax'
p85
asbag57
(g78
g59
NtRp86
(dp87
g62
(dp88
S'_valign'
p89
S'top'
p90
ssg71
g74
sg64
(lp91
S':'
asbag57
(g78
g59
NtRp92
(dp93
g62
(dp94
sg71
g74
sg64
(lp95
g57
(g58
g59
NtRp96
(dp97
g62
(dp98
g70
I5
ssg71
g92
sg64
(lp99
S'False'
p100
asbasbasbag57
(g73
g59
NtRp101
(dp102
g62
(dp103
sg71
g67
sg64
(lp104
g57
(g78
g59
NtRp105
(dp106
g62
(dp107
g82
g83
ssg71
g101
sg64
(lp108
S'application'
p109
asbag57
(g78
g59
NtRp110
(dp111
g62
(dp112
g89
g90
ssg71
g101
sg64
(lp113
S':'
asbag57
(g78
g59
NtRp114
(dp115
g62
(dp116
sg71
g101
sg64
(lp117
g57
(g58
g59
NtRp118
(dp119
g62
(dp120
g70
I5
ssg71
g114
sg64
(lp121
S'GPIBHWS'
p122
asbasbasbag57
(g73
g59
NtRp123
(dp124
g62
(dp125
sg71
g67
sg64
(lp126
g57
(g78
g59
NtRp127
(dp128
g62
(dp129
g82
g83
ssg71
g123
sg64
(lp130
g42
asbag57
(g78
g59
NtRp131
(dp132
g62
(dp133
g89
g90
ssg71
g123
sg64
(lp134
S':'
asbag57
(g78
g59
NtRp135
(dp136
g62
(dp137
sg71
g123
sg64
(lp138
g57
(g58
g59
NtRp139
(dp140
g62
(dp141
g70
I5
ssg71
g135
sg64
(lp142
g57
(g66
g59
NtRp143
(dp144
g62
(dp145
g70
I4
ssg71
Nsg64
(lp146
sbasbasbasbag57
(g73
g59
NtRp147
(dp148
g62
(dp149
sg71
g67
sg64
(lp150
g57
(g78
g59
NtRp151
(dp152
g62
(dp153
g82
g83
ssg71
g147
sg64
(lp154
S'body'
p155
asbag57
(g78
g59
NtRp156
(dp157
g62
(dp158
g89
g90
ssg71
g147
sg64
(lp159
S':'
asbag57
(g78
g59
NtRp160
(dp161
g62
(dp162
sg71
g147
sg64
(lp163
g57
(g58
g59
NtRp164
(dp165
g62
(dp166
g70
I5
ssg71
g160
sg64
(lp167
S'<cStringIO.StringO object at 0x1b66e3c0>'
p168
asbasbasbag57
(g73
g59
NtRp169
(dp170
g62
(dp171
sg71
g67
sg64
(lp172
g57
(g78
g59
NtRp173
(dp174
g62
(dp175
g82
g83
ssg71
g169
sg64
(lp176
S'client'
p177
asbag57
(g78
g59
NtRp178
(dp179
g62
(dp180
g89
g90
ssg71
g169
sg64
(lp181
S':'
asbag57
(g78
g59
NtRp182
(dp183
g62
(dp184
sg71
g169
sg64
(lp185
g57
(g58
g59
NtRp186
(dp187
g62
(dp188
g70
I5
ssg71
g182
sg64
(lp189
S'127.0.0.1'
p190
asbasbasbag57
(g73
g59
NtRp191
(dp192
g62
(dp193
sg71
g67
sg64
(lp194
g57
(g78
g59
NtRp195
(dp196
g62
(dp197
g82
g83
ssg71
g191
sg64
(lp198
S'controller'
p199
asbag57
(g78
g59
NtRp200
(dp201
g62
(dp202
g89
g90
ssg71
g191
sg64
(lp203
S':'
asbag57
(g78
g59
NtRp204
(dp205
g62
(dp206
sg71
g191
sg64
(lp207
g57
(g58
g59
NtRp208
(dp209
g62
(dp210
g70
I5
ssg71
g204
sg64
(lp211
S'default'
p212
asbasbasbag57
(g73
g59
NtRp213
(dp214
g62
(dp215
sg71
g67
sg64
(lp216
g57
(g78
g59
NtRp217
(dp218
g62
(dp219
g82
g83
ssg71
g213
sg64
(lp220
S'cookies'
p221
asbag57
(g78
g59
NtRp222
(dp223
g62
(dp224
g89
g90
ssg71
g213
sg64
(lp225
S':'
asbag57
(g78
g59
NtRp226
(dp227
g62
(dp228
sg71
g213
sg64
(lp229
g57
(g58
g59
NtRp230
(dp231
g62
(dp232
g70
I5
ssg71
g226
sg64
(lp233
g57
(g66
g59
NtRp234
(dp235
g62
(dp236
g70
I4
ssg71
Nsg64
(lp237
g57
(g73
g59
NtRp238
(dp239
g62
(dp240
sg71
g234
sg64
(lp241
g57
(g78
g59
NtRp242
(dp243
g62
(dp244
g82
g83
ssg71
g238
sg64
(lp245
S'session_id_admin'
p246
asbag57
(g78
g59
NtRp247
(dp248
g62
(dp249
g89
g90
ssg71
g238
sg64
(lp250
S':'
asbag57
(g78
g59
NtRp251
(dp252
g62
(dp253
sg71
g238
sg64
(lp254
g57
(g58
g59
NtRp255
(dp256
g62
(dp257
g70
I4
ssg71
g251
sg64
(lp258
S'127.0.0.1-aa4f76c9-9d67-46ca-a892-d9c6fd0665fe'
p259
ag57
(g66
g59
NtRp260
(dp261
g62
(dp262
g70
I3
ssg71
Nsg64
(lp263
g57
(g73
g59
NtRp264
(dp265
g62
(dp266
sg71
g260
sg64
(lp267
g57
(g78
g59
NtRp268
(dp269
g62
(dp270
g82
g83
ssg71
g264
sg64
(lp271
S'comment'
p272
asbag57
(g78
g59
NtRp273
(dp274
g62
(dp275
g89
g90
ssg71
g264
sg64
(lp276
S':'
asbag57
(g78
g59
NtRp277
(dp278
g62
(dp279
sg71
g264
sg64
(lp280
g57
(g58
g59
NtRp281
(dp282
g62
(dp283
g70
I3
ssg71
g277
sg64
(lp284
S''
asbasbasbag57
(g73
g59
NtRp285
(dp286
g62
(dp287
sg71
g260
sg64
(lp288
g57
(g78
g59
NtRp289
(dp290
g62
(dp291
g82
g83
ssg71
g285
sg64
(lp292
S'domain'
p293
asbag57
(g78
g59
NtRp294
(dp295
g62
(dp296
g89
g90
ssg71
g285
sg64
(lp297
S':'
asbag57
(g78
g59
NtRp298
(dp299
g62
(dp300
sg71
g285
sg64
(lp301
g57
(g58
g59
NtRp302
(dp303
g62
(dp304
g70
I3
ssg71
g298
sg64
(lp305
S''
asbasbasbag57
(g73
g59
NtRp306
(dp307
g62
(dp308
sg71
g260
sg64
(lp309
g57
(g78
g59
NtRp310
(dp311
g62
(dp312
g82
g83
ssg71
g306
sg64
(lp313
S'expires'
p314
asbag57
(g78
g59
NtRp315
(dp316
g62
(dp317
g89
g90
ssg71
g306
sg64
(lp318
S':'
asbag57
(g78
g59
NtRp319
(dp320
g62
(dp321
sg71
g306
sg64
(lp322
g57
(g58
g59
NtRp323
(dp324
g62
(dp325
g70
I3
ssg71
g319
sg64
(lp326
S''
asbasbasbag57
(g73
g59
NtRp327
(dp328
g62
(dp329
sg71
g260
sg64
(lp330
g57
(g78
g59
NtRp331
(dp332
g62
(dp333
g82
g83
ssg71
g327
sg64
(lp334
S'httponly'
p335
asbag57
(g78
g59
NtRp336
(dp337
g62
(dp338
g89
g90
ssg71
g327
sg64
(lp339
S':'
asbag57
(g78
g59
NtRp340
(dp341
g62
(dp342
sg71
g327
sg64
(lp343
g57
(g58
g59
NtRp344
(dp345
g62
(dp346
g70
I3
ssg71
g340
sg64
(lp347
S''
asbasbasbag57
(g73
g59
NtRp348
(dp349
g62
(dp350
sg71
g260
sg64
(lp351
g57
(g78
g59
NtRp352
(dp353
g62
(dp354
g82
g83
ssg71
g348
sg64
(lp355
S'max-age'
p356
asbag57
(g78
g59
NtRp357
(dp358
g62
(dp359
g89
g90
ssg71
g348
sg64
(lp360
S':'
asbag57
(g78
g59
NtRp361
(dp362
g62
(dp363
sg71
g348
sg64
(lp364
g57
(g58
g59
NtRp365
(dp366
g62
(dp367
g70
I3
ssg71
g361
sg64
(lp368
S''
asbasbasbag57
(g73
g59
NtRp369
(dp370
g62
(dp371
sg71
g260
sg64
(lp372
g57
(g78
g59
NtRp373
(dp374
g62
(dp375
g82
g83
ssg71
g369
sg64
(lp376
S'path'
p377
asbag57
(g78
g59
NtRp378
(dp379
g62
(dp380
g89
g90
ssg71
g369
sg64
(lp381
S':'
asbag57
(g78
g59
NtRp382
(dp383
g62
(dp384
sg71
g369
sg64
(lp385
g57
(g58
g59
NtRp386
(dp387
g62
(dp388
g70
I3
ssg71
g382
sg64
(lp389
S''
asbasbasbag57
(g73
g59
NtRp390
(dp391
g62
(dp392
sg71
g260
sg64
(lp393
g57
(g78
g59
NtRp394
(dp395
g62
(dp396
g82
g83
ssg71
g390
sg64
(lp397
S'secure'
p398
asbag57
(g78
g59
NtRp399
(dp400
g62
(dp401
g89
g90
ssg71
g390
sg64
(lp402
S':'
asbag57
(g78
g59
NtRp403
(dp404
g62
(dp405
sg71
g390
sg64
(lp406
g57
(g58
g59
NtRp407
(dp408
g62
(dp409
g70
I3
ssg71
g403
sg64
(lp410
S''
asbasbasbag57
(g73
g59
NtRp411
(dp412
g62
(dp413
sg71
g260
sg64
(lp414
g57
(g78
g59
NtRp415
(dp416
g62
(dp417
g82
g83
ssg71
g411
sg64
(lp418
S'version'
p419
asbag57
(g78
g59
NtRp420
(dp421
g62
(dp422
g89
g90
ssg71
g411
sg64
(lp423
S':'
asbag57
(g78
g59
NtRp424
(dp425
g62
(dp426
sg71
g411
sg64
(lp427
g57
(g58
g59
NtRp428
(dp429
g62
(dp430
g70
I3
ssg71
g424
sg64
(lp431
S''
asbasbasbasbasbasbasbag57
(g73
g59
NtRp432
(dp433
g62
(dp434
sg71
g234
sg64
(lp435
g57
(g78
g59
NtRp436
(dp437
g62
(dp438
g82
g83
ssg71
g432
sg64
(lp439
S'session_id_gpib3562a'
p440
asbag57
(g78
g59
NtRp441
(dp442
g62
(dp443
g89
g90
ssg71
g432
sg64
(lp444
S':'
asbag57
(g78
g59
NtRp445
(dp446
g62
(dp447
sg71
g432
sg64
(lp448
g57
(g58
g59
NtRp449
(dp450
g62
(dp451
g70
I4
ssg71
g445
sg64
(lp452
S'127.0.0.1-d49cba14-6f33-40cd-983c-34bd052e67de'
p453
ag57
(g66
g59
NtRp454
(dp455
g62
(dp456
g70
I3
ssg71
Nsg64
(lp457
g57
(g73
g59
NtRp458
(dp459
g62
(dp460
sg71
g454
sg64
(lp461
g57
(g78
g59
NtRp462
(dp463
g62
(dp464
g82
g83
ssg71
g458
sg64
(lp465
g272
asbag57
(g78
g59
NtRp466
(dp467
g62
(dp468
g89
g90
ssg71
g458
sg64
(lp469
S':'
asbag57
(g78
g59
NtRp470
(dp471
g62
(dp472
sg71
g458
sg64
(lp473
g57
(g58
g59
NtRp474
(dp475
g62
(dp476
g70
I3
ssg71
g470
sg64
(lp477
S''
asbasbasbag57
(g73
g59
NtRp478
(dp479
g62
(dp480
sg71
g454
sg64
(lp481
g57
(g78
g59
NtRp482
(dp483
g62
(dp484
g82
g83
ssg71
g478
sg64
(lp485
g293
asbag57
(g78
g59
NtRp486
(dp487
g62
(dp488
g89
g90
ssg71
g478
sg64
(lp489
S':'
asbag57
(g78
g59
NtRp490
(dp491
g62
(dp492
sg71
g478
sg64
(lp493
g57
(g58
g59
NtRp494
(dp495
g62
(dp496
g70
I3
ssg71
g490
sg64
(lp497
S''
asbasbasbag57
(g73
g59
NtRp498
(dp499
g62
(dp500
sg71
g454
sg64
(lp501
g57
(g78
g59
NtRp502
(dp503
g62
(dp504
g82
g83
ssg71
g498
sg64
(lp505
g314
asbag57
(g78
g59
NtRp506
(dp507
g62
(dp508
g89
g90
ssg71
g498
sg64
(lp509
S':'
asbag57
(g78
g59
NtRp510
(dp511
g62
(dp512
sg71
g498
sg64
(lp513
g57
(g58
g59
NtRp514
(dp515
g62
(dp516
g70
I3
ssg71
g510
sg64
(lp517
S''
asbasbasbag57
(g73
g59
NtRp518
(dp519
g62
(dp520
sg71
g454
sg64
(lp521
g57
(g78
g59
NtRp522
(dp523
g62
(dp524
g82
g83
ssg71
g518
sg64
(lp525
g335
asbag57
(g78
g59
NtRp526
(dp527
g62
(dp528
g89
g90
ssg71
g518
sg64
(lp529
S':'
asbag57
(g78
g59
NtRp530
(dp531
g62
(dp532
sg71
g518
sg64
(lp533
g57
(g58
g59
NtRp534
(dp535
g62
(dp536
g70
I3
ssg71
g530
sg64
(lp537
S''
asbasbasbag57
(g73
g59
NtRp538
(dp539
g62
(dp540
sg71
g454
sg64
(lp541
g57
(g78
g59
NtRp542
(dp543
g62
(dp544
g82
g83
ssg71
g538
sg64
(lp545
g356
asbag57
(g78
g59
NtRp546
(dp547
g62
(dp548
g89
g90
ssg71
g538
sg64
(lp549
S':'
asbag57
(g78
g59
NtRp550
(dp551
g62
(dp552
sg71
g538
sg64
(lp553
g57
(g58
g59
NtRp554
(dp555
g62
(dp556
g70
I3
ssg71
g550
sg64
(lp557
S''
asbasbasbag57
(g73
g59
NtRp558
(dp559
g62
(dp560
sg71
g454
sg64
(lp561
g57
(g78
g59
NtRp562
(dp563
g62
(dp564
g82
g83
ssg71
g558
sg64
(lp565
g377
asbag57
(g78
g59
NtRp566
(dp567
g62
(dp568
g89
g90
ssg71
g558
sg64
(lp569
S':'
asbag57
(g78
g59
NtRp570
(dp571
g62
(dp572
sg71
g558
sg64
(lp573
g57
(g58
g59
NtRp574
(dp575
g62
(dp576
g70
I3
ssg71
g570
sg64
(lp577
S''
asbasbasbag57
(g73
g59
NtRp578
(dp579
g62
(dp580
sg71
g454
sg64
(lp581
g57
(g78
g59
NtRp582
(dp583
g62
(dp584
g82
g83
ssg71
g578
sg64
(lp585
g398
asbag57
(g78
g59
NtRp586
(dp587
g62
(dp588
g89
g90
ssg71
g578
sg64
(lp589
S':'
asbag57
(g78
g59
NtRp590
(dp591
g62
(dp592
sg71
g578
sg64
(lp593
g57
(g58
g59
NtRp594
(dp595
g62
(dp596
g70
I3
ssg71
g590
sg64
(lp597
S''
asbasbasbag57
(g73
g59
NtRp598
(dp599
g62
(dp600
sg71
g454
sg64
(lp601
g57
(g78
g59
NtRp602
(dp603
g62
(dp604
g82
g83
ssg71
g598
sg64
(lp605
g419
asbag57
(g78
g59
NtRp606
(dp607
g62
(dp608
g89
g90
ssg71
g598
sg64
(lp609
S':'
asbag57
(g78
g59
NtRp610
(dp611
g62
(dp612
sg71
g598
sg64
(lp613
g57
(g58
g59
NtRp614
(dp615
g62
(dp616
g70
I3
ssg71
g610
sg64
(lp617
S''
asbasbasbasbasbasbasbag57
(g73
g59
NtRp618
(dp619
g62
(dp620
sg71
g234
sg64
(lp621
g57
(g78
g59
NtRp622
(dp623
g62
(dp624
g82
g83
ssg71
g618
sg64
(lp625
S'session_id_gpibfinal'
p626
asbag57
(g78
g59
NtRp627
(dp628
g62
(dp629
g89
g90
ssg71
g618
sg64
(lp630
S':'
asbag57
(g78
g59
NtRp631
(dp632
g62
(dp633
sg71
g618
sg64
(lp634
g57
(g58
g59
NtRp635
(dp636
g62
(dp637
g70
I4
ssg71
g631
sg64
(lp638
S'127.0.0.1-b6082bee-e94c-4b95-a41a-f1f299c63111'
p639
ag57
(g66
g59
NtRp640
(dp641
g62
(dp642
g70
I3
ssg71
Nsg64
(lp643
g57
(g73
g59
NtRp644
(dp645
g62
(dp646
sg71
g640
sg64
(lp647
g57
(g78
g59
NtRp648
(dp649
g62
(dp650
g82
g83
ssg71
g644
sg64
(lp651
g272
asbag57
(g78
g59
NtRp652
(dp653
g62
(dp654
g89
g90
ssg71
g644
sg64
(lp655
S':'
asbag57
(g78
g59
NtRp656
(dp657
g62
(dp658
sg71
g644
sg64
(lp659
g57
(g58
g59
NtRp660
(dp661
g62
(dp662
g70
I3
ssg71
g656
sg64
(lp663
S''
asbasbasbag57
(g73
g59
NtRp664
(dp665
g62
(dp666
sg71
g640
sg64
(lp667
g57
(g78
g59
NtRp668
(dp669
g62
(dp670
g82
g83
ssg71
g664
sg64
(lp671
g293
asbag57
(g78
g59
NtRp672
(dp673
g62
(dp674
g89
g90
ssg71
g664
sg64
(lp675
S':'
asbag57
(g78
g59
NtRp676
(dp677
g62
(dp678
sg71
g664
sg64
(lp679
g57
(g58
g59
NtRp680
(dp681
g62
(dp682
g70
I3
ssg71
g676
sg64
(lp683
S''
asbasbasbag57
(g73
g59
NtRp684
(dp685
g62
(dp686
sg71
g640
sg64
(lp687
g57
(g78
g59
NtRp688
(dp689
g62
(dp690
g82
g83
ssg71
g684
sg64
(lp691
g314
asbag57
(g78
g59
NtRp692
(dp693
g62
(dp694
g89
g90
ssg71
g684
sg64
(lp695
S':'
asbag57
(g78
g59
NtRp696
(dp697
g62
(dp698
sg71
g684
sg64
(lp699
g57
(g58
g59
NtRp700
(dp701
g62
(dp702
g70
I3
ssg71
g696
sg64
(lp703
S''
asbasbasbag57
(g73
g59
NtRp704
(dp705
g62
(dp706
sg71
g640
sg64
(lp707
g57
(g78
g59
NtRp708
(dp709
g62
(dp710
g82
g83
ssg71
g704
sg64
(lp711
g335
asbag57
(g78
g59
NtRp712
(dp713
g62
(dp714
g89
g90
ssg71
g704
sg64
(lp715
S':'
asbag57
(g78
g59
NtRp716
(dp717
g62
(dp718
sg71
g704
sg64
(lp719
g57
(g58
g59
NtRp720
(dp721
g62
(dp722
g70
I3
ssg71
g716
sg64
(lp723
S''
asbasbasbag57
(g73
g59
NtRp724
(dp725
g62
(dp726
sg71
g640
sg64
(lp727
g57
(g78
g59
NtRp728
(dp729
g62
(dp730
g82
g83
ssg71
g724
sg64
(lp731
g356
asbag57
(g78
g59
NtRp732
(dp733
g62
(dp734
g89
g90
ssg71
g724
sg64
(lp735
S':'
asbag57
(g78
g59
NtRp736
(dp737
g62
(dp738
sg71
g724
sg64
(lp739
g57
(g58
g59
NtRp740
(dp741
g62
(dp742
g70
I3
ssg71
g736
sg64
(lp743
S''
asbasbasbag57
(g73
g59
NtRp744
(dp745
g62
(dp746
sg71
g640
sg64
(lp747
g57
(g78
g59
NtRp748
(dp749
g62
(dp750
g82
g83
ssg71
g744
sg64
(lp751
g377
asbag57
(g78
g59
NtRp752
(dp753
g62
(dp754
g89
g90
ssg71
g744
sg64
(lp755
S':'
asbag57
(g78
g59
NtRp756
(dp757
g62
(dp758
sg71
g744
sg64
(lp759
g57
(g58
g59
NtRp760
(dp761
g62
(dp762
g70
I3
ssg71
g756
sg64
(lp763
S''
asbasbasbag57
(g73
g59
NtRp764
(dp765
g62
(dp766
sg71
g640
sg64
(lp767
g57
(g78
g59
NtRp768
(dp769
g62
(dp770
g82
g83
ssg71
g764
sg64
(lp771
g398
asbag57
(g78
g59
NtRp772
(dp773
g62
(dp774
g89
g90
ssg71
g764
sg64
(lp775
S':'
asbag57
(g78
g59
NtRp776
(dp777
g62
(dp778
sg71
g764
sg64
(lp779
g57
(g58
g59
NtRp780
(dp781
g62
(dp782
g70
I3
ssg71
g776
sg64
(lp783
S''
asbasbasbag57
(g73
g59
NtRp784
(dp785
g62
(dp786
sg71
g640
sg64
(lp787
g57
(g78
g59
NtRp788
(dp789
g62
(dp790
g82
g83
ssg71
g784
sg64
(lp791
g419
asbag57
(g78
g59
NtRp792
(dp793
g62
(dp794
g89
g90
ssg71
g784
sg64
(lp795
S':'
asbag57
(g78
g59
NtRp796
(dp797
g62
(dp798
sg71
g784
sg64
(lp799
g57
(g58
g59
NtRp800
(dp801
g62
(dp802
g70
I3
ssg71
g796
sg64
(lp803
S''
asbasbasbasbasbasbasbag57
(g73
g59
NtRp804
(dp805
g62
(dp806
sg71
g234
sg64
(lp807
g57
(g78
g59
NtRp808
(dp809
g62
(dp810
g82
g83
ssg71
g804
sg64
(lp811
S'session_id_gpibhws'
p812
asbag57
(g78
g59
NtRp813
(dp814
g62
(dp815
g89
g90
ssg71
g804
sg64
(lp816
S':'
asbag57
(g78
g59
NtRp817
(dp818
g62
(dp819
sg71
g804
sg64
(lp820
g57
(g58
g59
NtRp821
(dp822
g62
(dp823
g70
I4
ssg71
g817
sg64
(lp824
S'127.0.0.1-6f11aa51-d759-4ec6-a0c2-b8d4140bb744'
p825
ag57
(g66
g59
NtRp826
(dp827
g62
(dp828
g70
I3
ssg71
Nsg64
(lp829
g57
(g73
g59
NtRp830
(dp831
g62
(dp832
sg71
g826
sg64
(lp833
g57
(g78
g59
NtRp834
(dp835
g62
(dp836
g82
g83
ssg71
g830
sg64
(lp837
g272
asbag57
(g78
g59
NtRp838
(dp839
g62
(dp840
g89
g90
ssg71
g830
sg64
(lp841
S':'
asbag57
(g78
g59
NtRp842
(dp843
g62
(dp844
sg71
g830
sg64
(lp845
g57
(g58
g59
NtRp846
(dp847
g62
(dp848
g70
I3
ssg71
g842
sg64
(lp849
S''
asbasbasbag57
(g73
g59
NtRp850
(dp851
g62
(dp852
sg71
g826
sg64
(lp853
g57
(g78
g59
NtRp854
(dp855
g62
(dp856
g82
g83
ssg71
g850
sg64
(lp857
g293
asbag57
(g78
g59
NtRp858
(dp859
g62
(dp860
g89
g90
ssg71
g850
sg64
(lp861
S':'
asbag57
(g78
g59
NtRp862
(dp863
g62
(dp864
sg71
g850
sg64
(lp865
g57
(g58
g59
NtRp866
(dp867
g62
(dp868
g70
I3
ssg71
g862
sg64
(lp869
S''
asbasbasbag57
(g73
g59
NtRp870
(dp871
g62
(dp872
sg71
g826
sg64
(lp873
g57
(g78
g59
NtRp874
(dp875
g62
(dp876
g82
g83
ssg71
g870
sg64
(lp877
g314
asbag57
(g78
g59
NtRp878
(dp879
g62
(dp880
g89
g90
ssg71
g870
sg64
(lp881
S':'
asbag57
(g78
g59
NtRp882
(dp883
g62
(dp884
sg71
g870
sg64
(lp885
g57
(g58
g59
NtRp886
(dp887
g62
(dp888
g70
I3
ssg71
g882
sg64
(lp889
S''
asbasbasbag57
(g73
g59
NtRp890
(dp891
g62
(dp892
sg71
g826
sg64
(lp893
g57
(g78
g59
NtRp894
(dp895
g62
(dp896
g82
g83
ssg71
g890
sg64
(lp897
g335
asbag57
(g78
g59
NtRp898
(dp899
g62
(dp900
g89
g90
ssg71
g890
sg64
(lp901
S':'
asbag57
(g78
g59
NtRp902
(dp903
g62
(dp904
sg71
g890
sg64
(lp905
g57
(g58
g59
NtRp906
(dp907
g62
(dp908
g70
I3
ssg71
g902
sg64
(lp909
S''
asbasbasbag57
(g73
g59
NtRp910
(dp911
g62
(dp912
sg71
g826
sg64
(lp913
g57
(g78
g59
NtRp914
(dp915
g62
(dp916
g82
g83
ssg71
g910
sg64
(lp917
g356
asbag57
(g78
g59
NtRp918
(dp919
g62
(dp920
g89
g90
ssg71
g910
sg64
(lp921
S':'
asbag57
(g78
g59
NtRp922
(dp923
g62
(dp924
sg71
g910
sg64
(lp925
g57
(g58
g59
NtRp926
(dp927
g62
(dp928
g70
I3
ssg71
g922
sg64
(lp929
S''
asbasbasbag57
(g73
g59
NtRp930
(dp931
g62
(dp932
sg71
g826
sg64
(lp933
g57
(g78
g59
NtRp934
(dp935
g62
(dp936
g82
g83
ssg71
g930
sg64
(lp937
g377
asbag57
(g78
g59
NtRp938
(dp939
g62
(dp940
g89
g90
ssg71
g930
sg64
(lp941
S':'
asbag57
(g78
g59
NtRp942
(dp943
g62
(dp944
sg71
g930
sg64
(lp945
g57
(g58
g59
NtRp946
(dp947
g62
(dp948
g70
I3
ssg71
g942
sg64
(lp949
S''
asbasbasbag57
(g73
g59
NtRp950
(dp951
g62
(dp952
sg71
g826
sg64
(lp953
g57
(g78
g59
NtRp954
(dp955
g62
(dp956
g82
g83
ssg71
g950
sg64
(lp957
g398
asbag57
(g78
g59
NtRp958
(dp959
g62
(dp960
g89
g90
ssg71
g950
sg64
(lp961
S':'
asbag57
(g78
g59
NtRp962
(dp963
g62
(dp964
sg71
g950
sg64
(lp965
g57
(g58
g59
NtRp966
(dp967
g62
(dp968
g70
I3
ssg71
g962
sg64
(lp969
S''
asbasbasbag57
(g73
g59
NtRp970
(dp971
g62
(dp972
sg71
g826
sg64
(lp973
g57
(g78
g59
NtRp974
(dp975
g62
(dp976
g82
g83
ssg71
g970
sg64
(lp977
g419
asbag57
(g78
g59
NtRp978
(dp979
g62
(dp980
g89
g90
ssg71
g970
sg64
(lp981
S':'
asbag57
(g78
g59
NtRp982
(dp983
g62
(dp984
sg71
g970
sg64
(lp985
g57
(g58
g59
NtRp986
(dp987
g62
(dp988
g70
I3
ssg71
g982
sg64
(lp989
S''
asbasbasbasbasbasbasbag57
(g73
g59
NtRp990
(dp991
g62
(dp992
sg71
g234
sg64
(lp993
g57
(g78
g59
NtRp994
(dp995
g62
(dp996
g82
g83
ssg71
g990
sg64
(lp997
S'session_id_gpibtrunk'
p998
asbag57
(g78
g59
NtRp999
(dp1000
g62
(dp1001
g89
g90
ssg71
g990
sg64
(lp1002
S':'
asbag57
(g78
g59
NtRp1003
(dp1004
g62
(dp1005
sg71
g990
sg64
(lp1006
g57
(g58
g59
NtRp1007
(dp1008
g62
(dp1009
g70
I4
ssg71
g1003
sg64
(lp1010
S'127.0.0.1-33c70933-7db5-4e9b-ab7a-f4656c326e0a'
p1011
ag57
(g66
g59
NtRp1012
(dp1013
g62
(dp1014
g70
I3
ssg71
Nsg64
(lp1015
g57
(g73
g59
NtRp1016
(dp1017
g62
(dp1018
sg71
g1012
sg64
(lp1019
g57
(g78
g59
NtRp1020
(dp1021
g62
(dp1022
g82
g83
ssg71
g1016
sg64
(lp1023
g272
asbag57
(g78
g59
NtRp1024
(dp1025
g62
(dp1026
g89
g90
ssg71
g1016
sg64
(lp1027
S':'
asbag57
(g78
g59
NtRp1028
(dp1029
g62
(dp1030
sg71
g1016
sg64
(lp1031
g57
(g58
g59
NtRp1032
(dp1033
g62
(dp1034
g70
I3
ssg71
g1028
sg64
(lp1035
S''
asbasbasbag57
(g73
g59
NtRp1036
(dp1037
g62
(dp1038
sg71
g1012
sg64
(lp1039
g57
(g78
g59
NtRp1040
(dp1041
g62
(dp1042
g82
g83
ssg71
g1036
sg64
(lp1043
g293
asbag57
(g78
g59
NtRp1044
(dp1045
g62
(dp1046
g89
g90
ssg71
g1036
sg64
(lp1047
S':'
asbag57
(g78
g59
NtRp1048
(dp1049
g62
(dp1050
sg71
g1036
sg64
(lp1051
g57
(g58
g59
NtRp1052
(dp1053
g62
(dp1054
g70
I3
ssg71
g1048
sg64
(lp1055
S''
asbasbasbag57
(g73
g59
NtRp1056
(dp1057
g62
(dp1058
sg71
g1012
sg64
(lp1059
g57
(g78
g59
NtRp1060
(dp1061
g62
(dp1062
g82
g83
ssg71
g1056
sg64
(lp1063
g314
asbag57
(g78
g59
NtRp1064
(dp1065
g62
(dp1066
g89
g90
ssg71
g1056
sg64
(lp1067
S':'
asbag57
(g78
g59
NtRp1068
(dp1069
g62
(dp1070
sg71
g1056
sg64
(lp1071
g57
(g58
g59
NtRp1072
(dp1073
g62
(dp1074
g70
I3
ssg71
g1068
sg64
(lp1075
S''
asbasbasbag57
(g73
g59
NtRp1076
(dp1077
g62
(dp1078
sg71
g1012
sg64
(lp1079
g57
(g78
g59
NtRp1080
(dp1081
g62
(dp1082
g82
g83
ssg71
g1076
sg64
(lp1083
g335
asbag57
(g78
g59
NtRp1084
(dp1085
g62
(dp1086
g89
g90
ssg71
g1076
sg64
(lp1087
S':'
asbag57
(g78
g59
NtRp1088
(dp1089
g62
(dp1090
sg71
g1076
sg64
(lp1091
g57
(g58
g59
NtRp1092
(dp1093
g62
(dp1094
g70
I3
ssg71
g1088
sg64
(lp1095
S''
asbasbasbag57
(g73
g59
NtRp1096
(dp1097
g62
(dp1098
sg71
g1012
sg64
(lp1099
g57
(g78
g59
NtRp1100
(dp1101
g62
(dp1102
g82
g83
ssg71
g1096
sg64
(lp1103
g356
asbag57
(g78
g59
NtRp1104
(dp1105
g62
(dp1106
g89
g90
ssg71
g1096
sg64
(lp1107
S':'
asbag57
(g78
g59
NtRp1108
(dp1109
g62
(dp1110
sg71
g1096
sg64
(lp1111
g57
(g58
g59
NtRp1112
(dp1113
g62
(dp1114
g70
I3
ssg71
g1108
sg64
(lp1115
S''
asbasbasbag57
(g73
g59
NtRp1116
(dp1117
g62
(dp1118
sg71
g1012
sg64
(lp1119
g57
(g78
g59
NtRp1120
(dp1121
g62
(dp1122
g82
g83
ssg71
g1116
sg64
(lp1123
g377
asbag57
(g78
g59
NtRp1124
(dp1125
g62
(dp1126
g89
g90
ssg71
g1116
sg64
(lp1127
S':'
asbag57
(g78
g59
NtRp1128
(dp1129
g62
(dp1130
sg71
g1116
sg64
(lp1131
g57
(g58
g59
NtRp1132
(dp1133
g62
(dp1134
g70
I3
ssg71
g1128
sg64
(lp1135
S''
asbasbasbag57
(g73
g59
NtRp1136
(dp1137
g62
(dp1138
sg71
g1012
sg64
(lp1139
g57
(g78
g59
NtRp1140
(dp1141
g62
(dp1142
g82
g83
ssg71
g1136
sg64
(lp1143
g398
asbag57
(g78
g59
NtRp1144
(dp1145
g62
(dp1146
g89
g90
ssg71
g1136
sg64
(lp1147
S':'
asbag57
(g78
g59
NtRp1148
(dp1149
g62
(dp1150
sg71
g1136
sg64
(lp1151
g57
(g58
g59
NtRp1152
(dp1153
g62
(dp1154
g70
I3
ssg71
g1148
sg64
(lp1155
S''
asbasbasbag57
(g73
g59
NtRp1156
(dp1157
g62
(dp1158
sg71
g1012
sg64
(lp1159
g57
(g78
g59
NtRp1160
(dp1161
g62
(dp1162
g82
g83
ssg71
g1156
sg64
(lp1163
g419
asbag57
(g78
g59
NtRp1164
(dp1165
g62
(dp1166
g89
g90
ssg71
g1156
sg64
(lp1167
S':'
asbag57
(g78
g59
NtRp1168
(dp1169
g62
(dp1170
sg71
g1156
sg64
(lp1171
g57
(g58
g59
NtRp1172
(dp1173
g62
(dp1174
g70
I3
ssg71
g1168
sg64
(lp1175
S''
asbasbasbasbasbasbasbag57
(g73
g59
NtRp1176
(dp1177
g62
(dp1178
sg71
g234
sg64
(lp1179
g57
(g78
g59
NtRp1180
(dp1181
g62
(dp1182
g82
g83
ssg71
g1176
sg64
(lp1183
S'session_id_hwsgpib'
p1184
asbag57
(g78
g59
NtRp1185
(dp1186
g62
(dp1187
g89
g90
ssg71
g1176
sg64
(lp1188
S':'
asbag57
(g78
g59
NtRp1189
(dp1190
g62
(dp1191
sg71
g1176
sg64
(lp1192
g57
(g58
g59
NtRp1193
(dp1194
g62
(dp1195
g70
I4
ssg71
g1189
sg64
(lp1196
S'127.0.0.1-afa8ab56-4fed-4264-a529-a1ab8333277d'
p1197
ag57
(g66
g59
NtRp1198
(dp1199
g62
(dp1200
g70
I3
ssg71
Nsg64
(lp1201
g57
(g73
g59
NtRp1202
(dp1203
g62
(dp1204
sg71
g1198
sg64
(lp1205
g57
(g78
g59
NtRp1206
(dp1207
g62
(dp1208
g82
g83
ssg71
g1202
sg64
(lp1209
g272
asbag57
(g78
g59
NtRp1210
(dp1211
g62
(dp1212
g89
g90
ssg71
g1202
sg64
(lp1213
S':'
asbag57
(g78
g59
NtRp1214
(dp1215
g62
(dp1216
sg71
g1202
sg64
(lp1217
g57
(g58
g59
NtRp1218
(dp1219
g62
(dp1220
g70
I3
ssg71
g1214
sg64
(lp1221
S''
asbasbasbag57
(g73
g59
NtRp1222
(dp1223
g62
(dp1224
sg71
g1198
sg64
(lp1225
g57
(g78
g59
NtRp1226
(dp1227
g62
(dp1228
g82
g83
ssg71
g1222
sg64
(lp1229
g293
asbag57
(g78
g59
NtRp1230
(dp1231
g62
(dp1232
g89
g90
ssg71
g1222
sg64
(lp1233
S':'
asbag57
(g78
g59
NtRp1234
(dp1235
g62
(dp1236
sg71
g1222
sg64
(lp1237
g57
(g58
g59
NtRp1238
(dp1239
g62
(dp1240
g70
I3
ssg71
g1234
sg64
(lp1241
S''
asbasbasbag57
(g73
g59
NtRp1242
(dp1243
g62
(dp1244
sg71
g1198
sg64
(lp1245
g57
(g78
g59
NtRp1246
(dp1247
g62
(dp1248
g82
g83
ssg71
g1242
sg64
(lp1249
g314
asbag57
(g78
g59
NtRp1250
(dp1251
g62
(dp1252
g89
g90
ssg71
g1242
sg64
(lp1253
S':'
asbag57
(g78
g59
NtRp1254
(dp1255
g62
(dp1256
sg71
g1242
sg64
(lp1257
g57
(g58
g59
NtRp1258
(dp1259
g62
(dp1260
g70
I3
ssg71
g1254
sg64
(lp1261
S''
asbasbasbag57
(g73
g59
NtRp1262
(dp1263
g62
(dp1264
sg71
g1198
sg64
(lp1265
g57
(g78
g59
NtRp1266
(dp1267
g62
(dp1268
g82
g83
ssg71
g1262
sg64
(lp1269
g335
asbag57
(g78
g59
NtRp1270
(dp1271
g62
(dp1272
g89
g90
ssg71
g1262
sg64
(lp1273
S':'
asbag57
(g78
g59
NtRp1274
(dp1275
g62
(dp1276
sg71
g1262
sg64
(lp1277
g57
(g58
g59
NtRp1278
(dp1279
g62
(dp1280
g70
I3
ssg71
g1274
sg64
(lp1281
S''
asbasbasbag57
(g73
g59
NtRp1282
(dp1283
g62
(dp1284
sg71
g1198
sg64
(lp1285
g57
(g78
g59
NtRp1286
(dp1287
g62
(dp1288
g82
g83
ssg71
g1282
sg64
(lp1289
g356
asbag57
(g78
g59
NtRp1290
(dp1291
g62
(dp1292
g89
g90
ssg71
g1282
sg64
(lp1293
S':'
asbag57
(g78
g59
NtRp1294
(dp1295
g62
(dp1296
sg71
g1282
sg64
(lp1297
g57
(g58
g59
NtRp1298
(dp1299
g62
(dp1300
g70
I3
ssg71
g1294
sg64
(lp1301
S''
asbasbasbag57
(g73
g59
NtRp1302
(dp1303
g62
(dp1304
sg71
g1198
sg64
(lp1305
g57
(g78
g59
NtRp1306
(dp1307
g62
(dp1308
g82
g83
ssg71
g1302
sg64
(lp1309
g377
asbag57
(g78
g59
NtRp1310
(dp1311
g62
(dp1312
g89
g90
ssg71
g1302
sg64
(lp1313
S':'
asbag57
(g78
g59
NtRp1314
(dp1315
g62
(dp1316
sg71
g1302
sg64
(lp1317
g57
(g58
g59
NtRp1318
(dp1319
g62
(dp1320
g70
I3
ssg71
g1314
sg64
(lp1321
S''
asbasbasbag57
(g73
g59
NtRp1322
(dp1323
g62
(dp1324
sg71
g1198
sg64
(lp1325
g57
(g78
g59
NtRp1326
(dp1327
g62
(dp1328
g82
g83
ssg71
g1322
sg64
(lp1329
g398
asbag57
(g78
g59
NtRp1330
(dp1331
g62
(dp1332
g89
g90
ssg71
g1322
sg64
(lp1333
S':'
asbag57
(g78
g59
NtRp1334
(dp1335
g62
(dp1336
sg71
g1322
sg64
(lp1337
g57
(g58
g59
NtRp1338
(dp1339
g62
(dp1340
g70
I3
ssg71
g1334
sg64
(lp1341
S''
asbasbasbag57
(g73
g59
NtRp1342
(dp1343
g62
(dp1344
sg71
g1198
sg64
(lp1345
g57
(g78
g59
NtRp1346
(dp1347
g62
(dp1348
g82
g83
ssg71
g1342
sg64
(lp1349
g419
asbag57
(g78
g59
NtRp1350
(dp1351
g62
(dp1352
g89
g90
ssg71
g1342
sg64
(lp1353
S':'
asbag57
(g78
g59
NtRp1354
(dp1355
g62
(dp1356
sg71
g1342
sg64
(lp1357
g57
(g58
g59
NtRp1358
(dp1359
g62
(dp1360
g70
I3
ssg71
g1354
sg64
(lp1361
S''
asbasbasbasbasbasbasbag57
(g73
g59
NtRp1362
(dp1363
g62
(dp1364
sg71
g234
sg64
(lp1365
g57
(g78
g59
NtRp1366
(dp1367
g62
(dp1368
g82
g83
ssg71
g1362
sg64
(lp1369
S'session_id_welcome'
p1370
asbag57
(g78
g59
NtRp1371
(dp1372
g62
(dp1373
g89
g90
ssg71
g1362
sg64
(lp1374
S':'
asbag57
(g78
g59
NtRp1375
(dp1376
g62
(dp1377
sg71
g1362
sg64
(lp1378
g57
(g58
g59
NtRp1379
(dp1380
g62
(dp1381
g70
I4
ssg71
g1375
sg64
(lp1382
S'127.0.0.1-5bd988bf-ef0d-4236-8631-f2014dc6917d'
p1383
ag57
(g66
g59
NtRp1384
(dp1385
g62
(dp1386
g70
I3
ssg71
Nsg64
(lp1387
g57
(g73
g59
NtRp1388
(dp1389
g62
(dp1390
sg71
g1384
sg64
(lp1391
g57
(g78
g59
NtRp1392
(dp1393
g62
(dp1394
g82
g83
ssg71
g1388
sg64
(lp1395
g272
asbag57
(g78
g59
NtRp1396
(dp1397
g62
(dp1398
g89
g90
ssg71
g1388
sg64
(lp1399
S':'
asbag57
(g78
g59
NtRp1400
(dp1401
g62
(dp1402
sg71
g1388
sg64
(lp1403
g57
(g58
g59
NtRp1404
(dp1405
g62
(dp1406
g70
I3
ssg71
g1400
sg64
(lp1407
S''
asbasbasbag57
(g73
g59
NtRp1408
(dp1409
g62
(dp1410
sg71
g1384
sg64
(lp1411
g57
(g78
g59
NtRp1412
(dp1413
g62
(dp1414
g82
g83
ssg71
g1408
sg64
(lp1415
g293
asbag57
(g78
g59
NtRp1416
(dp1417
g62
(dp1418
g89
g90
ssg71
g1408
sg64
(lp1419
S':'
asbag57
(g78
g59
NtRp1420
(dp1421
g62
(dp1422
sg71
g1408
sg64
(lp1423
g57
(g58
g59
NtRp1424
(dp1425
g62
(dp1426
g70
I3
ssg71
g1420
sg64
(lp1427
S''
asbasbasbag57
(g73
g59
NtRp1428
(dp1429
g62
(dp1430
sg71
g1384
sg64
(lp1431
g57
(g78
g59
NtRp1432
(dp1433
g62
(dp1434
g82
g83
ssg71
g1428
sg64
(lp1435
g314
asbag57
(g78
g59
NtRp1436
(dp1437
g62
(dp1438
g89
g90
ssg71
g1428
sg64
(lp1439
S':'
asbag57
(g78
g59
NtRp1440
(dp1441
g62
(dp1442
sg71
g1428
sg64
(lp1443
g57
(g58
g59
NtRp1444
(dp1445
g62
(dp1446
g70
I3
ssg71
g1440
sg64
(lp1447
S''
asbasbasbag57
(g73
g59
NtRp1448
(dp1449
g62
(dp1450
sg71
g1384
sg64
(lp1451
g57
(g78
g59
NtRp1452
(dp1453
g62
(dp1454
g82
g83
ssg71
g1448
sg64
(lp1455
g335
asbag57
(g78
g59
NtRp1456
(dp1457
g62
(dp1458
g89
g90
ssg71
g1448
sg64
(lp1459
S':'
asbag57
(g78
g59
NtRp1460
(dp1461
g62
(dp1462
sg71
g1448
sg64
(lp1463
g57
(g58
g59
NtRp1464
(dp1465
g62
(dp1466
g70
I3
ssg71
g1460
sg64
(lp1467
S''
asbasbasbag57
(g73
g59
NtRp1468
(dp1469
g62
(dp1470
sg71
g1384
sg64
(lp1471
g57
(g78
g59
NtRp1472
(dp1473
g62
(dp1474
g82
g83
ssg71
g1468
sg64
(lp1475
g356
asbag57
(g78
g59
NtRp1476
(dp1477
g62
(dp1478
g89
g90
ssg71
g1468
sg64
(lp1479
S':'
asbag57
(g78
g59
NtRp1480
(dp1481
g62
(dp1482
sg71
g1468
sg64
(lp1483
g57
(g58
g59
NtRp1484
(dp1485
g62
(dp1486
g70
I3
ssg71
g1480
sg64
(lp1487
S''
asbasbasbag57
(g73
g59
NtRp1488
(dp1489
g62
(dp1490
sg71
g1384
sg64
(lp1491
g57
(g78
g59
NtRp1492
(dp1493
g62
(dp1494
g82
g83
ssg71
g1488
sg64
(lp1495
g377
asbag57
(g78
g59
NtRp1496
(dp1497
g62
(dp1498
g89
g90
ssg71
g1488
sg64
(lp1499
S':'
asbag57
(g78
g59
NtRp1500
(dp1501
g62
(dp1502
sg71
g1488
sg64
(lp1503
g57
(g58
g59
NtRp1504
(dp1505
g62
(dp1506
g70
I3
ssg71
g1500
sg64
(lp1507
S''
asbasbasbag57
(g73
g59
NtRp1508
(dp1509
g62
(dp1510
sg71
g1384
sg64
(lp1511
g57
(g78
g59
NtRp1512
(dp1513
g62
(dp1514
g82
g83
ssg71
g1508
sg64
(lp1515
g398
asbag57
(g78
g59
NtRp1516
(dp1517
g62
(dp1518
g89
g90
ssg71
g1508
sg64
(lp1519
S':'
asbag57
(g78
g59
NtRp1520
(dp1521
g62
(dp1522
sg71
g1508
sg64
(lp1523
g57
(g58
g59
NtRp1524
(dp1525
g62
(dp1526
g70
I3
ssg71
g1520
sg64
(lp1527
S''
asbasbasbag57
(g73
g59
NtRp1528
(dp1529
g62
(dp1530
sg71
g1384
sg64
(lp1531
g57
(g78
g59
NtRp1532
(dp1533
g62
(dp1534
g82
g83
ssg71
g1528
sg64
(lp1535
g419
asbag57
(g78
g59
NtRp1536
(dp1537
g62
(dp1538
g89
g90
ssg71
g1528
sg64
(lp1539
S':'
asbag57
(g78
g59
NtRp1540
(dp1541
g62
(dp1542
sg71
g1528
sg64
(lp1543
g57
(g58
g59
NtRp1544
(dp1545
g62
(dp1546
g70
I3
ssg71
g1540
sg64
(lp1547
S''
asbasbasbasbasbasbasbasbasbasbasbag57
(g73
g59
NtRp1548
(dp1549
g62
(dp1550
sg71
g67
sg64
(lp1551
g57
(g78
g59
NtRp1552
(dp1553
g62
(dp1554
g82
g83
ssg71
g1548
sg64
(lp1555
S'env'
p1556
asbag57
(g78
g59
NtRp1557
(dp1558
g62
(dp1559
g89
g90
ssg71
g1548
sg64
(lp1560
S':'
asbag57
(g78
g59
NtRp1561
(dp1562
g62
(dp1563
sg71
g1548
sg64
(lp1564
g57
(g58
g59
NtRp1565
(dp1566
g62
(dp1567
g70
I5
ssg71
g1561
sg64
(lp1568
g57
(g66
g59
NtRp1569
(dp1570
g62
(dp1571
g70
I4
ssg71
Nsg64
(lp1572
g57
(g73
g59
NtRp1573
(dp1574
g62
(dp1575
sg71
g1569
sg64
(lp1576
g57
(g78
g59
NtRp1577
(dp1578
g62
(dp1579
g82
g83
ssg71
g1573
sg64
(lp1580
S'app_folders'
p1581
asbag57
(g78
g59
NtRp1582
(dp1583
g62
(dp1584
g89
g90
ssg71
g1573
sg64
(lp1585
S':'
asbag57
(g78
g59
NtRp1586
(dp1587
g62
(dp1588
sg71
g1573
sg64
(lp1589
g57
(g58
g59
NtRp1590
(dp1591
g62
(dp1592
g70
I4
ssg71
g1586
sg64
(lp1593
S"set(['/web2pyTrunk/applications/GPIBHWS/', '/web2pyTrunk/applications/HWSGPIB/', '/web2pyTrunk/applications/welcome/', '/web2pyTrunk/applications/admin/', '/web2pyTrunk/applications/GPIBFinal/'])"
p1594
asbasbasbag57
(g73
g59
NtRp1595
(dp1596
g62
(dp1597
sg71
g1569
sg64
(lp1598
g57
(g78
g59
NtRp1599
(dp1600
g62
(dp1601
g82
g83
ssg71
g1595
sg64
(lp1602
S'applications_parent'
p1603
asbag57
(g78
g59
NtRp1604
(dp1605
g62
(dp1606
g89
g90
ssg71
g1595
sg64
(lp1607
S':'
asbag57
(g78
g59
NtRp1608
(dp1609
g62
(dp1610
sg71
g1595
sg64
(lp1611
g57
(g58
g59
NtRp1612
(dp1613
g62
(dp1614
g70
I4
ssg71
g1608
sg64
(lp1615
S'/web2pyTrunk'
p1616
asbasbasbag57
(g73
g59
NtRp1617
(dp1618
g62
(dp1619
sg71
g1569
sg64
(lp1620
g57
(g78
g59
NtRp1621
(dp1622
g62
(dp1623
g82
g83
ssg71
g1617
sg64
(lp1624
S'cmd_args'
p1625
asbag57
(g78
g59
NtRp1626
(dp1627
g62
(dp1628
g89
g90
ssg71
g1617
sg64
(lp1629
S':'
asbag57
(g78
g59
NtRp1630
(dp1631
g62
(dp1632
sg71
g1617
sg64
(lp1633
g57
(g58
g59
NtRp1634
(dp1635
g62
(dp1636
g70
I4
ssg71
g1630
sg64
(lp1637
g57
(g66
g59
NtRp1638
(dp1639
g62
(dp1640
g70
I3
ssg71
Nsg64
(lp1641
sbasbasbasbag57
(g73
g59
NtRp1642
(dp1643
g62
(dp1644
sg71
g1569
sg64
(lp1645
g57
(g78
g59
NtRp1646
(dp1647
g62
(dp1648
g82
g83
ssg71
g1642
sg64
(lp1649
S'cmd_options'
p1650
asbag57
(g78
g59
NtRp1651
(dp1652
g62
(dp1653
g89
g90
ssg71
g1642
sg64
(lp1654
S':'
asbag57
(g78
g59
NtRp1655
(dp1656
g62
(dp1657
sg71
g1642
sg64
(lp1658
g57
(g58
g59
NtRp1659
(dp1660
g62
(dp1661
g70
I4
ssg71
g1655
sg64
(lp1662
S"<Values at 0x18c4990: {'verbose': False, 'ip': '127.0.0.1', 'shutdown_timeout': 5, 'taskbar': False, 'nocron': False, 'pid_filename': 'httpserver.pid', 'maxthreads': None, 'softcron': False, 'server_name': 'frost.gravity.hws.edu', 'bpython': False, 'nogui': False, 'port': 8000, 'extcron': False, 'run_system_tests': False, 'test': None, 'folder': '/web2pyTrunk', 'config': '', 'import_models': False, 'winservice': '', 'shell': None, 'run': '', 'log_filename': 'httpserver.log', 'debuglevel': 30, 'args': [''], 'socket_timeout': 5, 'ssl_ca_certificate': None, 'scheduler': None, 'profiler_filename': None, 'ssl_private_key': '', 'password': '<ask>', 'request_queue_size': 5, 'ssl_certificate': '', 'cronjob': False, 'numthreads': None, 'quiet': False, 'interfaces': None, 'minthreads': None, 'timeout': 10, 'plain': False, 'nobanner': False}>"
p1663
asbasbasbag57
(g73
g59
NtRp1664
(dp1665
g62
(dp1666
sg71
g1569
sg64
(lp1667
g57
(g78
g59
NtRp1668
(dp1669
g62
(dp1670
g82
g83
ssg71
g1664
sg64
(lp1671
S'db_sessions'
p1672
asbag57
(g78
g59
NtRp1673
(dp1674
g62
(dp1675
g89
g90
ssg71
g1664
sg64
(lp1676
S':'
asbag57
(g78
g59
NtRp1677
(dp1678
g62
(dp1679
sg71
g1664
sg64
(lp1680
g57
(g58
g59
NtRp1681
(dp1682
g62
(dp1683
g70
I4
ssg71
g1677
sg64
(lp1684
S'set([])'
p1685
asbasbasbag57
(g73
g59
NtRp1686
(dp1687
g62
(dp1688
sg71
g1569
sg64
(lp1689
g57
(g78
g59
NtRp1690
(dp1691
g62
(dp1692
g82
g83
ssg71
g1686
sg64
(lp1693
S'debugging'
p1694
asbag57
(g78
g59
NtRp1695
(dp1696
g62
(dp1697
g89
g90
ssg71
g1686
sg64
(lp1698
S':'
asbag57
(g78
g59
NtRp1699
(dp1700
g62
(dp1701
sg71
g1686
sg64
(lp1702
g57
(g58
g59
NtRp1703
(dp1704
g62
(dp1705
g70
I4
ssg71
g1699
sg64
(lp1706
g100
asbasbasbag57
(g73
g59
NtRp1707
(dp1708
g62
(dp1709
sg71
g1569
sg64
(lp1710
g57
(g78
g59
NtRp1711
(dp1712
g62
(dp1713
g82
g83
ssg71
g1707
sg64
(lp1714
S'gluon_parent'
p1715
asbag57
(g78
g59
NtRp1716
(dp1717
g62
(dp1718
g89
g90
ssg71
g1707
sg64
(lp1719
S':'
asbag57
(g78
g59
NtRp1720
(dp1721
g62
(dp1722
sg71
g1707
sg64
(lp1723
g57
(g58
g59
NtRp1724
(dp1725
g62
(dp1726
g70
I4
ssg71
g1720
sg64
(lp1727
S'/web2pyTrunk'
p1728
asbasbasbag57
(g73
g59
NtRp1729
(dp1730
g62
(dp1731
sg71
g1569
sg64
(lp1732
g57
(g78
g59
NtRp1733
(dp1734
g62
(dp1735
g82
g83
ssg71
g1729
sg64
(lp1736
S'http_accept'
p1737
asbag57
(g78
g59
NtRp1738
(dp1739
g62
(dp1740
g89
g90
ssg71
g1729
sg64
(lp1741
S':'
asbag57
(g78
g59
NtRp1742
(dp1743
g62
(dp1744
sg71
g1729
sg64
(lp1745
g57
(g58
g59
NtRp1746
(dp1747
g62
(dp1748
g70
I4
ssg71
g1742
sg64
(lp1749
S'text/html,application/xhtml+xml,application/xml;q=0.9,*/*;q=0.8'
p1750
asbasbasbag57
(g73
g59
NtRp1751
(dp1752
g62
(dp1753
sg71
g1569
sg64
(lp1754
g57
(g78
g59
NtRp1755
(dp1756
g62
(dp1757
g82
g83
ssg71
g1751
sg64
(lp1758
S'http_accept_charset'
p1759
asbag57
(g78
g59
NtRp1760
(dp1761
g62
(dp1762
g89
g90
ssg71
g1751
sg64
(lp1763
S':'
asbag57
(g78
g59
NtRp1764
(dp1765
g62
(dp1766
sg71
g1751
sg64
(lp1767
g57
(g58
g59
NtRp1768
(dp1769
g62
(dp1770
g70
I4
ssg71
g1764
sg64
(lp1771
S'ISO-8859-1,utf-8;q=0.7,*;q=0.3'
p1772
asbasbasbag57
(g73
g59
NtRp1773
(dp1774
g62
(dp1775
sg71
g1569
sg64
(lp1776
g57
(g78
g59
NtRp1777
(dp1778
g62
(dp1779
g82
g83
ssg71
g1773
sg64
(lp1780
S'http_accept_encoding'
p1781
asbag57
(g78
g59
NtRp1782
(dp1783
g62
(dp1784
g89
g90
ssg71
g1773
sg64
(lp1785
S':'
asbag57
(g78
g59
NtRp1786
(dp1787
g62
(dp1788
sg71
g1773
sg64
(lp1789
g57
(g58
g59
NtRp1790
(dp1791
g62
(dp1792
g70
I4
ssg71
g1786
sg64
(lp1793
S'gzip,deflate,sdch'
p1794
asbasbasbag57
(g73
g59
NtRp1795
(dp1796
g62
(dp1797
sg71
g1569
sg64
(lp1798
g57
(g78
g59
NtRp1799
(dp1800
g62
(dp1801
g82
g83
ssg71
g1795
sg64
(lp1802
S'http_accept_language'
p1803
asbag57
(g78
g59
NtRp1804
(dp1805
g62
(dp1806
g89
g90
ssg71
g1795
sg64
(lp1807
S':'
asbag57
(g78
g59
NtRp1808
(dp1809
g62
(dp1810
sg71
g1795
sg64
(lp1811
g57
(g58
g59
NtRp1812
(dp1813
g62
(dp1814
g70
I4
ssg71
g1808
sg64
(lp1815
S'en-US,en;q=0.8'
p1816
asbasbasbag57
(g73
g59
NtRp1817
(dp1818
g62
(dp1819
sg71
g1569
sg64
(lp1820
g57
(g78
g59
NtRp1821
(dp1822
g62
(dp1823
g82
g83
ssg71
g1817
sg64
(lp1824
S'http_connection'
p1825
asbag57
(g78
g59
NtRp1826
(dp1827
g62
(dp1828
g89
g90
ssg71
g1817
sg64
(lp1829
S':'
asbag57
(g78
g59
NtRp1830
(dp1831
g62
(dp1832
sg71
g1817
sg64
(lp1833
g57
(g58
g59
NtRp1834
(dp1835
g62
(dp1836
g70
I4
ssg71
g1830
sg64
(lp1837
S'keep-alive'
p1838
asbasbasbag57
(g73
g59
NtRp1839
(dp1840
g62
(dp1841
sg71
g1569
sg64
(lp1842
g57
(g78
g59
NtRp1843
(dp1844
g62
(dp1845
g82
g83
ssg71
g1839
sg64
(lp1846
S'http_cookie'
p1847
asbag57
(g78
g59
NtRp1848
(dp1849
g62
(dp1850
g89
g90
ssg71
g1839
sg64
(lp1851
S':'
asbag57
(g78
g59
NtRp1852
(dp1853
g62
(dp1854
sg71
g1839
sg64
(lp1855
g57
(g58
g59
NtRp1856
(dp1857
g62
(dp1858
g70
I4
ssg71
g1852
sg64
(lp1859
S'session_id_gpibtrunk=127.0.0.1-33c70933-7db5-4e9b-ab7a-f4656c326e0a; session_id_gpib3562a=127.0.0.1-d49cba14-6f33-40cd-983c-34bd052e67de; session_id_welcome=127.0.0.1-5bd988bf-ef0d-4236-8631-f2014dc6917d; session_id_gpibfinal=127.0.0.1-b6082bee-e94c-4b95-a41a-f1f299c63111; session_id_hwsgpib=127.0.0.1-afa8ab56-4fed-4264-a529-a1ab8333277d; session_id_admin=127.0.0.1-aa4f76c9-9d67-46ca-a892-d9c6fd0665fe; session_id_gpibhws=127.0.0.1-6f11aa51-d759-4ec6-a0c2-b8d4140bb744'
p1860
asbasbasbag57
(g73
g59
NtRp1861
(dp1862
g62
(dp1863
sg71
g1569
sg64
(lp1864
g57
(g78
g59
NtRp1865
(dp1866
g62
(dp1867
g82
g83
ssg71
g1861
sg64
(lp1868
S'http_host'
p1869
asbag57
(g78
g59
NtRp1870
(dp1871
g62
(dp1872
g89
g90
ssg71
g1861
sg64
(lp1873
S':'
asbag57
(g78
g59
NtRp1874
(dp1875
g62
(dp1876
sg71
g1861
sg64
(lp1877
g57
(g58
g59
NtRp1878
(dp1879
g62
(dp1880
g70
I4
ssg71
g1874
sg64
(lp1881
S'127.0.0.1:8000'
p1882
asbasbasbag57
(g73
g59
NtRp1883
(dp1884
g62
(dp1885
sg71
g1569
sg64
(lp1886
g57
(g78
g59
NtRp1887
(dp1888
g62
(dp1889
g82
g83
ssg71
g1883
sg64
(lp1890
S'http_referer'
p1891
asbag57
(g78
g59
NtRp1892
(dp1893
g62
(dp1894
g89
g90
ssg71
g1883
sg64
(lp1895
S':'
asbag57
(g78
g59
NtRp1896
(dp1897
g62
(dp1898
sg71
g1883
sg64
(lp1899
g57
(g58
g59
NtRp1900
(dp1901
g62
(dp1902
g70
I4
ssg71
g1896
sg64
(lp1903
S'http://127.0.0.1:8000/admin/default/edit/GPIBHWS/controllers/default.py'
p1904
asbasbasbag57
(g73
g59
NtRp1905
(dp1906
g62
(dp1907
sg71
g1569
sg64
(lp1908
g57
(g78
g59
NtRp1909
(dp1910
g62
(dp1911
g82
g83
ssg71
g1905
sg64
(lp1912
S'http_user_agent'
p1913
asbag57
(g78
g59
NtRp1914
(dp1915
g62
(dp1916
g89
g90
ssg71
g1905
sg64
(lp1917
S':'
asbag57
(g78
g59
NtRp1918
(dp1919
g62
(dp1920
sg71
g1905
sg64
(lp1921
g57
(g58
g59
NtRp1922
(dp1923
g62
(dp1924
g70
I4
ssg71
g1918
sg64
(lp1925
S'Mozilla/5.0 (Macintosh; Intel Mac OS X 10_6_8) AppleWebKit/536.11 (KHTML, like Gecko) Chrome/20.0.1132.57 Safari/536.11'
p1926
asbasbasbag57
(g73
g59
NtRp1927
(dp1928
g62
(dp1929
sg71
g1569
sg64
(lp1930
g57
(g78
g59
NtRp1931
(dp1932
g62
(dp1933
g82
g83
ssg71
g1927
sg64
(lp1934
S'is_jython'
p1935
asbag57
(g78
g59
NtRp1936
(dp1937
g62
(dp1938
g89
g90
ssg71
g1927
sg64
(lp1939
S':'
asbag57
(g78
g59
NtRp1940
(dp1941
g62
(dp1942
sg71
g1927
sg64
(lp1943
g57
(g58
g59
NtRp1944
(dp1945
g62
(dp1946
g70
I4
ssg71
g1940
sg64
(lp1947
g100
asbasbasbag57
(g73
g59
NtRp1948
(dp1949
g62
(dp1950
sg71
g1569
sg64
(lp1951
g57
(g78
g59
NtRp1952
(dp1953
g62
(dp1954
g82
g83
ssg71
g1948
sg64
(lp1955
S'is_pypy'
p1956
asbag57
(g78
g59
NtRp1957
(dp1958
g62
(dp1959
g89
g90
ssg71
g1948
sg64
(lp1960
S':'
asbag57
(g78
g59
NtRp1961
(dp1962
g62
(dp1963
sg71
g1948
sg64
(lp1964
g57
(g58
g59
NtRp1965
(dp1966
g62
(dp1967
g70
I4
ssg71
g1961
sg64
(lp1968
g100
asbasbasbag57
(g73
g59
NtRp1969
(dp1970
g62
(dp1971
sg71
g1569
sg64
(lp1972
g57
(g78
g59
NtRp1973
(dp1974
g62
(dp1975
g82
g83
ssg71
g1969
sg64
(lp1976
S'path_info'
p1977
asbag57
(g78
g59
NtRp1978
(dp1979
g62
(dp1980
g89
g90
ssg71
g1969
sg64
(lp1981
S':'
asbag57
(g78
g59
NtRp1982
(dp1983
g62
(dp1984
sg71
g1969
sg64
(lp1985
g57
(g58
g59
NtRp1986
(dp1987
g62
(dp1988
g70
I4
ssg71
g1982
sg64
(lp1989
S'/GPIBHWS/default/calc_sweep_time'
p1990
asbasbasbag57
(g73
g59
NtRp1991
(dp1992
g62
(dp1993
sg71
g1569
sg64
(lp1994
g57
(g78
g59
NtRp1995
(dp1996
g62
(dp1997
g82
g83
ssg71
g1991
sg64
(lp1998
S'query_string'
p1999
asbag57
(g78
g59
NtRp2000
(dp2001
g62
(dp2002
g89
g90
ssg71
g1991
sg64
(lp2003
S':'
asbag57
(g78
g59
NtRp2004
(dp2005
g62
(dp2006
sg71
g1991
sg64
(lp2007
g57
(g58
g59
NtRp2008
(dp2009
g62
(dp2010
g70
I4
ssg71
g2004
sg64
(lp2011
S''
asbasbasbag57
(g73
g59
NtRp2012
(dp2013
g62
(dp2014
sg71
g1569
sg64
(lp2015
g57
(g78
g59
NtRp2016
(dp2017
g62
(dp2018
g82
g83
ssg71
g2012
sg64
(lp2019
S'remote_addr'
p2020
asbag57
(g78
g59
NtRp2021
(dp2022
g62
(dp2023
g89
g90
ssg71
g2012
sg64
(lp2024
S':'
asbag57
(g78
g59
NtRp2025
(dp2026
g62
(dp2027
sg71
g2012
sg64
(lp2028
g57
(g58
g59
NtRp2029
(dp2030
g62
(dp2031
g70
I4
ssg71
g2025
sg64
(lp2032
g190
asbasbasbag57
(g73
g59
NtRp2033
(dp2034
g62
(dp2035
sg71
g1569
sg64
(lp2036
g57
(g78
g59
NtRp2037
(dp2038
g62
(dp2039
g82
g83
ssg71
g2033
sg64
(lp2040
S'remote_port'
p2041
asbag57
(g78
g59
NtRp2042
(dp2043
g62
(dp2044
g89
g90
ssg71
g2033
sg64
(lp2045
S':'
asbag57
(g78
g59
NtRp2046
(dp2047
g62
(dp2048
sg71
g2033
sg64
(lp2049
g57
(g58
g59
NtRp2050
(dp2051
g62
(dp2052
g70
I4
ssg71
g2046
sg64
(lp2053
S'62287'
p2054
asbasbasbag57
(g73
g59
NtRp2055
(dp2056
g62
(dp2057
sg71
g1569
sg64
(lp2058
g57
(g78
g59
NtRp2059
(dp2060
g62
(dp2061
g82
g83
ssg71
g2055
sg64
(lp2062
S'request_method'
p2063
asbag57
(g78
g59
NtRp2064
(dp2065
g62
(dp2066
g89
g90
ssg71
g2055
sg64
(lp2067
S':'
asbag57
(g78
g59
NtRp2068
(dp2069
g62
(dp2070
sg71
g2055
sg64
(lp2071
g57
(g58
g59
NtRp2072
(dp2073
g62
(dp2074
g70
I4
ssg71
g2068
sg64
(lp2075
S'GET'
p2076
asbasbasbag57
(g73
g59
NtRp2077
(dp2078
g62
(dp2079
sg71
g1569
sg64
(lp2080
g57
(g78
g59
NtRp2081
(dp2082
g62
(dp2083
g82
g83
ssg71
g2077
sg64
(lp2084
S'script_name'
p2085
asbag57
(g78
g59
NtRp2086
(dp2087
g62
(dp2088
g89
g90
ssg71
g2077
sg64
(lp2089
S':'
asbag57
(g78
g59
NtRp2090
(dp2091
g62
(dp2092
sg71
g2077
sg64
(lp2093
g57
(g58
g59
NtRp2094
(dp2095
g62
(dp2096
g70
I4
ssg71
g2090
sg64
(lp2097
S''
asbasbasbag57
(g73
g59
NtRp2098
(dp2099
g62
(dp2100
sg71
g1569
sg64
(lp2101
g57
(g78
g59
NtRp2102
(dp2103
g62
(dp2104
g82
g83
ssg71
g2098
sg64
(lp2105
S'server_name'
p2106
asbag57
(g78
g59
NtRp2107
(dp2108
g62
(dp2109
g89
g90
ssg71
g2098
sg64
(lp2110
S':'
asbag57
(g78
g59
NtRp2111
(dp2112
g62
(dp2113
sg71
g2098
sg64
(lp2114
g57
(g58
g59
NtRp2115
(dp2116
g62
(dp2117
g70
I4
ssg71
g2111
sg64
(lp2118
S'frost.gravity.hws.edu'
p2119
asbasbasbag57
(g73
g59
NtRp2120
(dp2121
g62
(dp2122
sg71
g1569
sg64
(lp2123
g57
(g78
g59
NtRp2124
(dp2125
g62
(dp2126
g82
g83
ssg71
g2120
sg64
(lp2127
S'server_port'
p2128
asbag57
(g78
g59
NtRp2129
(dp2130
g62
(dp2131
g89
g90
ssg71
g2120
sg64
(lp2132
S':'
asbag57
(g78
g59
NtRp2133
(dp2134
g62
(dp2135
sg71
g2120
sg64
(lp2136
g57
(g58
g59
NtRp2137
(dp2138
g62
(dp2139
g70
I4
ssg71
g2133
sg64
(lp2140
S'8000'
p2141
asbasbasbag57
(g73
g59
NtRp2142
(dp2143
g62
(dp2144
sg71
g1569
sg64
(lp2145
g57
(g78
g59
NtRp2146
(dp2147
g62
(dp2148
g82
g83
ssg71
g2142
sg64
(lp2149
S'server_protocol'
p2150
asbag57
(g78
g59
NtRp2151
(dp2152
g62
(dp2153
g89
g90
ssg71
g2142
sg64
(lp2154
S':'
asbag57
(g78
g59
NtRp2155
(dp2156
g62
(dp2157
sg71
g2142
sg64
(lp2158
g57
(g58
g59
NtRp2159
(dp2160
g62
(dp2161
g70
I4
ssg71
g2155
sg64
(lp2162
S'HTTP/1.1'
p2163
asbasbasbag57
(g73
g59
NtRp2164
(dp2165
g62
(dp2166
sg71
g1569
sg64
(lp2167
g57
(g78
g59
NtRp2168
(dp2169
g62
(dp2170
g82
g83
ssg71
g2164
sg64
(lp2171
S'server_software'
p2172
asbag57
(g78
g59
NtRp2173
(dp2174
g62
(dp2175
g89
g90
ssg71
g2164
sg64
(lp2176
S':'
asbag57
(g78
g59
NtRp2177
(dp2178
g62
(dp2179
sg71
g2164
sg64
(lp2180
g57
(g58
g59
NtRp2181
(dp2182
g62
(dp2183
g70
I4
ssg71
g2177
sg64
(lp2184
S'Rocket 1.2.4'
p2185
asbasbasbag57
(g73
g59
NtRp2186
(dp2187
g62
(dp2188
sg71
g1569
sg64
(lp2189
g57
(g78
g59
NtRp2190
(dp2191
g62
(dp2192
g82
g83
ssg71
g2186
sg64
(lp2193
S'web2py_crontype'
p2194
asbag57
(g78
g59
NtRp2195
(dp2196
g62
(dp2197
g89
g90
ssg71
g2186
sg64
(lp2198
S':'
asbag57
(g78
g59
NtRp2199
(dp2200
g62
(dp2201
sg71
g2186
sg64
(lp2202
g57
(g58
g59
NtRp2203
(dp2204
g62
(dp2205
g70
I4
ssg71
g2199
sg64
(lp2206
S'hard'
p2207
asbasbasbag57
(g73
g59
NtRp2208
(dp2209
g62
(dp2210
sg71
g1569
sg64
(lp2211
g57
(g78
g59
NtRp2212
(dp2213
g62
(dp2214
g82
g83
ssg71
g2208
sg64
(lp2215
S'web2py_path'
p2216
asbag57
(g78
g59
NtRp2217
(dp2218
g62
(dp2219
g89
g90
ssg71
g2208
sg64
(lp2220
S':'
asbag57
(g78
g59
NtRp2221
(dp2222
g62
(dp2223
sg71
g2208
sg64
(lp2224
g57
(g58
g59
NtRp2225
(dp2226
g62
(dp2227
g70
I4
ssg71
g2221
sg64
(lp2228
g1616
asbasbasbag57
(g73
g59
NtRp2229
(dp2230
g62
(dp2231
sg71
g1569
sg64
(lp2232
g57
(g78
g59
NtRp2233
(dp2234
g62
(dp2235
g82
g83
ssg71
g2229
sg64
(lp2236
S'web2py_version'
p2237
asbag57
(g78
g59
NtRp2238
(dp2239
g62
(dp2240
g89
g90
ssg71
g2229
sg64
(lp2241
S':'
asbag57
(g78
g59
NtRp2242
(dp2243
g62
(dp2244
sg71
g2229
sg64
(lp2245
g57
(g58
g59
NtRp2246
(dp2247
g62
(dp2248
g70
I4
ssg71
g2242
sg64
(lp2249
g57
(g66
g59
NtRp2250
(dp2251
g62
(dp2252
g70
I3
ssg71
Nsg64
(lp2253
g57
(g73
g59
NtRp2254
(dp2255
g62
(dp2256
sg71
g2250
sg64
(lp2257
g57
(g78
g59
NtRp2258
(dp2259
g62
(dp2260
sg71
g2254
sg64
(lp2261
g57
(g58
g59
NtRp2262
(dp2263
g62
(dp2264
g70
I3
ssg71
g2258
sg64
(lp2265
S'2'
asbasbasbag57
(g73
g59
NtRp2266
(dp2267
g62
(dp2268
sg71
g2250
sg64
(lp2269
g57
(g78
g59
NtRp2270
(dp2271
g62
(dp2272
sg71
g2266
sg64
(lp2273
g57
(g58
g59
NtRp2274
(dp2275
g62
(dp2276
g70
I3
ssg71
g2270
sg64
(lp2277
S'0'
asbasbasbag57
(g73
g59
NtRp2278
(dp2279
g62
(dp2280
sg71
g2250
sg64
(lp2281
g57
(g78
g59
NtRp2282
(dp2283
g62
(dp2284
sg71
g2278
sg64
(lp2285
g57
(g58
g59
NtRp2286
(dp2287
g62
(dp2288
g70
I3
ssg71
g2282
sg64
(lp2289
S'0'
asbasbasbag57
(g73
g59
NtRp2290
(dp2291
g62
(dp2292
sg71
g2250
sg64
(lp2293
g57
(g78
g59
NtRp2294
(dp2295
g62
(dp2296
sg71
g2290
sg64
(lp2297
g57
(g58
g59
NtRp2298
(dp2299
g62
(dp2300
g70
I3
ssg71
g2294
sg64
(lp2301
S'datetime.datetime(2012, 7, 11, 9, 17, 27)'
p2302
asbasbasbag57
(g73
g59
NtRp2303
(dp2304
g62
(dp2305
sg71
g2250
sg64
(lp2306
g57
(g78
g59
NtRp2307
(dp2308
g62
(dp2309
sg71
g2303
sg64
(lp2310
g57
(g58
g59
NtRp2311
(dp2312
g62
(dp2313
g70
I3
ssg71
g2307
sg64
(lp2314
S'dev'
p2315
asbasbasbasbasbasbasbag57
(g73
g59
NtRp2316
(dp2317
g62
(dp2318
sg71
g1569
sg64
(lp2319
g57
(g78
g59
NtRp2320
(dp2321
g62
(dp2322
g82
g83
ssg71
g2316
sg64
(lp2323
S'wsgi_errors'
p2324
asbag57
(g78
g59
NtRp2325
(dp2326
g62
(dp2327
g89
g90
ssg71
g2316
sg64
(lp2328
S':'
asbag57
(g78
g59
NtRp2329
(dp2330
g62
(dp2331
sg71
g2316
sg64
(lp2332
g57
(g58
g59
NtRp2333
(dp2334
g62
(dp2335
g70
I4
ssg71
g2329
sg64
(lp2336
S"<open file '<stderr>', mode 'w' at 0x3410d0>"
p2337
asbasbasbag57
(g73
g59
NtRp2338
(dp2339
g62
(dp2340
sg71
g1569
sg64
(lp2341
g57
(g78
g59
NtRp2342
(dp2343
g62
(dp2344
g82
g83
ssg71
g2338
sg64
(lp2345
S'wsgi_file_wrapper'
p2346
asbag57
(g78
g59
NtRp2347
(dp2348
g62
(dp2349
g89
g90
ssg71
g2338
sg64
(lp2350
S':'
asbag57
(g78
g59
NtRp2351
(dp2352
g62
(dp2353
sg71
g2338
sg64
(lp2354
g57
(g58
g59
NtRp2355
(dp2356
g62
(dp2357
g70
I4
ssg71
g2351
sg64
(lp2358
S'<class wsgiref.util.FileWrapper at 0x18934b0>'
p2359
asbasbasbag57
(g73
g59
NtRp2360
(dp2361
g62
(dp2362
sg71
g1569
sg64
(lp2363
g57
(g78
g59
NtRp2364
(dp2365
g62
(dp2366
g82
g83
ssg71
g2360
sg64
(lp2367
S'wsgi_input'
p2368
asbag57
(g78
g59
NtRp2369
(dp2370
g62
(dp2371
g89
g90
ssg71
g2360
sg64
(lp2372
S':'
asbag57
(g78
g59
NtRp2373
(dp2374
g62
(dp2375
sg71
g2360
sg64
(lp2376
g57
(g58
g59
NtRp2377
(dp2378
g62
(dp2379
g70
I4
ssg71
g2373
sg64
(lp2380
S'<socket._fileobject object at 0x1b63d0b0>'
p2381
asbasbasbag57
(g73
g59
NtRp2382
(dp2383
g62
(dp2384
sg71
g1569
sg64
(lp2385
g57
(g78
g59
NtRp2386
(dp2387
g62
(dp2388
g82
g83
ssg71
g2382
sg64
(lp2389
S'wsgi_multiprocess'
p2390
asbag57
(g78
g59
NtRp2391
(dp2392
g62
(dp2393
g89
g90
ssg71
g2382
sg64
(lp2394
S':'
asbag57
(g78
g59
NtRp2395
(dp2396
g62
(dp2397
sg71
g2382
sg64
(lp2398
g57
(g58
g59
NtRp2399
(dp2400
g62
(dp2401
g70
I4
ssg71
g2395
sg64
(lp2402
g100
asbasbasbag57
(g73
g59
NtRp2403
(dp2404
g62
(dp2405
sg71
g1569
sg64
(lp2406
g57
(g78
g59
NtRp2407
(dp2408
g62
(dp2409
g82
g83
ssg71
g2403
sg64
(lp2410
S'wsgi_multithread'
p2411
asbag57
(g78
g59
NtRp2412
(dp2413
g62
(dp2414
g89
g90
ssg71
g2403
sg64
(lp2415
S':'
asbag57
(g78
g59
NtRp2416
(dp2417
g62
(dp2418
sg71
g2403
sg64
(lp2419
g57
(g58
g59
NtRp2420
(dp2421
g62
(dp2422
g70
I4
ssg71
g2416
sg64
(lp2423
S'True'
p2424
asbasbasbag57
(g73
g59
NtRp2425
(dp2426
g62
(dp2427
sg71
g1569
sg64
(lp2428
g57
(g78
g59
NtRp2429
(dp2430
g62
(dp2431
g82
g83
ssg71
g2425
sg64
(lp2432
S'wsgi_run_once'
p2433
asbag57
(g78
g59
NtRp2434
(dp2435
g62
(dp2436
g89
g90
ssg71
g2425
sg64
(lp2437
S':'
asbag57
(g78
g59
NtRp2438
(dp2439
g62
(dp2440
sg71
g2425
sg64
(lp2441
g57
(g58
g59
NtRp2442
(dp2443
g62
(dp2444
g70
I4
ssg71
g2438
sg64
(lp2445
g100
asbasbasbag57
(g73
g59
NtRp2446
(dp2447
g62
(dp2448
sg71
g1569
sg64
(lp2449
g57
(g78
g59
NtRp2450
(dp2451
g62
(dp2452
g82
g83
ssg71
g2446
sg64
(lp2453
S'wsgi_url_scheme'
p2454
asbag57
(g78
g59
NtRp2455
(dp2456
g62
(dp2457
g89
g90
ssg71
g2446
sg64
(lp2458
S':'
asbag57
(g78
g59
NtRp2459
(dp2460
g62
(dp2461
sg71
g2446
sg64
(lp2462
g57
(g58
g59
NtRp2463
(dp2464
g62
(dp2465
g70
I4
ssg71
g2459
sg64
(lp2466
S'http'
p2467
asbasbasbag57
(g73
g59
NtRp2468
(dp2469
g62
(dp2470
sg71
g1569
sg64
(lp2471
g57
(g78
g59
NtRp2472
(dp2473
g62
(dp2474
g82
g83
ssg71
g2468
sg64
(lp2475
S'wsgi_version'
p2476
asbag57
(g78
g59
NtRp2477
(dp2478
g62
(dp2479
g89
g90
ssg71
g2468
sg64
(lp2480
S':'
asbag57
(g78
g59
NtRp2481
(dp2482
g62
(dp2483
sg71
g2468
sg64
(lp2484
g57
(g58
g59
NtRp2485
(dp2486
g62
(dp2487
g70
I4
ssg71
g2481
sg64
(lp2488
g57
(g66
g59
NtRp2489
(dp2490
g62
(dp2491
g70
I3
ssg71
Nsg64
(lp2492
g57
(g73
g59
NtRp2493
(dp2494
g62
(dp2495
sg71
g2489
sg64
(lp2496
g57
(g78
g59
NtRp2497
(dp2498
g62
(dp2499
sg71
g2493
sg64
(lp2500
g57
(g58
g59
NtRp2501
(dp2502
g62
(dp2503
g70
I3
ssg71
g2497
sg64
(lp2504
S'1'
asbasbasbag57
(g73
g59
NtRp2505
(dp2506
g62
(dp2507
sg71
g2489
sg64
(lp2508
g57
(g78
g59
NtRp2509
(dp2510
g62
(dp2511
sg71
g2505
sg64
(lp2512
g57
(g58
g59
NtRp2513
(dp2514
g62
(dp2515
g70
I3
ssg71
g2509
sg64
(lp2516
S'0'
asbasbasbasbasbasbasbasbasbasbasbag57
(g73
g59
NtRp2517
(dp2518
g62
(dp2519
sg71
g67
sg64
(lp2520
g57
(g78
g59
NtRp2521
(dp2522
g62
(dp2523
g82
g83
ssg71
g2517
sg64
(lp2524
S'extension'
p2525
asbag57
(g78
g59
NtRp2526
(dp2527
g62
(dp2528
g89
g90
ssg71
g2517
sg64
(lp2529
S':'
asbag57
(g78
g59
NtRp2530
(dp2531
g62
(dp2532
sg71
g2517
sg64
(lp2533
g57
(g58
g59
NtRp2534
(dp2535
g62
(dp2536
g70
I5
ssg71
g2530
sg64
(lp2537
S'html'
p2538
asbasbasbag57
(g73
g59
NtRp2539
(dp2540
g62
(dp2541
sg71
g67
sg64
(lp2542
g57
(g78
g59
NtRp2543
(dp2544
g62
(dp2545
g82
g83
ssg71
g2539
sg64
(lp2546
S'folder'
p2547
asbag57
(g78
g59
NtRp2548
(dp2549
g62
(dp2550
g89
g90
ssg71
g2539
sg64
(lp2551
S':'
asbag57
(g78
g59
NtRp2552
(dp2553
g62
(dp2554
sg71
g2539
sg64
(lp2555
g57
(g58
g59
NtRp2556
(dp2557
g62
(dp2558
g70
I5
ssg71
g2552
sg64
(lp2559
S'/web2pyTrunk/applications/GPIBHWS/'
p2560
asbasbasbag57
(g73
g59
NtRp2561
(dp2562
g62
(dp2563
sg71
g67
sg64
(lp2564
g57
(g78
g59
NtRp2565
(dp2566
g62
(dp2567
g82
g83
ssg71
g2561
sg64
(lp2568
S'function'
p2569
asbag57
(g78
g59
NtRp2570
(dp2571
g62
(dp2572
g89
g90
ssg71
g2561
sg64
(lp2573
S':'
asbag57
(g78
g59
NtRp2574
(dp2575
g62
(dp2576
sg71
g2561
sg64
(lp2577
g57
(g58
g59
NtRp2578
(dp2579
g62
(dp2580
g70
I5
ssg71
g2574
sg64
(lp2581
S'calc_sweep_time'
p2582
asbasbasbag57
(g73
g59
NtRp2583
(dp2584
g62
(dp2585
sg71
g67
sg64
(lp2586
g57
(g78
g59
NtRp2587
(dp2588
g62
(dp2589
g82
g83
ssg71
g2583
sg64
(lp2590
S'get_vars'
p2591
asbag57
(g78
g59
NtRp2592
(dp2593
g62
(dp2594
g89
g90
ssg71
g2583
sg64
(lp2595
S':'
asbag57
(g78
g59
NtRp2596
(dp2597
g62
(dp2598
sg71
g2583
sg64
(lp2599
g57
(g58
g59
NtRp2600
(dp2601
g62
(dp2602
g70
I5
ssg71
g2596
sg64
(lp2603
g57
(g66
g59
NtRp2604
(dp2605
g62
(dp2606
g70
I4
ssg71
Nsg64
(lp2607
sbasbasbasbag57
(g73
g59
NtRp2608
(dp2609
g62
(dp2610
sg71
g67
sg64
(lp2611
g57
(g78
g59
NtRp2612
(dp2613
g62
(dp2614
g82
g83
ssg71
g2608
sg64
(lp2615
S'global_settings'
p2616
asbag57
(g78
g59
NtRp2617
(dp2618
g62
(dp2619
g89
g90
ssg71
g2608
sg64
(lp2620
S':'
asbag57
(g78
g59
NtRp2621
(dp2622
g62
(dp2623
sg71
g2608
sg64
(lp2624
g57
(g58
g59
NtRp2625
(dp2626
g62
(dp2627
g70
I5
ssg71
g2621
sg64
(lp2628
g57
(g66
g59
NtRp2629
(dp2630
g62
(dp2631
g70
I4
ssg71
Nsg64
(lp2632
g57
(g73
g59
NtRp2633
(dp2634
g62
(dp2635
sg71
g2629
sg64
(lp2636
g57
(g78
g59
NtRp2637
(dp2638
g62
(dp2639
g82
g83
ssg71
g2633
sg64
(lp2640
g1581
asbag57
(g78
g59
NtRp2641
(dp2642
g62
(dp2643
g89
g90
ssg71
g2633
sg64
(lp2644
S':'
asbag57
(g78
g59
NtRp2645
(dp2646
g62
(dp2647
sg71
g2633
sg64
(lp2648
g57
(g58
g59
NtRp2649
(dp2650
g62
(dp2651
g70
I4
ssg71
g2645
sg64
(lp2652
S"set(['/web2pyTrunk/applications/GPIBHWS/', '/web2pyTrunk/applications/HWSGPIB/', '/web2pyTrunk/applications/welcome/', '/web2pyTrunk/applications/admin/', '/web2pyTrunk/applications/GPIBFinal/'])"
p2653
asbasbasbag57
(g73
g59
NtRp2654
(dp2655
g62
(dp2656
sg71
g2629
sg64
(lp2657
g57
(g78
g59
NtRp2658
(dp2659
g62
(dp2660
g82
g83
ssg71
g2654
sg64
(lp2661
g1603
asbag57
(g78
g59
NtRp2662
(dp2663
g62
(dp2664
g89
g90
ssg71
g2654
sg64
(lp2665
S':'
asbag57
(g78
g59
NtRp2666
(dp2667
g62
(dp2668
sg71
g2654
sg64
(lp2669
g57
(g58
g59
NtRp2670
(dp2671
g62
(dp2672
g70
I4
ssg71
g2666
sg64
(lp2673
g1616
asbasbasbag57
(g73
g59
NtRp2674
(dp2675
g62
(dp2676
sg71
g2629
sg64
(lp2677
g57
(g78
g59
NtRp2678
(dp2679
g62
(dp2680
g82
g83
ssg71
g2674
sg64
(lp2681
g1625
asbag57
(g78
g59
NtRp2682
(dp2683
g62
(dp2684
g89
g90
ssg71
g2674
sg64
(lp2685
S':'
asbag57
(g78
g59
NtRp2686
(dp2687
g62
(dp2688
sg71
g2674
sg64
(lp2689
g57
(g58
g59
NtRp2690
(dp2691
g62
(dp2692
g70
I4
ssg71
g2686
sg64
(lp2693
g57
(g66
g59
NtRp2694
(dp2695
g62
(dp2696
g70
I3
ssg71
Nsg64
(lp2697
sbasbasbasbag57
(g73
g59
NtRp2698
(dp2699
g62
(dp2700
sg71
g2629
sg64
(lp2701
g57
(g78
g59
NtRp2702
(dp2703
g62
(dp2704
g82
g83
ssg71
g2698
sg64
(lp2705
g1650
asbag57
(g78
g59
NtRp2706
(dp2707
g62
(dp2708
g89
g90
ssg71
g2698
sg64
(lp2709
S':'
asbag57
(g78
g59
NtRp2710
(dp2711
g62
(dp2712
sg71
g2698
sg64
(lp2713
g57
(g58
g59
NtRp2714
(dp2715
g62
(dp2716
g70
I4
ssg71
g2710
sg64
(lp2717
S"<Values at 0x18c4990: {'verbose': False, 'ip': '127.0.0.1', 'shutdown_timeout': 5, 'taskbar': False, 'nocron': False, 'pid_filename': 'httpserver.pid', 'maxthreads': None, 'softcron': False, 'server_name': 'frost.gravity.hws.edu', 'bpython': False, 'nogui': False, 'port': 8000, 'extcron': False, 'run_system_tests': False, 'test': None, 'folder': '/web2pyTrunk', 'config': '', 'import_models': False, 'winservice': '', 'shell': None, 'run': '', 'log_filename': 'httpserver.log', 'debuglevel': 30, 'args': [''], 'socket_timeout': 5, 'ssl_ca_certificate': None, 'scheduler': None, 'profiler_filename': None, 'ssl_private_key': '', 'password': '<ask>', 'request_queue_size': 5, 'ssl_certificate': '', 'cronjob': False, 'numthreads': None, 'quiet': False, 'interfaces': None, 'minthreads': None, 'timeout': 10, 'plain': False, 'nobanner': False}>"
p2718
asbasbasbag57
(g73
g59
NtRp2719
(dp2720
g62
(dp2721
sg71
g2629
sg64
(lp2722
g57
(g78
g59
NtRp2723
(dp2724
g62
(dp2725
g82
g83
ssg71
g2719
sg64
(lp2726
g1672
asbag57
(g78
g59
NtRp2727
(dp2728
g62
(dp2729
g89
g90
ssg71
g2719
sg64
(lp2730
S':'
asbag57
(g78
g59
NtRp2731
(dp2732
g62
(dp2733
sg71
g2719
sg64
(lp2734
g57
(g58
g59
NtRp2735
(dp2736
g62
(dp2737
g70
I4
ssg71
g2731
sg64
(lp2738
S'set([])'
p2739
asbasbasbag57
(g73
g59
NtRp2740
(dp2741
g62
(dp2742
sg71
g2629
sg64
(lp2743
g57
(g78
g59
NtRp2744
(dp2745
g62
(dp2746
g82
g83
ssg71
g2740
sg64
(lp2747
g1694
asbag57
(g78
g59
NtRp2748
(dp2749
g62
(dp2750
g89
g90
ssg71
g2740
sg64
(lp2751
S':'
asbag57
(g78
g59
NtRp2752
(dp2753
g62
(dp2754
sg71
g2740
sg64
(lp2755
g57
(g58
g59
NtRp2756
(dp2757
g62
(dp2758
g70
I4
ssg71
g2752
sg64
(lp2759
g100
asbasbasbag57
(g73
g59
NtRp2760
(dp2761
g62
(dp2762
sg71
g2629
sg64
(lp2763
g57
(g78
g59
NtRp2764
(dp2765
g62
(dp2766
g82
g83
ssg71
g2760
sg64
(lp2767
g1715
asbag57
(g78
g59
NtRp2768
(dp2769
g62
(dp2770
g89
g90
ssg71
g2760
sg64
(lp2771
S':'
asbag57
(g78
g59
NtRp2772
(dp2773
g62
(dp2774
sg71
g2760
sg64
(lp2775
g57
(g58
g59
NtRp2776
(dp2777
g62
(dp2778
g70
I4
ssg71
g2772
sg64
(lp2779
g1728
asbasbasbag57
(g73
g59
NtRp2780
(dp2781
g62
(dp2782
sg71
g2629
sg64
(lp2783
g57
(g78
g59
NtRp2784
(dp2785
g62
(dp2786
g82
g83
ssg71
g2780
sg64
(lp2787
g1935
asbag57
(g78
g59
NtRp2788
(dp2789
g62
(dp2790
g89
g90
ssg71
g2780
sg64
(lp2791
S':'
asbag57
(g78
g59
NtRp2792
(dp2793
g62
(dp2794
sg71
g2780
sg64
(lp2795
g57
(g58
g59
NtRp2796
(dp2797
g62
(dp2798
g70
I4
ssg71
g2792
sg64
(lp2799
g100
asbasbasbag57
(g73
g59
NtRp2800
(dp2801
g62
(dp2802
sg71
g2629
sg64
(lp2803
g57
(g78
g59
NtRp2804
(dp2805
g62
(dp2806
g82
g83
ssg71
g2800
sg64
(lp2807
g1956
asbag57
(g78
g59
NtRp2808
(dp2809
g62
(dp2810
g89
g90
ssg71
g2800
sg64
(lp2811
S':'
asbag57
(g78
g59
NtRp2812
(dp2813
g62
(dp2814
sg71
g2800
sg64
(lp2815
g57
(g58
g59
NtRp2816
(dp2817
g62
(dp2818
g70
I4
ssg71
g2812
sg64
(lp2819
g100
asbasbasbag57
(g73
g59
NtRp2820
(dp2821
g62
(dp2822
sg71
g2629
sg64
(lp2823
g57
(g78
g59
NtRp2824
(dp2825
g62
(dp2826
g82
g83
ssg71
g2820
sg64
(lp2827
g2194
asbag57
(g78
g59
NtRp2828
(dp2829
g62
(dp2830
g89
g90
ssg71
g2820
sg64
(lp2831
S':'
asbag57
(g78
g59
NtRp2832
(dp2833
g62
(dp2834
sg71
g2820
sg64
(lp2835
g57
(g58
g59
NtRp2836
(dp2837
g62
(dp2838
g70
I4
ssg71
g2832
sg64
(lp2839
g2207
asbasbasbag57
(g73
g59
NtRp2840
(dp2841
g62
(dp2842
sg71
g2629
sg64
(lp2843
g57
(g78
g59
NtRp2844
(dp2845
g62
(dp2846
g82
g83
ssg71
g2840
sg64
(lp2847
g2237
asbag57
(g78
g59
NtRp2848
(dp2849
g62
(dp2850
g89
g90
ssg71
g2840
sg64
(lp2851
S':'
asbag57
(g78
g59
NtRp2852
(dp2853
g62
(dp2854
sg71
g2840
sg64
(lp2855
g57
(g58
g59
NtRp2856
(dp2857
g62
(dp2858
g70
I4
ssg71
g2852
sg64
(lp2859
g57
(g66
g59
NtRp2860
(dp2861
g62
(dp2862
g70
I3
ssg71
Nsg64
(lp2863
g57
(g73
g59
NtRp2864
(dp2865
g62
(dp2866
sg71
g2860
sg64
(lp2867
g57
(g78
g59
NtRp2868
(dp2869
g62
(dp2870
sg71
g2864
sg64
(lp2871
g57
(g58
g59
NtRp2872
(dp2873
g62
(dp2874
g70
I3
ssg71
g2868
sg64
(lp2875
S'2'
asbasbasbag57
(g73
g59
NtRp2876
(dp2877
g62
(dp2878
sg71
g2860
sg64
(lp2879
g57
(g78
g59
NtRp2880
(dp2881
g62
(dp2882
sg71
g2876
sg64
(lp2883
g57
(g58
g59
NtRp2884
(dp2885
g62
(dp2886
g70
I3
ssg71
g2880
sg64
(lp2887
S'0'
asbasbasbag57
(g73
g59
NtRp2888
(dp2889
g62
(dp2890
sg71
g2860
sg64
(lp2891
g57
(g78
g59
NtRp2892
(dp2893
g62
(dp2894
sg71
g2888
sg64
(lp2895
g57
(g58
g59
NtRp2896
(dp2897
g62
(dp2898
g70
I3
ssg71
g2892
sg64
(lp2899
S'0'
asbasbasbag57
(g73
g59
NtRp2900
(dp2901
g62
(dp2902
sg71
g2860
sg64
(lp2903
g57
(g78
g59
NtRp2904
(dp2905
g62
(dp2906
sg71
g2900
sg64
(lp2907
g57
(g58
g59
NtRp2908
(dp2909
g62
(dp2910
g70
I3
ssg71
g2904
sg64
(lp2911
S'datetime.datetime(2012, 7, 11, 9, 17, 27)'
p2912
asbasbasbag57
(g73
g59
NtRp2913
(dp2914
g62
(dp2915
sg71
g2860
sg64
(lp2916
g57
(g78
g59
NtRp2917
(dp2918
g62
(dp2919
sg71
g2913
sg64
(lp2920
g57
(g58
g59
NtRp2921
(dp2922
g62
(dp2923
g70
I3
ssg71
g2917
sg64
(lp2924
g2315
asbasbasbasbasbasbasbasbasbasbasbag57
(g73
g59
NtRp2925
(dp2926
g62
(dp2927
sg71
g67
sg64
(lp2928
g57
(g78
g59
NtRp2929
(dp2930
g62
(dp2931
g82
g83
ssg71
g2925
sg64
(lp2932
S'is_https'
p2933
asbag57
(g78
g59
NtRp2934
(dp2935
g62
(dp2936
g89
g90
ssg71
g2925
sg64
(lp2937
S':'
asbag57
(g78
g59
NtRp2938
(dp2939
g62
(dp2940
sg71
g2925
sg64
(lp2941
g57
(g58
g59
NtRp2942
(dp2943
g62
(dp2944
g70
I5
ssg71
g2938
sg64
(lp2945
g100
asbasbasbag57
(g73
g59
NtRp2946
(dp2947
g62
(dp2948
sg71
g67
sg64
(lp2949
g57
(g78
g59
NtRp2950
(dp2951
g62
(dp2952
g82
g83
ssg71
g2946
sg64
(lp2953
S'is_local'
p2954
asbag57
(g78
g59
NtRp2955
(dp2956
g62
(dp2957
g89
g90
ssg71
g2946
sg64
(lp2958
S':'
asbag57
(g78
g59
NtRp2959
(dp2960
g62
(dp2961
sg71
g2946
sg64
(lp2962
g57
(g58
g59
NtRp2963
(dp2964
g62
(dp2965
g70
I5
ssg71
g2959
sg64
(lp2966
g2424
asbasbasbag57
(g73
g59
NtRp2967
(dp2968
g62
(dp2969
sg71
g67
sg64
(lp2970
g57
(g78
g59
NtRp2971
(dp2972
g62
(dp2973
g82
g83
ssg71
g2967
sg64
(lp2974
S'is_restful'
p2975
asbag57
(g78
g59
NtRp2976
(dp2977
g62
(dp2978
g89
g90
ssg71
g2967
sg64
(lp2979
S':'
asbag57
(g78
g59
NtRp2980
(dp2981
g62
(dp2982
sg71
g2967
sg64
(lp2983
g57
(g58
g59
NtRp2984
(dp2985
g62
(dp2986
g70
I5
ssg71
g2980
sg64
(lp2987
g100
asbasbasbag57
(g73
g59
NtRp2988
(dp2989
g62
(dp2990
sg71
g67
sg64
(lp2991
g57
(g78
g59
NtRp2992
(dp2993
g62
(dp2994
g82
g83
ssg71
g2988
sg64
(lp2995
S'now'
p2996
asbag57
(g78
g59
NtRp2997
(dp2998
g62
(dp2999
g89
g90
ssg71
g2988
sg64
(lp3000
S':'
asbag57
(g78
g59
NtRp3001
(dp3002
g62
(dp3003
sg71
g2988
sg64
(lp3004
g57
(g58
g59
NtRp3005
(dp3006
g62
(dp3007
g70
I5
ssg71
g3001
sg64
(lp3008
S'datetime.datetime(2012, 7, 30, 14, 57, 7, 787120)'
p3009
asbasbasbag57
(g73
g59
NtRp3010
(dp3011
g62
(dp3012
sg71
g67
sg64
(lp3013
g57
(g78
g59
NtRp3014
(dp3015
g62
(dp3016
g82
g83
ssg71
g3010
sg64
(lp3017
S'post_vars'
p3018
asbag57
(g78
g59
NtRp3019
(dp3020
g62
(dp3021
g89
g90
ssg71
g3010
sg64
(lp3022
S':'
asbag57
(g78
g59
NtRp3023
(dp3024
g62
(dp3025
sg71
g3010
sg64
(lp3026
g57
(g58
g59
NtRp3027
(dp3028
g62
(dp3029
g70
I5
ssg71
g3023
sg64
(lp3030
g57
(g66
g59
NtRp3031
(dp3032
g62
(dp3033
g70
I4
ssg71
Nsg64
(lp3034
sbasbasbasbag57
(g73
g59
NtRp3035
(dp3036
g62
(dp3037
sg71
g67
sg64
(lp3038
g57
(g78
g59
NtRp3039
(dp3040
g62
(dp3041
g82
g83
ssg71
g3035
sg64
(lp3042
S'url'
p3043
asbag57
(g78
g59
NtRp3044
(dp3045
g62
(dp3046
g89
g90
ssg71
g3035
sg64
(lp3047
S':'
asbag57
(g78
g59
NtRp3048
(dp3049
g62
(dp3050
sg71
g3035
sg64
(lp3051
g57
(g58
g59
NtRp3052
(dp3053
g62
(dp3054
g70
I5
ssg71
g3048
sg64
(lp3055
S'/GPIBHWS/default/calc_sweep_time'
p3056
asbasbasbag57
(g73
g59
NtRp3057
(dp3058
g62
(dp3059
sg71
g67
sg64
(lp3060
g57
(g78
g59
NtRp3061
(dp3062
g62
(dp3063
g82
g83
ssg71
g3057
sg64
(lp3064
S'utcnow'
p3065
asbag57
(g78
g59
NtRp3066
(dp3067
g62
(dp3068
g89
g90
ssg71
g3057
sg64
(lp3069
S':'
asbag57
(g78
g59
NtRp3070
(dp3071
g62
(dp3072
sg71
g3057
sg64
(lp3073
g57
(g58
g59
NtRp3074
(dp3075
g62
(dp3076
g70
I5
ssg71
g3070
sg64
(lp3077
S'datetime.datetime(2012, 7, 30, 18, 57, 7, 787129)'
p3078
asbasbasbag57
(g73
g59
NtRp3079
(dp3080
g62
(dp3081
sg71
g67
sg64
(lp3082
g57
(g78
g59
NtRp3083
(dp3084
g62
(dp3085
g82
g83
ssg71
g3079
sg64
(lp3086
S'uuid'
p3087
asbag57
(g78
g59
NtRp3088
(dp3089
g62
(dp3090
g89
g90
ssg71
g3079
sg64
(lp3091
S':'
asbag57
(g78
g59
NtRp3092
(dp3093
g62
(dp3094
sg71
g3079
sg64
(lp3095
g57
(g58
g59
NtRp3096
(dp3097
g62
(dp3098
g70
I5
ssg71
g3092
sg64
(lp3099
S'GPIBHWS/127.0.0.1.2012-07-30.14-57-07.261663b6-f6c8-4210-8865-da93d4c19cd8'
p3100
asbasbasbag57
(g73
g59
NtRp3101
(dp3102
g62
(dp3103
sg71
g67
sg64
(lp3104
g57
(g78
g59
NtRp3105
(dp3106
g62
(dp3107
g82
g83
ssg71
g3101
sg64
(lp3108
S'vars'
p3109
asbag57
(g78
g59
NtRp3110
(dp3111
g62
(dp3112
g89
g90
ssg71
g3101
sg64
(lp3113
S':'
asbag57
(g78
g59
NtRp3114
(dp3115
g62
(dp3116
sg71
g3101
sg64
(lp3117
g57
(g58
g59
NtRp3118
(dp3119
g62
(dp3120
g70
I5
ssg71
g3114
sg64
(lp3121
g57
(g66
g59
NtRp3122
(dp3123
g62
(dp3124
g70
I4
ssg71
Nsg64
(lp3125
sbasbasbasbag57
(g73
g59
NtRp3126
(dp3127
g62
(dp3128
sg71
g67
sg64
(lp3129
g57
(g78
g59
NtRp3130
(dp3131
g62
(dp3132
g82
g83
ssg71
g3126
sg64
(lp3133
S'wsgi'
p3134
asbag57
(g78
g59
NtRp3135
(dp3136
g62
(dp3137
g89
g90
ssg71
g3126
sg64
(lp3138
S':'
asbag57
(g78
g59
NtRp3139
(dp3140
g62
(dp3141
sg71
g3126
sg64
(lp3142
g57
(g58
g59
NtRp3143
(dp3144
g62
(dp3145
g70
I5
ssg71
g3139
sg64
(lp3146
g57
(g66
g59
NtRp3147
(dp3148
g62
(dp3149
g70
I4
ssg71
Nsg64
(lp3150
g57
(g73
g59
NtRp3151
(dp3152
g62
(dp3153
sg71
g3147
sg64
(lp3154
g57
(g78
g59
NtRp3155
(dp3156
g62
(dp3157
g82
g83
ssg71
g3151
sg64
(lp3158
S'environ'
p3159
asbag57
(g78
g59
NtRp3160
(dp3161
g62
(dp3162
g89
g90
ssg71
g3151
sg64
(lp3163
S':'
asbag57
(g78
g59
NtRp3164
(dp3165
g62
(dp3166
sg71
g3151
sg64
(lp3167
g57
(g58
g59
NtRp3168
(dp3169
g62
(dp3170
g70
I4
ssg71
g3164
sg64
(lp3171
g57
(g66
g59
NtRp3172
(dp3173
g62
(dp3174
g70
I3
ssg71
Nsg64
(lp3175
g57
(g73
g59
NtRp3176
(dp3177
g62
(dp3178
sg71
g3172
sg64
(lp3179
g57
(g78
g59
NtRp3180
(dp3181
g62
(dp3182
g82
g83
ssg71
g3176
sg64
(lp3183
S'HTTP_ACCEPT'
p3184
asbag57
(g78
g59
NtRp3185
(dp3186
g62
(dp3187
g89
g90
ssg71
g3176
sg64
(lp3188
S':'
asbag57
(g78
g59
NtRp3189
(dp3190
g62
(dp3191
sg71
g3176
sg64
(lp3192
g57
(g58
g59
NtRp3193
(dp3194
g62
(dp3195
g70
I3
ssg71
g3189
sg64
(lp3196
g1750
asbasbasbag57
(g73
g59
NtRp3197
(dp3198
g62
(dp3199
sg71
g3172
sg64
(lp3200
g57
(g78
g59
NtRp3201
(dp3202
g62
(dp3203
g82
g83
ssg71
g3197
sg64
(lp3204
S'HTTP_ACCEPT_CHARSET'
p3205
asbag57
(g78
g59
NtRp3206
(dp3207
g62
(dp3208
g89
g90
ssg71
g3197
sg64
(lp3209
S':'
asbag57
(g78
g59
NtRp3210
(dp3211
g62
(dp3212
sg71
g3197
sg64
(lp3213
g57
(g58
g59
NtRp3214
(dp3215
g62
(dp3216
g70
I3
ssg71
g3210
sg64
(lp3217
g1772
asbasbasbag57
(g73
g59
NtRp3218
(dp3219
g62
(dp3220
sg71
g3172
sg64
(lp3221
g57
(g78
g59
NtRp3222
(dp3223
g62
(dp3224
g82
g83
ssg71
g3218
sg64
(lp3225
S'HTTP_ACCEPT_ENCODING'
p3226
asbag57
(g78
g59
NtRp3227
(dp3228
g62
(dp3229
g89
g90
ssg71
g3218
sg64
(lp3230
S':'
asbag57
(g78
g59
NtRp3231
(dp3232
g62
(dp3233
sg71
g3218
sg64
(lp3234
g57
(g58
g59
NtRp3235
(dp3236
g62
(dp3237
g70
I3
ssg71
g3231
sg64
(lp3238
g1794
asbasbasbag57
(g73
g59
NtRp3239
(dp3240
g62
(dp3241
sg71
g3172
sg64
(lp3242
g57
(g78
g59
NtRp3243
(dp3244
g62
(dp3245
g82
g83
ssg71
g3239
sg64
(lp3246
S'HTTP_ACCEPT_LANGUAGE'
p3247
asbag57
(g78
g59
NtRp3248
(dp3249
g62
(dp3250
g89
g90
ssg71
g3239
sg64
(lp3251
S':'
asbag57
(g78
g59
NtRp3252
(dp3253
g62
(dp3254
sg71
g3239
sg64
(lp3255
g57
(g58
g59
NtRp3256
(dp3257
g62
(dp3258
g70
I3
ssg71
g3252
sg64
(lp3259
g1816
asbasbasbag57
(g73
g59
NtRp3260
(dp3261
g62
(dp3262
sg71
g3172
sg64
(lp3263
g57
(g78
g59
NtRp3264
(dp3265
g62
(dp3266
g82
g83
ssg71
g3260
sg64
(lp3267
S'HTTP_CONNECTION'
p3268
asbag57
(g78
g59
NtRp3269
(dp3270
g62
(dp3271
g89
g90
ssg71
g3260
sg64
(lp3272
S':'
asbag57
(g78
g59
NtRp3273
(dp3274
g62
(dp3275
sg71
g3260
sg64
(lp3276
g57
(g58
g59
NtRp3277
(dp3278
g62
(dp3279
g70
I3
ssg71
g3273
sg64
(lp3280
g1838
asbasbasbag57
(g73
g59
NtRp3281
(dp3282
g62
(dp3283
sg71
g3172
sg64
(lp3284
g57
(g78
g59
NtRp3285
(dp3286
g62
(dp3287
g82
g83
ssg71
g3281
sg64
(lp3288
S'HTTP_COOKIE'
p3289
asbag57
(g78
g59
NtRp3290
(dp3291
g62
(dp3292
g89
g90
ssg71
g3281
sg64
(lp3293
S':'
asbag57
(g78
g59
NtRp3294
(dp3295
g62
(dp3296
sg71
g3281
sg64
(lp3297
g57
(g58
g59
NtRp3298
(dp3299
g62
(dp3300
g70
I3
ssg71
g3294
sg64
(lp3301
g1860
asbasbasbag57
(g73
g59
NtRp3302
(dp3303
g62
(dp3304
sg71
g3172
sg64
(lp3305
g57
(g78
g59
NtRp3306
(dp3307
g62
(dp3308
g82
g83
ssg71
g3302
sg64
(lp3309
S'HTTP_HOST'
p3310
asbag57
(g78
g59
NtRp3311
(dp3312
g62
(dp3313
g89
g90
ssg71
g3302
sg64
(lp3314
S':'
asbag57
(g78
g59
NtRp3315
(dp3316
g62
(dp3317
sg71
g3302
sg64
(lp3318
g57
(g58
g59
NtRp3319
(dp3320
g62
(dp3321
g70
I3
ssg71
g3315
sg64
(lp3322
g1882
asbasbasbag57
(g73
g59
NtRp3323
(dp3324
g62
(dp3325
sg71
g3172
sg64
(lp3326
g57
(g78
g59
NtRp3327
(dp3328
g62
(dp3329
g82
g83
ssg71
g3323
sg64
(lp3330
S'HTTP_REFERER'
p3331
asbag57
(g78
g59
NtRp3332
(dp3333
g62
(dp3334
g89
g90
ssg71
g3323
sg64
(lp3335
S':'
asbag57
(g78
g59
NtRp3336
(dp3337
g62
(dp3338
sg71
g3323
sg64
(lp3339
g57
(g58
g59
NtRp3340
(dp3341
g62
(dp3342
g70
I3
ssg71
g3336
sg64
(lp3343
g1904
asbasbasbag57
(g73
g59
NtRp3344
(dp3345
g62
(dp3346
sg71
g3172
sg64
(lp3347
g57
(g78
g59
NtRp3348
(dp3349
g62
(dp3350
g82
g83
ssg71
g3344
sg64
(lp3351
S'HTTP_USER_AGENT'
p3352
asbag57
(g78
g59
NtRp3353
(dp3354
g62
(dp3355
g89
g90
ssg71
g3344
sg64
(lp3356
S':'
asbag57
(g78
g59
NtRp3357
(dp3358
g62
(dp3359
sg71
g3344
sg64
(lp3360
g57
(g58
g59
NtRp3361
(dp3362
g62
(dp3363
g70
I3
ssg71
g3357
sg64
(lp3364
g1926
asbasbasbag57
(g73
g59
NtRp3365
(dp3366
g62
(dp3367
sg71
g3172
sg64
(lp3368
g57
(g78
g59
NtRp3369
(dp3370
g62
(dp3371
g82
g83
ssg71
g3365
sg64
(lp3372
S'PATH_INFO'
p3373
asbag57
(g78
g59
NtRp3374
(dp3375
g62
(dp3376
g89
g90
ssg71
g3365
sg64
(lp3377
S':'
asbag57
(g78
g59
NtRp3378
(dp3379
g62
(dp3380
sg71
g3365
sg64
(lp3381
g57
(g58
g59
NtRp3382
(dp3383
g62
(dp3384
g70
I3
ssg71
g3378
sg64
(lp3385
g1990
asbasbasbag57
(g73
g59
NtRp3386
(dp3387
g62
(dp3388
sg71
g3172
sg64
(lp3389
g57
(g78
g59
NtRp3390
(dp3391
g62
(dp3392
g82
g83
ssg71
g3386
sg64
(lp3393
S'QUERY_STRING'
p3394
asbag57
(g78
g59
NtRp3395
(dp3396
g62
(dp3397
g89
g90
ssg71
g3386
sg64
(lp3398
S':'
asbag57
(g78
g59
NtRp3399
(dp3400
g62
(dp3401
sg71
g3386
sg64
(lp3402
g57
(g58
g59
NtRp3403
(dp3404
g62
(dp3405
g70
I3
ssg71
g3399
sg64
(lp3406
S''
asbasbasbag57
(g73
g59
NtRp3407
(dp3408
g62
(dp3409
sg71
g3172
sg64
(lp3410
g57
(g78
g59
NtRp3411
(dp3412
g62
(dp3413
g82
g83
ssg71
g3407
sg64
(lp3414
S'REMOTE_ADDR'
p3415
asbag57
(g78
g59
NtRp3416
(dp3417
g62
(dp3418
g89
g90
ssg71
g3407
sg64
(lp3419
S':'
asbag57
(g78
g59
NtRp3420
(dp3421
g62
(dp3422
sg71
g3407
sg64
(lp3423
g57
(g58
g59
NtRp3424
(dp3425
g62
(dp3426
g70
I3
ssg71
g3420
sg64
(lp3427
g190
asbasbasbag57
(g73
g59
NtRp3428
(dp3429
g62
(dp3430
sg71
g3172
sg64
(lp3431
g57
(g78
g59
NtRp3432
(dp3433
g62
(dp3434
g82
g83
ssg71
g3428
sg64
(lp3435
S'REMOTE_PORT'
p3436
asbag57
(g78
g59
NtRp3437
(dp3438
g62
(dp3439
g89
g90
ssg71
g3428
sg64
(lp3440
S':'
asbag57
(g78
g59
NtRp3441
(dp3442
g62
(dp3443
sg71
g3428
sg64
(lp3444
g57
(g58
g59
NtRp3445
(dp3446
g62
(dp3447
g70
I3
ssg71
g3441
sg64
(lp3448
g2054
asbasbasbag57
(g73
g59
NtRp3449
(dp3450
g62
(dp3451
sg71
g3172
sg64
(lp3452
g57
(g78
g59
NtRp3453
(dp3454
g62
(dp3455
g82
g83
ssg71
g3449
sg64
(lp3456
S'REQUEST_METHOD'
p3457
asbag57
(g78
g59
NtRp3458
(dp3459
g62
(dp3460
g89
g90
ssg71
g3449
sg64
(lp3461
S':'
asbag57
(g78
g59
NtRp3462
(dp3463
g62
(dp3464
sg71
g3449
sg64
(lp3465
g57
(g58
g59
NtRp3466
(dp3467
g62
(dp3468
g70
I3
ssg71
g3462
sg64
(lp3469
g2076
asbasbasbag57
(g73
g59
NtRp3470
(dp3471
g62
(dp3472
sg71
g3172
sg64
(lp3473
g57
(g78
g59
NtRp3474
(dp3475
g62
(dp3476
g82
g83
ssg71
g3470
sg64
(lp3477
S'SCRIPT_NAME'
p3478
asbag57
(g78
g59
NtRp3479
(dp3480
g62
(dp3481
g89
g90
ssg71
g3470
sg64
(lp3482
S':'
asbag57
(g78
g59
NtRp3483
(dp3484
g62
(dp3485
sg71
g3470
sg64
(lp3486
g57
(g58
g59
NtRp3487
(dp3488
g62
(dp3489
g70
I3
ssg71
g3483
sg64
(lp3490
S''
asbasbasbag57
(g73
g59
NtRp3491
(dp3492
g62
(dp3493
sg71
g3172
sg64
(lp3494
g57
(g78
g59
NtRp3495
(dp3496
g62
(dp3497
g82
g83
ssg71
g3491
sg64
(lp3498
S'SERVER_NAME'
p3499
asbag57
(g78
g59
NtRp3500
(dp3501
g62
(dp3502
g89
g90
ssg71
g3491
sg64
(lp3503
S':'
asbag57
(g78
g59
NtRp3504
(dp3505
g62
(dp3506
sg71
g3491
sg64
(lp3507
g57
(g58
g59
NtRp3508
(dp3509
g62
(dp3510
g70
I3
ssg71
g3504
sg64
(lp3511
g2119
asbasbasbag57
(g73
g59
NtRp3512
(dp3513
g62
(dp3514
sg71
g3172
sg64
(lp3515
g57
(g78
g59
NtRp3516
(dp3517
g62
(dp3518
g82
g83
ssg71
g3512
sg64
(lp3519
S'SERVER_PORT'
p3520
asbag57
(g78
g59
NtRp3521
(dp3522
g62
(dp3523
g89
g90
ssg71
g3512
sg64
(lp3524
S':'
asbag57
(g78
g59
NtRp3525
(dp3526
g62
(dp3527
sg71
g3512
sg64
(lp3528
g57
(g58
g59
NtRp3529
(dp3530
g62
(dp3531
g70
I3
ssg71
g3525
sg64
(lp3532
g2141
asbasbasbag57
(g73
g59
NtRp3533
(dp3534
g62
(dp3535
sg71
g3172
sg64
(lp3536
g57
(g78
g59
NtRp3537
(dp3538
g62
(dp3539
g82
g83
ssg71
g3533
sg64
(lp3540
S'SERVER_PROTOCOL'
p3541
asbag57
(g78
g59
NtRp3542
(dp3543
g62
(dp3544
g89
g90
ssg71
g3533
sg64
(lp3545
S':'
asbag57
(g78
g59
NtRp3546
(dp3547
g62
(dp3548
sg71
g3533
sg64
(lp3549
g57
(g58
g59
NtRp3550
(dp3551
g62
(dp3552
g70
I3
ssg71
g3546
sg64
(lp3553
g2163
asbasbasbag57
(g73
g59
NtRp3554
(dp3555
g62
(dp3556
sg71
g3172
sg64
(lp3557
g57
(g78
g59
NtRp3558
(dp3559
g62
(dp3560
g82
g83
ssg71
g3554
sg64
(lp3561
S'SERVER_SOFTWARE'
p3562
asbag57
(g78
g59
NtRp3563
(dp3564
g62
(dp3565
g89
g90
ssg71
g3554
sg64
(lp3566
S':'
asbag57
(g78
g59
NtRp3567
(dp3568
g62
(dp3569
sg71
g3554
sg64
(lp3570
g57
(g58
g59
NtRp3571
(dp3572
g62
(dp3573
g70
I3
ssg71
g3567
sg64
(lp3574
g2185
asbasbasbag57
(g73
g59
NtRp3575
(dp3576
g62
(dp3577
sg71
g3172
sg64
(lp3578
g57
(g78
g59
NtRp3579
(dp3580
g62
(dp3581
g82
g83
ssg71
g3575
sg64
(lp3582
S'wsgi.errors'
p3583
asbag57
(g78
g59
NtRp3584
(dp3585
g62
(dp3586
g89
g90
ssg71
g3575
sg64
(lp3587
S':'
asbag57
(g78
g59
NtRp3588
(dp3589
g62
(dp3590
sg71
g3575
sg64
(lp3591
g57
(g58
g59
NtRp3592
(dp3593
g62
(dp3594
g70
I3
ssg71
g3588
sg64
(lp3595
S"<open file '<stderr>', mode 'w' at 0x3410d0>"
p3596
asbasbasbag57
(g73
g59
NtRp3597
(dp3598
g62
(dp3599
sg71
g3172
sg64
(lp3600
g57
(g78
g59
NtRp3601
(dp3602
g62
(dp3603
g82
g83
ssg71
g3597
sg64
(lp3604
S'wsgi.file_wrapper'
p3605
asbag57
(g78
g59
NtRp3606
(dp3607
g62
(dp3608
g89
g90
ssg71
g3597
sg64
(lp3609
S':'
asbag57
(g78
g59
NtRp3610
(dp3611
g62
(dp3612
sg71
g3597
sg64
(lp3613
g57
(g58
g59
NtRp3614
(dp3615
g62
(dp3616
g70
I3
ssg71
g3610
sg64
(lp3617
S'<class wsgiref.util.FileWrapper at 0x18934b0>'
p3618
asbasbasbag57
(g73
g59
NtRp3619
(dp3620
g62
(dp3621
sg71
g3172
sg64
(lp3622
g57
(g78
g59
NtRp3623
(dp3624
g62
(dp3625
g82
g83
ssg71
g3619
sg64
(lp3626
S'wsgi.input'
p3627
asbag57
(g78
g59
NtRp3628
(dp3629
g62
(dp3630
g89
g90
ssg71
g3619
sg64
(lp3631
S':'
asbag57
(g78
g59
NtRp3632
(dp3633
g62
(dp3634
sg71
g3619
sg64
(lp3635
g57
(g58
g59
NtRp3636
(dp3637
g62
(dp3638
g70
I3
ssg71
g3632
sg64
(lp3639
S'<cStringIO.StringO object at 0x1b66e3c0>'
p3640
asbasbasbag57
(g73
g59
NtRp3641
(dp3642
g62
(dp3643
sg71
g3172
sg64
(lp3644
g57
(g78
g59
NtRp3645
(dp3646
g62
(dp3647
g82
g83
ssg71
g3641
sg64
(lp3648
S'wsgi.multiprocess'
p3649
asbag57
(g78
g59
NtRp3650
(dp3651
g62
(dp3652
g89
g90
ssg71
g3641
sg64
(lp3653
S':'
asbag57
(g78
g59
NtRp3654
(dp3655
g62
(dp3656
sg71
g3641
sg64
(lp3657
g57
(g58
g59
NtRp3658
(dp3659
g62
(dp3660
g70
I3
ssg71
g3654
sg64
(lp3661
g100
asbasbasbag57
(g73
g59
NtRp3662
(dp3663
g62
(dp3664
sg71
g3172
sg64
(lp3665
g57
(g78
g59
NtRp3666
(dp3667
g62
(dp3668
g82
g83
ssg71
g3662
sg64
(lp3669
S'wsgi.multithread'
p3670
asbag57
(g78
g59
NtRp3671
(dp3672
g62
(dp3673
g89
g90
ssg71
g3662
sg64
(lp3674
S':'
asbag57
(g78
g59
NtRp3675
(dp3676
g62
(dp3677
sg71
g3662
sg64
(lp3678
g57
(g58
g59
NtRp3679
(dp3680
g62
(dp3681
g70
I3
ssg71
g3675
sg64
(lp3682
g2424
asbasbasbag57
(g73
g59
NtRp3683
(dp3684
g62
(dp3685
sg71
g3172
sg64
(lp3686
g57
(g78
g59
NtRp3687
(dp3688
g62
(dp3689
g82
g83
ssg71
g3683
sg64
(lp3690
S'wsgi.run_once'
p3691
asbag57
(g78
g59
NtRp3692
(dp3693
g62
(dp3694
g89
g90
ssg71
g3683
sg64
(lp3695
S':'
asbag57
(g78
g59
NtRp3696
(dp3697
g62
(dp3698
sg71
g3683
sg64
(lp3699
g57
(g58
g59
NtRp3700
(dp3701
g62
(dp3702
g70
I3
ssg71
g3696
sg64
(lp3703
g100
asbasbasbag57
(g73
g59
NtRp3704
(dp3705
g62
(dp3706
sg71
g3172
sg64
(lp3707
g57
(g78
g59
NtRp3708
(dp3709
g62
(dp3710
g82
g83
ssg71
g3704
sg64
(lp3711
S'wsgi.url_scheme'
p3712
asbag57
(g78
g59
NtRp3713
(dp3714
g62
(dp3715
g89
g90
ssg71
g3704
sg64
(lp3716
S':'
asbag57
(g78
g59
NtRp3717
(dp3718
g62
(dp3719
sg71
g3704
sg64
(lp3720
g57
(g58
g59
NtRp3721
(dp3722
g62
(dp3723
g70
I3
ssg71
g3717
sg64
(lp3724
g2467
asbasbasbag57
(g73
g59
NtRp3725
(dp3726
g62
(dp3727
sg71
g3172
sg64
(lp3728
g57
(g78
g59
NtRp3729
(dp3730
g62
(dp3731
g82
g83
ssg71
g3725
sg64
(lp3732
S'wsgi.version'
p3733
asbag57
(g78
g59
NtRp3734
(dp3735
g62
(dp3736
g89
g90
ssg71
g3725
sg64
(lp3737
S':'
asbag57
(g78
g59
NtRp3738
(dp3739
g62
(dp3740
sg71
g3725
sg64
(lp3741
g57
(g58
g59
NtRp3742
(dp3743
g62
(dp3744
g70
I3
ssg71
g3738
sg64
(lp3745
S'1'
asbasbasbasbasbasbasbasbasbasbasbasbasbsS'frames'
p3746
(lp3747
(dp3748
S'file'
p3749
S'/web2pyTrunk/gluon/restricted.py'
p3750
sS'dump'
p3751
(dp3752
S'environment'
p3753
S"{'A': <class 'gluon.html.A'>, 'ALLOW_THREADS': 1, 'Annotation': <class 'matplotlib.text.Annotation'>, 'Arrow': <class 'matplotlib.patches.Arrow'>, 'Artist': <class 'matplotlib.artist.Artist'>, 'Auth': <class 'gluon.tools.Auth'>, 'AutoLocator': <class matplotlib.ticker.AutoLocator>, 'Axes': <class 'matplotlib.axes.Axes'>, 'B': <class 'gluon.html.B'>, 'BEAUTIFY': <class 'gluon.html.BEAUTIFY'>, ...}"
p3754
sS'ccode'
p3755
S'<code object <module> at 0x19f40770, file "/web2...cations/GPIBHWS/controllers/default.py", line 10>'
p3756
ssS'lnum'
p3757
I205
sS'lines'
p3758
(dp3759
I200
S'    try:'
p3760
sI201
S'        if type(code) == types.CodeType:'
p3761
sI202
S'            ccode = code'
p3762
sI203
S'        else:'
p3763
sI204
S'            ccode = compile2(code,layer)'
p3764
sI205
S'        exec ccode in environment'
p3765
sI206
S'    except HTTP:'
p3766
sI207
S'        raise'
p3767
sI208
S'    except RestrictedError:'
p3768
sI209
S'        # do not encapsulate (obfuscate) the original RestrictedError'
p3769
ssS'call'
p3770
S"(code='# -*- coding: utf-8 -*-\\n\\n#######################...response._vars=response._caller(calc_sweep_time)\\n', environment={'A': <class 'gluon.html.A'>, 'ALLOW_THREADS': 1, 'Annotation': <class 'matplotlib.text.Annotation'>, 'Arrow': <class 'matplotlib.patches.Arrow'>, 'Artist': <class 'matplotlib.artist.Artist'>, 'Auth': <class 'gluon.tools.Auth'>, 'AutoLocator': <class matplotlib.ticker.AutoLocator>, 'Axes': <class 'matplotlib.axes.Axes'>, 'B': <class 'gluon.html.B'>, 'BEAUTIFY': <class 'gluon.html.BEAUTIFY'>, ...}, layer='/web2pyTrunk/applications/GPIBHWS/controllers/default.py')"
p3771
sS'func'
p3772
S'restricted'
p3773
sa(dp3774
g3749
S'/web2pyTrunk/applications/GPIBHWS/controllers/default.py'
p3775
sg3751
(dp3776
sg3757
I700
sg3758
(dp3777
I689
S'    http://..../[app]/default/data/update/[table]/[id]'
p3778
sI690
S'    http://..../[app]/default/data/delete/[table]/[id]'
p3779
sI691
S'    http://..../[app]/default/data/select/[table]'
p3780
sI692
S'    http://..../[app]/default/data/search/[table]'
p3781
sI693
S'    but URLs must be signed, i.e. linked with'
p3782
sI694
S"      A('table',_href=URL('data/tables',user_signature=True))"
p3783
sI695
S'    or with the signed load operator'
p3784
sI696
S"      LOAD('default','data.load',args='tables',ajax=True,user_signature=True)"
p3785
sI697
S'    """'
p3786
sI698
S'    return dict(form=crud())'
p3787
ssg3770
S'()'
p3788
sg3772
S'<module>'
p3789
sa(dp3790
g3749
S'/web2pyTrunk/gluon/globals.py'
p3791
sg3751
(dp3792
S'self'
p3793
S'undefined'
p3794
sS'f'
S'<function calc_sweep_time>'
p3795
ssg3757
I182
sg3758
(dp3796
I177
S'        self.menu = []             # used by the default view layout'
p3797
sI178
S'        self.files = []            # used by web2py_ajax.html'
p3798
sI179
S'        self.generic_patterns = [] # patterns to allow generic views'
p3799
sI180
S"        self.delimiters = ('{{','}}')"
p3800
sI181
S'        self._vars = None'
p3801
sI182
S'        self._caller = lambda f: f()'
p3802
sI183
S'        self._view_environment = None'
p3803
sI184
S'        self._custom_commit = None'
p3804
sI185
S'        self._custom_rollback = None'
p3805
sI186
S''
ssg3770
S'(f=<function calc_sweep_time>)'
p3806
sg3772
S'<lambda>'
p3807
sa(dp3808
g3749
S'/web2pyTrunk/applications/GPIBHWS/controllers/default.py'
p3809
sg3751
(dp3810
S'n_in'
p3811
S'None'
p3812
sS'n_runs'
p3813
g3794
sS'builtinfloat'
p3814
S"<type 'float'>"
p3815
ssg3757
I489
sg3758
(dp3816
I484
S'    FRS_in = request.vars.frequency_range'
p3817
sI485
S'    SW_in = request.vars.sweep_rate'
p3818
sI486
S'    m_runs = request.vars.multiple_runs'
p3819
sI487
S'    n_in = request.vars.number_runs'
p3820
sI488
S''
sI489
S'    n_runs = float(n_in)'
p3821
sI490
S'    frq_range = float(FRS_in)'
p3822
sI491
S'    swp_rate = float(SW_in)'
p3823
sI492
S''
sI493
S'    swp_t_single = ((frq_range/swp_rate) + 90)/60'
p3824
ssg3770
S'()'
p3825
sg3772
S'calc_sweep_time'
p3826
sasS'pyver'
p3827
S'Python 2.6.6: /Library/Frameworks/Python.framework/Versions/2.6/Resources/Python.app/Contents/MacOS/Python'
p3828
sS'session'
p3829
g57
(g58
g59
NtRp3830
(dp3831
g62
(dp3832
sg64
(lp3833
g57
(g66
g59
NtRp3834
(dp3835
g62
(dp3836
g70
I5
ssg71
Nsg64
(lp3837
g57
(g73
g59
NtRp3838
(dp3839
g62
(dp3840
sg71
g3834
sg64
(lp3841
g57
(g78
g59
NtRp3842
(dp3843
g62
(dp3844
g82
g83
ssg71
g3838
sg64
(lp3845
S'last_query'
p3846
asbag57
(g78
g59
NtRp3847
(dp3848
g62
(dp3849
g89
g90
ssg71
g3838
sg64
(lp3850
S':'
asbag57
(g78
g59
NtRp3851
(dp3852
g62
(dp3853
sg71
g3838
sg64
(lp3854
g57
(g58
g59
NtRp3855
(dp3856
g62
(dp3857
g70
I5
ssg71
g3851
sg64
(lp3858
S'db.data.id>0'
p3859
asbasbasbag57
(g73
g59
NtRp3860
(dp3861
g62
(dp3862
sg71
g3834
sg64
(lp3863
g57
(g78
g59
NtRp3864
(dp3865
g62
(dp3866
g82
g83
ssg71
g3860
sg64
(lp3867
S'run_type'
p3868
asbag57
(g78
g59
NtRp3869
(dp3870
g62
(dp3871
g89
g90
ssg71
g3860
sg64
(lp3872
S':'
asbag57
(g78
g59
NtRp3873
(dp3874
g62
(dp3875
sg71
g3860
sg64
(lp3876
g57
(g58
g59
NtRp3877
(dp3878
g62
(dp3879
g70
I5
ssg71
g3873
sg64
(lp3880
S'Sweep'
p3881
asbasbasbasbasbsS'etype'
p3882
S"<type 'exceptions.TypeError'>"
p3883
sS'date'
p3884
S'Mon Jul 30 14:57:07 2012'
p3885
sS'response'
p3886
g57
(g58
g59
NtRp3887
(dp3888
g62
(dp3889
sg64
(lp3890
g57
(g66
g59
NtRp3891
(dp3892
g62
(dp3893
g70
I5
ssg71
Nsg64
(lp3894
g57
(g73
g59
NtRp3895
(dp3896
g62
(dp3897
sg71
g3891
sg64
(lp3898
g57
(g78
g59
NtRp3899
(dp3900
g62
(dp3901
g82
g83
ssg71
g3895
sg64
(lp3902
g155
asbag57
(g78
g59
NtRp3903
(dp3904
g62
(dp3905
g89
g90
ssg71
g3895
sg64
(lp3906
S':'
asbag57
(g78
g59
NtRp3907
(dp3908
g62
(dp3909
sg71
g3895
sg64
(lp3910
g57
(g58
g59
NtRp3911
(dp3912
g62
(dp3913
g70
I5
ssg71
g3907
sg64
(lp3914
S'<cStringIO.StringO object at 0x1aa897c0>'
p3915
asbasbasbag57
(g73
g59
NtRp3916
(dp3917
g62
(dp3918
sg71
g3891
sg64
(lp3919
g57
(g78
g59
NtRp3920
(dp3921
g62
(dp3922
g82
g83
ssg71
g3916
sg64
(lp3923
g221
asbag57
(g78
g59
NtRp3924
(dp3925
g62
(dp3926
g89
g90
ssg71
g3916
sg64
(lp3927
S':'
asbag57
(g78
g59
NtRp3928
(dp3929
g62
(dp3930
sg71
g3916
sg64
(lp3931
g57
(g58
g59
NtRp3932
(dp3933
g62
(dp3934
g70
I5
ssg71
g3928
sg64
(lp3935
g57
(g66
g59
NtRp3936
(dp3937
g62
(dp3938
g70
I4
ssg71
Nsg64
(lp3939
g57
(g73
g59
NtRp3940
(dp3941
g62
(dp3942
sg71
g3936
sg64
(lp3943
g57
(g78
g59
NtRp3944
(dp3945
g62
(dp3946
g82
g83
ssg71
g3940
sg64
(lp3947
S'session_id_gpibhws'
p3948
asbag57
(g78
g59
NtRp3949
(dp3950
g62
(dp3951
g89
g90
ssg71
g3940
sg64
(lp3952
S':'
asbag57
(g78
g59
NtRp3953
(dp3954
g62
(dp3955
sg71
g3940
sg64
(lp3956
g57
(g58
g59
NtRp3957
(dp3958
g62
(dp3959
g70
I4
ssg71
g3953
sg64
(lp3960
g825
ag57
(g66
g59
NtRp3961
(dp3962
g62
(dp3963
g70
I3
ssg71
Nsg64
(lp3964
g57
(g73
g59
NtRp3965
(dp3966
g62
(dp3967
sg71
g3961
sg64
(lp3968
g57
(g78
g59
NtRp3969
(dp3970
g62
(dp3971
g82
g83
ssg71
g3965
sg64
(lp3972
g272
asbag57
(g78
g59
NtRp3973
(dp3974
g62
(dp3975
g89
g90
ssg71
g3965
sg64
(lp3976
S':'
asbag57
(g78
g59
NtRp3977
(dp3978
g62
(dp3979
sg71
g3965
sg64
(lp3980
g57
(g58
g59
NtRp3981
(dp3982
g62
(dp3983
g70
I3
ssg71
g3977
sg64
(lp3984
S''
asbasbasbag57
(g73
g59
NtRp3985
(dp3986
g62
(dp3987
sg71
g3961
sg64
(lp3988
g57
(g78
g59
NtRp3989
(dp3990
g62
(dp3991
g82
g83
ssg71
g3985
sg64
(lp3992
g293
asbag57
(g78
g59
NtRp3993
(dp3994
g62
(dp3995
g89
g90
ssg71
g3985
sg64
(lp3996
S':'
asbag57
(g78
g59
NtRp3997
(dp3998
g62
(dp3999
sg71
g3985
sg64
(lp4000
g57
(g58
g59
NtRp4001
(dp4002
g62
(dp4003
g70
I3
ssg71
g3997
sg64
(lp4004
S''
asbasbasbag57
(g73
g59
NtRp4005
(dp4006
g62
(dp4007
sg71
g3961
sg64
(lp4008
g57
(g78
g59
NtRp4009
(dp4010
g62
(dp4011
g82
g83
ssg71
g4005
sg64
(lp4012
g314
asbag57
(g78
g59
NtRp4013
(dp4014
g62
(dp4015
g89
g90
ssg71
g4005
sg64
(lp4016
S':'
asbag57
(g78
g59
NtRp4017
(dp4018
g62
(dp4019
sg71
g4005
sg64
(lp4020
g57
(g58
g59
NtRp4021
(dp4022
g62
(dp4023
g70
I3
ssg71
g4017
sg64
(lp4024
S''
asbasbasbag57
(g73
g59
NtRp4025
(dp4026
g62
(dp4027
sg71
g3961
sg64
(lp4028
g57
(g78
g59
NtRp4029
(dp4030
g62
(dp4031
g82
g83
ssg71
g4025
sg64
(lp4032
g335
asbag57
(g78
g59
NtRp4033
(dp4034
g62
(dp4035
g89
g90
ssg71
g4025
sg64
(lp4036
S':'
asbag57
(g78
g59
NtRp4037
(dp4038
g62
(dp4039
sg71
g4025
sg64
(lp4040
g57
(g58
g59
NtRp4041
(dp4042
g62
(dp4043
g70
I3
ssg71
g4037
sg64
(lp4044
S''
asbasbasbag57
(g73
g59
NtRp4045
(dp4046
g62
(dp4047
sg71
g3961
sg64
(lp4048
g57
(g78
g59
NtRp4049
(dp4050
g62
(dp4051
g82
g83
ssg71
g4045
sg64
(lp4052
g356
asbag57
(g78
g59
NtRp4053
(dp4054
g62
(dp4055
g89
g90
ssg71
g4045
sg64
(lp4056
S':'
asbag57
(g78
g59
NtRp4057
(dp4058
g62
(dp4059
sg71
g4045
sg64
(lp4060
g57
(g58
g59
NtRp4061
(dp4062
g62
(dp4063
g70
I3
ssg71
g4057
sg64
(lp4064
S''
asbasbasbag57
(g73
g59
NtRp4065
(dp4066
g62
(dp4067
sg71
g3961
sg64
(lp4068
g57
(g78
g59
NtRp4069
(dp4070
g62
(dp4071
g82
g83
ssg71
g4065
sg64
(lp4072
g377
asbag57
(g78
g59
NtRp4073
(dp4074
g62
(dp4075
g89
g90
ssg71
g4065
sg64
(lp4076
S':'
asbag57
(g78
g59
NtRp4077
(dp4078
g62
(dp4079
sg71
g4065
sg64
(lp4080
g57
(g58
g59
NtRp4081
(dp4082
g62
(dp4083
g70
I3
ssg71
g4077
sg64
(lp4084
S'/'
asbasbasbag57
(g73
g59
NtRp4085
(dp4086
g62
(dp4087
sg71
g3961
sg64
(lp4088
g57
(g78
g59
NtRp4089
(dp4090
g62
(dp4091
g82
g83
ssg71
g4085
sg64
(lp4092
g398
asbag57
(g78
g59
NtRp4093
(dp4094
g62
(dp4095
g89
g90
ssg71
g4085
sg64
(lp4096
S':'
asbag57
(g78
g59
NtRp4097
(dp4098
g62
(dp4099
sg71
g4085
sg64
(lp4100
g57
(g58
g59
NtRp4101
(dp4102
g62
(dp4103
g70
I3
ssg71
g4097
sg64
(lp4104
S''
asbasbasbag57
(g73
g59
NtRp4105
(dp4106
g62
(dp4107
sg71
g3961
sg64
(lp4108
g57
(g78
g59
NtRp4109
(dp4110
g62
(dp4111
g82
g83
ssg71
g4105
sg64
(lp4112
g419
asbag57
(g78
g59
NtRp4113
(dp4114
g62
(dp4115
g89
g90
ssg71
g4105
sg64
(lp4116
S':'
asbag57
(g78
g59
NtRp4117
(dp4118
g62
(dp4119
sg71
g4105
sg64
(lp4120
g57
(g58
g59
NtRp4121
(dp4122
g62
(dp4123
g70
I3
ssg71
g4117
sg64
(lp4124
S''
asbasbasbasbasbasbasbasbasbasbasbag57
(g73
g59
NtRp4125
(dp4126
g62
(dp4127
sg71
g3891
sg64
(lp4128
g57
(g78
g59
NtRp4129
(dp4130
g62
(dp4131
g82
g83
ssg71
g4125
sg64
(lp4132
S'delimiters'
p4133
asbag57
(g78
g59
NtRp4134
(dp4135
g62
(dp4136
g89
g90
ssg71
g4125
sg64
(lp4137
S':'
asbag57
(g78
g59
NtRp4138
(dp4139
g62
(dp4140
sg71
g4125
sg64
(lp4141
g57
(g58
g59
NtRp4142
(dp4143
g62
(dp4144
g70
I5
ssg71
g4138
sg64
(lp4145
g57
(g66
g59
NtRp4146
(dp4147
g62
(dp4148
g70
I4
ssg71
Nsg64
(lp4149
g57
(g73
g59
NtRp4150
(dp4151
g62
(dp4152
sg71
g4146
sg64
(lp4153
g57
(g78
g59
NtRp4154
(dp4155
g62
(dp4156
sg71
g4150
sg64
(lp4157
g57
(g58
g59
NtRp4158
(dp4159
g62
(dp4160
g70
I4
ssg71
g4154
sg64
(lp4161
S'{{'
p4162
asbasbasbag57
(g73
g59
NtRp4163
(dp4164
g62
(dp4165
sg71
g4146
sg64
(lp4166
g57
(g78
g59
NtRp4167
(dp4168
g62
(dp4169
sg71
g4163
sg64
(lp4170
g57
(g58
g59
NtRp4171
(dp4172
g62
(dp4173
g70
I4
ssg71
g4167
sg64
(lp4174
S'}}'
p4175
asbasbasbasbasbasbasbag57
(g73
g59
NtRp4176
(dp4177
g62
(dp4178
sg71
g3891
sg64
(lp4179
g57
(g78
g59
NtRp4180
(dp4181
g62
(dp4182
g82
g83
ssg71
g4176
sg64
(lp4183
S'files'
p4184
asbag57
(g78
g59
NtRp4185
(dp4186
g62
(dp4187
g89
g90
ssg71
g4176
sg64
(lp4188
S':'
asbag57
(g78
g59
NtRp4189
(dp4190
g62
(dp4191
sg71
g4176
sg64
(lp4192
g57
(g58
g59
NtRp4193
(dp4194
g62
(dp4195
g70
I5
ssg71
g4189
sg64
(lp4196
g57
(g66
g59
NtRp4197
(dp4198
g62
(dp4199
g70
I4
ssg71
Nsg64
(lp4200
sbasbasbasbag57
(g73
g59
NtRp4201
(dp4202
g62
(dp4203
sg71
g3891
sg64
(lp4204
g57
(g78
g59
NtRp4205
(dp4206
g62
(dp4207
g82
g83
ssg71
g4201
sg64
(lp4208
S'flash'
p4209
asbag57
(g78
g59
NtRp4210
(dp4211
g62
(dp4212
g89
g90
ssg71
g4201
sg64
(lp4213
S':'
asbag57
(g78
g59
NtRp4214
(dp4215
g62
(dp4216
sg71
g4201
sg64
(lp4217
g57
(g58
g59
NtRp4218
(dp4219
g62
(dp4220
g70
I5
ssg71
g4214
sg64
(lp4221
S''
asbasbasbag57
(g73
g59
NtRp4222
(dp4223
g62
(dp4224
sg71
g3891
sg64
(lp4225
g57
(g78
g59
NtRp4226
(dp4227
g62
(dp4228
g82
g83
ssg71
g4222
sg64
(lp4229
S'generic_patterns'
p4230
asbag57
(g78
g59
NtRp4231
(dp4232
g62
(dp4233
g89
g90
ssg71
g4222
sg64
(lp4234
S':'
asbag57
(g78
g59
NtRp4235
(dp4236
g62
(dp4237
sg71
g4222
sg64
(lp4238
g57
(g58
g59
NtRp4239
(dp4240
g62
(dp4241
g70
I5
ssg71
g4235
sg64
(lp4242
g57
(g66
g59
NtRp4243
(dp4244
g62
(dp4245
g70
I4
ssg71
Nsg64
(lp4246
g57
(g73
g59
NtRp4247
(dp4248
g62
(dp4249
sg71
g4243
sg64
(lp4250
g57
(g78
g59
NtRp4251
(dp4252
g62
(dp4253
sg71
g4247
sg64
(lp4254
g57
(g58
g59
NtRp4255
(dp4256
g62
(dp4257
g70
I4
ssg71
g4251
sg64
(lp4258
S'*'
asbasbasbasbasbasbasbag57
(g73
g59
NtRp4259
(dp4260
g62
(dp4261
sg71
g3891
sg64
(lp4262
g57
(g78
g59
NtRp4263
(dp4264
g62
(dp4265
g82
g83
ssg71
g4259
sg64
(lp4266
S'headers'
p4267
asbag57
(g78
g59
NtRp4268
(dp4269
g62
(dp4270
g89
g90
ssg71
g4259
sg64
(lp4271
S':'
asbag57
(g78
g59
NtRp4272
(dp4273
g62
(dp4274
sg71
g4259
sg64
(lp4275
g57
(g58
g59
NtRp4276
(dp4277
g62
(dp4278
g70
I5
ssg71
g4272
sg64
(lp4279
g57
(g66
g59
NtRp4280
(dp4281
g62
(dp4282
g70
I4
ssg71
Nsg64
(lp4283
g57
(g73
g59
NtRp4284
(dp4285
g62
(dp4286
sg71
g4280
sg64
(lp4287
g57
(g78
g59
NtRp4288
(dp4289
g62
(dp4290
g82
g83
ssg71
g4284
sg64
(lp4291
S'Cache-Control'
p4292
asbag57
(g78
g59
NtRp4293
(dp4294
g62
(dp4295
g89
g90
ssg71
g4284
sg64
(lp4296
S':'
asbag57
(g78
g59
NtRp4297
(dp4298
g62
(dp4299
sg71
g4284
sg64
(lp4300
g57
(g58
g59
NtRp4301
(dp4302
g62
(dp4303
g70
I4
ssg71
g4297
sg64
(lp4304
S'no-store, no-cache, must-revalidate, post-check=0, pre-check=0'
p4305
asbasbasbag57
(g73
g59
NtRp4306
(dp4307
g62
(dp4308
sg71
g4280
sg64
(lp4309
g57
(g78
g59
NtRp4310
(dp4311
g62
(dp4312
g82
g83
ssg71
g4306
sg64
(lp4313
S'Content-Type'
p4314
asbag57
(g78
g59
NtRp4315
(dp4316
g62
(dp4317
g89
g90
ssg71
g4306
sg64
(lp4318
S':'
asbag57
(g78
g59
NtRp4319
(dp4320
g62
(dp4321
sg71
g4306
sg64
(lp4322
g57
(g58
g59
NtRp4323
(dp4324
g62
(dp4325
g70
I4
ssg71
g4319
sg64
(lp4326
S'text/html; charset=utf-8'
p4327
asbasbasbag57
(g73
g59
NtRp4328
(dp4329
g62
(dp4330
sg71
g4280
sg64
(lp4331
g57
(g78
g59
NtRp4332
(dp4333
g62
(dp4334
g82
g83
ssg71
g4328
sg64
(lp4335
S'Expires'
p4336
asbag57
(g78
g59
NtRp4337
(dp4338
g62
(dp4339
g89
g90
ssg71
g4328
sg64
(lp4340
S':'
asbag57
(g78
g59
NtRp4341
(dp4342
g62
(dp4343
sg71
g4328
sg64
(lp4344
g57
(g58
g59
NtRp4345
(dp4346
g62
(dp4347
g70
I4
ssg71
g4341
sg64
(lp4348
S'Mon, 30 Jul 2012 18:57:07 GMT'
p4349
asbasbasbag57
(g73
g59
NtRp4350
(dp4351
g62
(dp4352
sg71
g4280
sg64
(lp4353
g57
(g78
g59
NtRp4354
(dp4355
g62
(dp4356
g82
g83
ssg71
g4350
sg64
(lp4357
S'Pragma'
p4358
asbag57
(g78
g59
NtRp4359
(dp4360
g62
(dp4361
g89
g90
ssg71
g4350
sg64
(lp4362
S':'
asbag57
(g78
g59
NtRp4363
(dp4364
g62
(dp4365
sg71
g4350
sg64
(lp4366
g57
(g58
g59
NtRp4367
(dp4368
g62
(dp4369
g70
I4
ssg71
g4363
sg64
(lp4370
S'no-cache'
p4371
asbasbasbag57
(g73
g59
NtRp4372
(dp4373
g62
(dp4374
sg71
g4280
sg64
(lp4375
g57
(g78
g59
NtRp4376
(dp4377
g62
(dp4378
g82
g83
ssg71
g4372
sg64
(lp4379
S'X-Powered-By'
p4380
asbag57
(g78
g59
NtRp4381
(dp4382
g62
(dp4383
g89
g90
ssg71
g4372
sg64
(lp4384
S':'
asbag57
(g78
g59
NtRp4385
(dp4386
g62
(dp4387
sg71
g4372
sg64
(lp4388
g57
(g58
g59
NtRp4389
(dp4390
g62
(dp4391
g70
I4
ssg71
g4385
sg64
(lp4392
S'web2py'
p4393
asbasbasbasbasbasbasbag57
(g73
g59
NtRp4394
(dp4395
g62
(dp4396
sg71
g3891
sg64
(lp4397
g57
(g78
g59
NtRp4398
(dp4399
g62
(dp4400
g82
g83
ssg71
g4394
sg64
(lp4401
S'menu'
p4402
asbag57
(g78
g59
NtRp4403
(dp4404
g62
(dp4405
g89
g90
ssg71
g4394
sg64
(lp4406
S':'
asbag57
(g78
g59
NtRp4407
(dp4408
g62
(dp4409
sg71
g4394
sg64
(lp4410
g57
(g58
g59
NtRp4411
(dp4412
g62
(dp4413
g70
I5
ssg71
g4407
sg64
(lp4414
g57
(g66
g59
NtRp4415
(dp4416
g62
(dp4417
g70
I4
ssg71
Nsg64
(lp4418
g57
(g73
g59
NtRp4419
(dp4420
g62
(dp4421
sg71
g4415
sg64
(lp4422
g57
(g78
g59
NtRp4423
(dp4424
g62
(dp4425
sg71
g4419
sg64
(lp4426
g57
(g58
g59
NtRp4427
(dp4428
g62
(dp4429
g70
I4
ssg71
g4423
sg64
(lp4430
g57
(g66
g59
NtRp4431
(dp4432
g62
(dp4433
g70
I3
ssg71
Nsg64
(lp4434
g57
(g73
g59
NtRp4435
(dp4436
g62
(dp4437
sg71
g4431
sg64
(lp4438
g57
(g78
g59
NtRp4439
(dp4440
g62
(dp4441
sg71
g4435
sg64
(lp4442
g57
(g58
g59
NtRp4443
(dp4444
g62
(dp4445
g70
I3
ssg71
g4439
sg64
(lp4446
cgluon.languages
lazyT_unpickle
p4447
(S's\x04\x00\x00\x00Home'
tRp4448
asbasbasbag57
(g73
g59
NtRp4449
(dp4450
g62
(dp4451
sg71
g4431
sg64
(lp4452
g57
(g78
g59
NtRp4453
(dp4454
g62
(dp4455
sg71
g4449
sg64
(lp4456
g57
(g58
g59
NtRp4457
(dp4458
g62
(dp4459
g70
I3
ssg71
g4453
sg64
(lp4460
g100
asbasbasbag57
(g73
g59
NtRp4461
(dp4462
g62
(dp4463
sg71
g4431
sg64
(lp4464
g57
(g78
g59
NtRp4465
(dp4466
g62
(dp4467
sg71
g4461
sg64
(lp4468
g57
(g58
g59
NtRp4469
(dp4470
g62
(dp4471
g70
I3
ssg71
g4465
sg64
(lp4472
S'/GPIBHWS/default/index'
p4473
asbasbasbag57
(g73
g59
NtRp4474
(dp4475
g62
(dp4476
sg71
g4431
sg64
(lp4477
g57
(g78
g59
NtRp4478
(dp4479
g62
(dp4480
sg71
g4474
sg64
(lp4481
g57
(g58
g59
NtRp4482
(dp4483
g62
(dp4484
g70
I3
ssg71
g4478
sg64
(lp4485
g57
(g66
g59
NtRp4486
(dp4487
g62
(dp4488
g70
I2
ssg71
Nsg64
(lp4489
sbasbasbasbasbasbasbasbag57
(g73
g59
NtRp4490
(dp4491
g62
(dp4492
sg71
g4415
sg64
(lp4493
g57
(g78
g59
NtRp4494
(dp4495
g62
(dp4496
sg71
g4490
sg64
(lp4497
g57
(g58
g59
NtRp4498
(dp4499
g62
(dp4500
g70
I4
ssg71
g4494
sg64
(lp4501
g57
(g66
g59
NtRp4502
(dp4503
g62
(dp4504
g70
I3
ssg71
Nsg64
(lp4505
g57
(g73
g59
NtRp4506
(dp4507
g62
(dp4508
sg71
g4502
sg64
(lp4509
g57
(g78
g59
NtRp4510
(dp4511
g62
(dp4512
sg71
g4506
sg64
(lp4513
g57
(g58
g59
NtRp4514
(dp4515
g62
(dp4516
g70
I3
ssg71
g4510
sg64
(lp4517
g57
(cgluon.html
SPAN
p4518
g59
NtRp4519
(dp4520
g62
(dp4521
g82
S'color:yellow'
p4522
ssg71
Nsg64
(lp4523
g4393
asbasbasbasbag57
(g73
g59
NtRp4524
(dp4525
g62
(dp4526
sg71
g4502
sg64
(lp4527
g57
(g78
g59
NtRp4528
(dp4529
g62
(dp4530
sg71
g4524
sg64
(lp4531
g57
(g58
g59
NtRp4532
(dp4533
g62
(dp4534
g70
I3
ssg71
g4528
sg64
(lp4535
g100
asbasbasbag57
(g73
g59
NtRp4536
(dp4537
g62
(dp4538
sg71
g4502
sg64
(lp4539
g57
(g78
g59
NtRp4540
(dp4541
g62
(dp4542
sg71
g4536
sg64
(lp4543
g57
(g58
g59
NtRp4544
(dp4545
g62
(dp4546
g70
I3
ssg71
g4540
sg64
(lp4547
S'None'
p4548
asbasbasbag57
(g73
g59
NtRp4549
(dp4550
g62
(dp4551
sg71
g4502
sg64
(lp4552
g57
(g78
g59
NtRp4553
(dp4554
g62
(dp4555
sg71
g4549
sg64
(lp4556
g57
(g58
g59
NtRp4557
(dp4558
g62
(dp4559
g70
I3
ssg71
g4553
sg64
(lp4560
g57
(g66
g59
NtRp4561
(dp4562
g62
(dp4563
g70
I2
ssg71
Nsg64
(lp4564
g57
(g73
g59
NtRp4565
(dp4566
g62
(dp4567
sg71
g4561
sg64
(lp4568
g57
(g78
g59
NtRp4569
(dp4570
g62
(dp4571
sg71
g4565
sg64
(lp4572
g57
(g58
g59
NtRp4573
(dp4574
g62
(dp4575
g70
I2
ssg71
g4569
sg64
(lp4576
g57
(g66
g59
NtRp4577
(dp4578
g62
(dp4579
g70
I1
ssg71
Nsg64
(lp4580
g57
(g73
g59
NtRp4581
(dp4582
g62
(dp4583
sg71
g4577
sg64
(lp4584
g57
(g78
g59
NtRp4585
(dp4586
g62
(dp4587
sg71
g4581
sg64
(lp4588
g57
(g58
g59
NtRp4589
(dp4590
g62
(dp4591
g70
I1
ssg71
g4585
sg64
(lp4592
g4447
(S's\x08\x00\x00\x00My Sites'
tRp4593
asbasbasbag57
(g73
g59
NtRp4594
(dp4595
g62
(dp4596
sg71
g4577
sg64
(lp4597
g57
(g78
g59
NtRp4598
(dp4599
g62
(dp4600
sg71
g4594
sg64
(lp4601
g57
(g58
g59
NtRp4602
(dp4603
g62
(dp4604
g70
I1
ssg71
g4598
sg64
(lp4605
I00
asbasbasbag57
(g73
g59
NtRp4606
(dp4607
g62
(dp4608
sg71
g4577
sg64
(lp4609
g57
(g78
g59
NtRp4610
(dp4611
g62
(dp4612
sg71
g4606
sg64
(lp4613
g57
(g58
g59
NtRp4614
(dp4615
g62
(dp4616
g70
I1
ssg71
g4610
sg64
(lp4617
S'/admin/default/site'
p4618
asbasbasbasbasbasbasbag57
(g73
g59
NtRp4619
(dp4620
g62
(dp4621
sg71
g4561
sg64
(lp4622
g57
(g78
g59
NtRp4623
(dp4624
g62
(dp4625
sg71
g4619
sg64
(lp4626
g57
(g58
g59
NtRp4627
(dp4628
g62
(dp4629
g70
I2
ssg71
g4623
sg64
(lp4630
g57
(g66
g59
NtRp4631
(dp4632
g62
(dp4633
g70
I1
ssg71
Nsg64
(lp4634
g57
(g73
g59
NtRp4635
(dp4636
g62
(dp4637
sg71
g4631
sg64
(lp4638
g57
(g78
g59
NtRp4639
(dp4640
g62
(dp4641
sg71
g4635
sg64
(lp4642
g57
(g58
g59
NtRp4643
(dp4644
g62
(dp4645
g70
I1
ssg71
g4639
sg64
(lp4646
g4447
(S's\x08\x00\x00\x00This App'
tRp4647
asbasbasbag57
(g73
g59
NtRp4648
(dp4649
g62
(dp4650
sg71
g4631
sg64
(lp4651
g57
(g78
g59
NtRp4652
(dp4653
g62
(dp4654
sg71
g4648
sg64
(lp4655
g57
(g58
g59
NtRp4656
(dp4657
g62
(dp4658
g70
I1
ssg71
g4652
sg64
(lp4659
I00
asbasbasbag57
(g73
g59
NtRp4660
(dp4661
g62
(dp4662
sg71
g4631
sg64
(lp4663
g57
(g78
g59
NtRp4664
(dp4665
g62
(dp4666
sg71
g4660
sg64
(lp4667
g57
(g58
g59
NtRp4668
(dp4669
g62
(dp4670
g70
I1
ssg71
g4664
sg64
(lp4671
S'/admin/default/design/GPIBHWS'
p4672
asbasbasbag57
(g73
g59
NtRp4673
(dp4674
g62
(dp4675
sg71
g4631
sg64
(lp4676
g57
(g78
g59
NtRp4677
(dp4678
g62
(dp4679
sg71
g4673
sg64
(lp4680
g57
(g58
g59
NtRp4681
(dp4682
g62
(dp4683
g70
I1
ssg71
g4677
sg64
(lp4684
(lp4685
(g4447
(S's\n\x00\x00\x00Controller'
tRp4686
I00
S'/admin/default/edit/GPIBHWS/controllers/default.py'
tp4687
a(g4447
(S's\x04\x00\x00\x00View'
tRp4688
I00
S'/admin/default/edit/GPIBHWS/views/default/calc_sweep_time.html'
tp4689
a(g4447
(S's\x06\x00\x00\x00Layout'
tRp4690
I00
S'/admin/default/edit/GPIBHWS/views/layout.html'
tp4691
a(g4447
(S's\n\x00\x00\x00Stylesheet'
tRp4692
I00
S'/admin/default/edit/GPIBHWS/static/css/web2py.css'
tp4693
a(g4447
(S's\x08\x00\x00\x00DB Model'
tRp4694
I00
S'/admin/default/edit/GPIBHWS/models/db.py'
tp4695
a(g4447
(S's\n\x00\x00\x00Menu Model'
tRp4696
I00
S'/admin/default/edit/GPIBHWS/models/menu.py'
tp4697
a(g4447
(S's\x08\x00\x00\x00Database'
tRp4698
I00
S'/GPIBHWS/appadmin/index'
tp4699
a(g4447
(S's\x06\x00\x00\x00Errors'
tRp4700
I00
S'/admin/default/errors/GPIBHWS'
tp4701
a(g4447
(S's\x05\x00\x00\x00About'
tRp4702
I00
S'/admin/default/about/GPIBHWS'
tp4703
aasbasbasbasbasbasbasbag57
(g73
g59
NtRp4704
(dp4705
g62
(dp4706
sg71
g4561
sg64
(lp4707
g57
(g78
g59
NtRp4708
(dp4709
g62
(dp4710
sg71
g4704
sg64
(lp4711
g57
(g58
g59
NtRp4712
(dp4713
g62
(dp4714
g70
I2
ssg71
g4708
sg64
(lp4715
g57
(g66
g59
NtRp4716
(dp4717
g62
(dp4718
g70
I1
ssg71
Nsg64
(lp4719
g57
(g73
g59
NtRp4720
(dp4721
g62
(dp4722
sg71
g4716
sg64
(lp4723
g57
(g78
g59
NtRp4724
(dp4725
g62
(dp4726
sg71
g4720
sg64
(lp4727
g57
(g58
g59
NtRp4728
(dp4729
g62
(dp4730
g70
I1
ssg71
g4724
sg64
(lp4731
S'web2py.com'
p4732
asbasbasbag57
(g73
g59
NtRp4733
(dp4734
g62
(dp4735
sg71
g4716
sg64
(lp4736
g57
(g78
g59
NtRp4737
(dp4738
g62
(dp4739
sg71
g4733
sg64
(lp4740
g57
(g58
g59
NtRp4741
(dp4742
g62
(dp4743
g70
I1
ssg71
g4737
sg64
(lp4744
I00
asbasbasbag57
(g73
g59
NtRp4745
(dp4746
g62
(dp4747
sg71
g4716
sg64
(lp4748
g57
(g78
g59
NtRp4749
(dp4750
g62
(dp4751
sg71
g4745
sg64
(lp4752
g57
(g58
g59
NtRp4753
(dp4754
g62
(dp4755
g70
I1
ssg71
g4749
sg64
(lp4756
S'http://www.web2py.com'
p4757
asbasbasbag57
(g73
g59
NtRp4758
(dp4759
g62
(dp4760
sg71
g4716
sg64
(lp4761
g57
(g78
g59
NtRp4762
(dp4763
g62
(dp4764
sg71
g4758
sg64
(lp4765
g57
(g58
g59
NtRp4766
(dp4767
g62
(dp4768
g70
I1
ssg71
g4762
sg64
(lp4769
(lp4770
(g4447
(S's\x08\x00\x00\x00Download'
tRp4771
I00
S'http://www.web2py.com/examples/default/download'
p4772
tp4773
a(g4447
(S's\x07\x00\x00\x00Support'
tRp4774
I00
S'http://www.web2py.com/examples/default/support'
p4775
tp4776
a(g4447
(S's\x04\x00\x00\x00Demo'
tRp4777
I00
S'http://web2py.com/demo_admin'
p4778
tp4779
a(g4447
(S's\x0e\x00\x00\x00Quick Examples'
tRp4780
I00
S'http://web2py.com/examples/default/examples'
p4781
tp4782
a(g4447
(S's\x03\x00\x00\x00FAQ'
tRp4783
I00
S'http://web2py.com/AlterEgo'
p4784
tp4785
a(g4447
(S's\x06\x00\x00\x00Videos'
tRp4786
I00
S'http://www.web2py.com/examples/default/videos/'
p4787
tp4788
a(g4447
(S's\x11\x00\x00\x00Free Applications'
tRp4789
I00
S'http://web2py.com/appliances'
p4790
tp4791
a(g4447
(S's\x07\x00\x00\x00Plugins'
tRp4792
I00
S'http://web2py.com/plugins'
p4793
tp4794
a(g4447
(S's\x07\x00\x00\x00Layouts'
tRp4795
I00
S'http://web2py.com/layouts'
p4796
tp4797
a(g4447
(S's\x07\x00\x00\x00Recipes'
tRp4798
I00
S'http://web2pyslices.com/'
p4799
tp4800
a(g4447
(S's\x08\x00\x00\x00Semantic'
tRp4801
I00
S'http://web2py.com/semantic'
p4802
tp4803
aasbasbasbasbasbasbasbag57
(g73
g59
NtRp4804
(dp4805
g62
(dp4806
sg71
g4561
sg64
(lp4807
g57
(g78
g59
NtRp4808
(dp4809
g62
(dp4810
sg71
g4804
sg64
(lp4811
g57
(g58
g59
NtRp4812
(dp4813
g62
(dp4814
g70
I2
ssg71
g4808
sg64
(lp4815
g57
(g66
g59
NtRp4816
(dp4817
g62
(dp4818
g70
I1
ssg71
Nsg64
(lp4819
g57
(g73
g59
NtRp4820
(dp4821
g62
(dp4822
sg71
g4816
sg64
(lp4823
g57
(g78
g59
NtRp4824
(dp4825
g62
(dp4826
sg71
g4820
sg64
(lp4827
g57
(g58
g59
NtRp4828
(dp4829
g62
(dp4830
g70
I1
ssg71
g4824
sg64
(lp4831
g4447
(S's\r\x00\x00\x00Documentation'
tRp4832
asbasbasbag57
(g73
g59
NtRp4833
(dp4834
g62
(dp4835
sg71
g4816
sg64
(lp4836
g57
(g78
g59
NtRp4837
(dp4838
g62
(dp4839
sg71
g4833
sg64
(lp4840
g57
(g58
g59
NtRp4841
(dp4842
g62
(dp4843
g70
I1
ssg71
g4837
sg64
(lp4844
I00
asbasbasbag57
(g73
g59
NtRp4845
(dp4846
g62
(dp4847
sg71
g4816
sg64
(lp4848
g57
(g78
g59
NtRp4849
(dp4850
g62
(dp4851
sg71
g4845
sg64
(lp4852
g57
(g58
g59
NtRp4853
(dp4854
g62
(dp4855
g70
I1
ssg71
g4849
sg64
(lp4856
S'http://www.web2py.com/book'
p4857
asbasbasbag57
(g73
g59
NtRp4858
(dp4859
g62
(dp4860
sg71
g4816
sg64
(lp4861
g57
(g78
g59
NtRp4862
(dp4863
g62
(dp4864
sg71
g4858
sg64
(lp4865
g57
(g58
g59
NtRp4866
(dp4867
g62
(dp4868
g70
I1
ssg71
g4862
sg64
(lp4869
(lp4870
(g4447
(S's\x07\x00\x00\x00Preface'
tRp4871
I00
S'http://www.web2py.com/book/default/chapter/00'
p4872
tp4873
a(g4447
(S's\x0c\x00\x00\x00Introduction'
tRp4874
I00
S'http://www.web2py.com/book/default/chapter/01'
p4875
tp4876
a(g4447
(S's\x06\x00\x00\x00Python'
tRp4877
I00
S'http://www.web2py.com/book/default/chapter/02'
p4878
tp4879
a(g4447
(S's\x08\x00\x00\x00Overview'
tRp4880
I00
S'http://www.web2py.com/book/default/chapter/03'
p4881
tp4882
a(g4447
(S's\x08\x00\x00\x00The Core'
tRp4883
I00
S'http://www.web2py.com/book/default/chapter/04'
p4884
tp4885
a(g4447
(S's\t\x00\x00\x00The Views'
tRp4886
I00
S'http://www.web2py.com/book/default/chapter/05'
p4887
tp4888
a(g4447
(S's\x08\x00\x00\x00Database'
tRp4889
I00
S'http://www.web2py.com/book/default/chapter/06'
p4890
tp4891
a(g4447
(S's\x14\x00\x00\x00Forms and Validators'
tRp4892
I00
S'http://www.web2py.com/book/default/chapter/07'
p4893
tp4894
a(g4447
(S's\r\x00\x00\x00Email and SMS'
tRp4895
I00
S'http://www.web2py.com/book/default/chapter/08'
p4896
tp4897
a(g4447
(S's\x0e\x00\x00\x00Access Control'
tRp4898
I00
S'http://www.web2py.com/book/default/chapter/09'
p4899
tp4900
a(g4447
(S's\x08\x00\x00\x00Services'
tRp4901
I00
S'http://www.web2py.com/book/default/chapter/10'
p4902
tp4903
a(g4447
(S's\x0c\x00\x00\x00Ajax Recipes'
tRp4904
I00
S'http://www.web2py.com/book/default/chapter/11'
p4905
tp4906
a(g4447
(S's\x16\x00\x00\x00Components and Plugins'
tRp4907
I00
S'http://www.web2py.com/book/default/chapter/12'
p4908
tp4909
a(g4447
(S's\x12\x00\x00\x00Deployment Recipes'
tRp4910
I00
S'http://www.web2py.com/book/default/chapter/13'
p4911
tp4912
a(g4447
(S's\r\x00\x00\x00Other Recipes'
tRp4913
I00
S'http://www.web2py.com/book/default/chapter/14'
p4914
tp4915
a(g4447
(S's\r\x00\x00\x00Buy this book'
tRp4916
I00
S'http://stores.lulu.com/web2py'
p4917
tp4918
aasbasbasbasbasbasbasbag57
(g73
g59
NtRp4919
(dp4920
g62
(dp4921
sg71
g4561
sg64
(lp4922
g57
(g78
g59
NtRp4923
(dp4924
g62
(dp4925
sg71
g4919
sg64
(lp4926
g57
(g58
g59
NtRp4927
(dp4928
g62
(dp4929
g70
I2
ssg71
g4923
sg64
(lp4930
g57
(g66
g59
NtRp4931
(dp4932
g62
(dp4933
g70
I1
ssg71
Nsg64
(lp4934
g57
(g73
g59
NtRp4935
(dp4936
g62
(dp4937
sg71
g4931
sg64
(lp4938
g57
(g78
g59
NtRp4939
(dp4940
g62
(dp4941
sg71
g4935
sg64
(lp4942
g57
(g58
g59
NtRp4943
(dp4944
g62
(dp4945
g70
I1
ssg71
g4939
sg64
(lp4946
g4447
(S's\t\x00\x00\x00Community'
tRp4947
asbasbasbag57
(g73
g59
NtRp4948
(dp4949
g62
(dp4950
sg71
g4931
sg64
(lp4951
g57
(g78
g59
NtRp4952
(dp4953
g62
(dp4954
sg71
g4948
sg64
(lp4955
g57
(g58
g59
NtRp4956
(dp4957
g62
(dp4958
g70
I1
ssg71
g4952
sg64
(lp4959
I00
asbasbasbag57
(g73
g59
NtRp4960
(dp4961
g62
(dp4962
sg71
g4931
sg64
(lp4963
g57
(g78
g59
NtRp4964
(dp4965
g62
(dp4966
sg71
g4960
sg64
(lp4967
g57
(g58
g59
NtRp4968
(dp4969
g62
(dp4970
g70
I1
ssg71
g4964
sg64
(lp4971
Nasbasbasbag57
(g73
g59
NtRp4972
(dp4973
g62
(dp4974
sg71
g4931
sg64
(lp4975
g57
(g78
g59
NtRp4976
(dp4977
g62
(dp4978
sg71
g4972
sg64
(lp4979
g57
(g58
g59
NtRp4980
(dp4981
g62
(dp4982
g70
I1
ssg71
g4976
sg64
(lp4983
(lp4984
(g4447
(S's\x06\x00\x00\x00Groups'
tRp4985
I00
S'http://www.web2py.com/examples/default/usergroups'
p4986
tp4987
a(g4447
(S's\x07\x00\x00\x00Twitter'
tRp4988
I00
S'http://twitter.com/web2py'
p4989
tp4990
a(g4447
(S's\t\x00\x00\x00Live Chat'
tRp4991
I00
S'http://webchat.freenode.net/?channels=web2py'
p4992
tp4993
aasbasbasbasbasbasbasbag57
(g73
g59
NtRp4994
(dp4995
g62
(dp4996
sg71
g4561
sg64
(lp4997
g57
(g78
g59
NtRp4998
(dp4999
g62
(dp5000
sg71
g4994
sg64
(lp5001
g57
(g58
g59
NtRp5002
(dp5003
g62
(dp5004
g70
I2
ssg71
g4998
sg64
(lp5005
g57
(g66
g59
NtRp5006
(dp5007
g62
(dp5008
g70
I1
ssg71
Nsg64
(lp5009
g57
(g73
g59
NtRp5010
(dp5011
g62
(dp5012
sg71
g5006
sg64
(lp5013
g57
(g78
g59
NtRp5014
(dp5015
g62
(dp5016
sg71
g5010
sg64
(lp5017
g57
(g58
g59
NtRp5018
(dp5019
g62
(dp5020
g70
I1
ssg71
g5014
sg64
(lp5021
g4447
(S's\x07\x00\x00\x00Plugins'
tRp5022
asbasbasbag57
(g73
g59
NtRp5023
(dp5024
g62
(dp5025
sg71
g5006
sg64
(lp5026
g57
(g78
g59
NtRp5027
(dp5028
g62
(dp5029
sg71
g5023
sg64
(lp5030
g57
(g58
g59
NtRp5031
(dp5032
g62
(dp5033
g70
I1
ssg71
g5027
sg64
(lp5034
I00
asbasbasbag57
(g73
g59
NtRp5035
(dp5036
g62
(dp5037
sg71
g5006
sg64
(lp5038
g57
(g78
g59
NtRp5039
(dp5040
g62
(dp5041
sg71
g5035
sg64
(lp5042
g57
(g58
g59
NtRp5043
(dp5044
g62
(dp5045
g70
I1
ssg71
g5039
sg64
(lp5046
Nasbasbasbag57
(g73
g59
NtRp5047
(dp5048
g62
(dp5049
sg71
g5006
sg64
(lp5050
g57
(g78
g59
NtRp5051
(dp5052
g62
(dp5053
sg71
g5047
sg64
(lp5054
g57
(g58
g59
NtRp5055
(dp5056
g62
(dp5057
g70
I1
ssg71
g5051
sg64
(lp5058
(lp5059
(S'plugin_wiki'
p5060
I00
S'http://web2py.com/examples/default/download'
p5061
tp5062
a(g4447
(S's\r\x00\x00\x00Other Plugins'
tRp5063
I00
g4793
tp5064
a(g4447
(S's\x0e\x00\x00\x00Layout Plugins'
tRp5065
I00
g4796
tp5066
aasbasbasbasbasbasbasbasbasbasbasbasbasbasbasbasbasbasbasbag57
(g73
g59
NtRp5067
(dp5068
g62
(dp5069
sg71
g3891
sg64
(lp5070
g57
(g78
g59
NtRp5071
(dp5072
g62
(dp5073
g82
g83
ssg71
g5067
sg64
(lp5074
S'meta'
p5075
asbag57
(g78
g59
NtRp5076
(dp5077
g62
(dp5078
g89
g90
ssg71
g5067
sg64
(lp5079
S':'
asbag57
(g78
g59
NtRp5080
(dp5081
g62
(dp5082
sg71
g5067
sg64
(lp5083
g57
(g58
g59
NtRp5084
(dp5085
g62
(dp5086
g70
I5
ssg71
g5080
sg64
(lp5087
g57
(g66
g59
NtRp5088
(dp5089
g62
(dp5090
g70
I4
ssg71
Nsg64
(lp5091
g57
(g73
g59
NtRp5092
(dp5093
g62
(dp5094
sg71
g5088
sg64
(lp5095
g57
(g78
g59
NtRp5096
(dp5097
g62
(dp5098
g82
g83
ssg71
g5092
sg64
(lp5099
S'author'
p5100
asbag57
(g78
g59
NtRp5101
(dp5102
g62
(dp5103
g89
g90
ssg71
g5092
sg64
(lp5104
S':'
asbag57
(g78
g59
NtRp5105
(dp5106
g62
(dp5107
sg71
g5092
sg64
(lp5108
g57
(g58
g59
NtRp5109
(dp5110
g62
(dp5111
g70
I4
ssg71
g5105
sg64
(lp5112
S'Your Name <you@example.com>'
p5113
asbasbasbag57
(g73
g59
NtRp5114
(dp5115
g62
(dp5116
sg71
g5088
sg64
(lp5117
g57
(g78
g59
NtRp5118
(dp5119
g62
(dp5120
g82
g83
ssg71
g5114
sg64
(lp5121
S'copyright'
p5122
asbag57
(g78
g59
NtRp5123
(dp5124
g62
(dp5125
g89
g90
ssg71
g5114
sg64
(lp5126
S':'
asbag57
(g78
g59
NtRp5127
(dp5128
g62
(dp5129
sg71
g5114
sg64
(lp5130
g57
(g58
g59
NtRp5131
(dp5132
g62
(dp5133
g70
I4
ssg71
g5127
sg64
(lp5134
S'Copyright 2011'
p5135
asbasbasbag57
(g73
g59
NtRp5136
(dp5137
g62
(dp5138
sg71
g5088
sg64
(lp5139
g57
(g78
g59
NtRp5140
(dp5141
g62
(dp5142
g82
g83
ssg71
g5136
sg64
(lp5143
S'description'
p5144
asbag57
(g78
g59
NtRp5145
(dp5146
g62
(dp5147
g89
g90
ssg71
g5136
sg64
(lp5148
S':'
asbag57
(g78
g59
NtRp5149
(dp5150
g62
(dp5151
sg71
g5136
sg64
(lp5152
g57
(g58
g59
NtRp5153
(dp5154
g62
(dp5155
g70
I4
ssg71
g5149
sg64
(lp5156
S'a cool new app'
p5157
asbasbasbag57
(g73
g59
NtRp5158
(dp5159
g62
(dp5160
sg71
g5088
sg64
(lp5161
g57
(g78
g59
NtRp5162
(dp5163
g62
(dp5164
g82
g83
ssg71
g5158
sg64
(lp5165
S'generator'
p5166
asbag57
(g78
g59
NtRp5167
(dp5168
g62
(dp5169
g89
g90
ssg71
g5158
sg64
(lp5170
S':'
asbag57
(g78
g59
NtRp5171
(dp5172
g62
(dp5173
sg71
g5158
sg64
(lp5174
g57
(g58
g59
NtRp5175
(dp5176
g62
(dp5177
g70
I4
ssg71
g5171
sg64
(lp5178
S'Web2py Web Framework'
p5179
asbasbasbag57
(g73
g59
NtRp5180
(dp5181
g62
(dp5182
sg71
g5088
sg64
(lp5183
g57
(g78
g59
NtRp5184
(dp5185
g62
(dp5186
g82
g83
ssg71
g5180
sg64
(lp5187
S'keywords'
p5188
asbag57
(g78
g59
NtRp5189
(dp5190
g62
(dp5191
g89
g90
ssg71
g5180
sg64
(lp5192
S':'
asbag57
(g78
g59
NtRp5193
(dp5194
g62
(dp5195
sg71
g5180
sg64
(lp5196
g57
(g58
g59
NtRp5197
(dp5198
g62
(dp5199
g70
I4
ssg71
g5193
sg64
(lp5200
S'web2py, python, framework'
p5201
asbasbasbasbasbasbasbag57
(g73
g59
NtRp5202
(dp5203
g62
(dp5204
sg71
g3891
sg64
(lp5205
g57
(g78
g59
NtRp5206
(dp5207
g62
(dp5208
g82
g83
ssg71
g5202
sg64
(lp5209
S'postprocessing'
p5210
asbag57
(g78
g59
NtRp5211
(dp5212
g62
(dp5213
g89
g90
ssg71
g5202
sg64
(lp5214
S':'
asbag57
(g78
g59
NtRp5215
(dp5216
g62
(dp5217
sg71
g5202
sg64
(lp5218
g57
(g58
g59
NtRp5219
(dp5220
g62
(dp5221
g70
I5
ssg71
g5215
sg64
(lp5222
g57
(g66
g59
NtRp5223
(dp5224
g62
(dp5225
g70
I4
ssg71
Nsg64
(lp5226
sbasbasbasbag57
(g73
g59
NtRp5227
(dp5228
g62
(dp5229
sg71
g3891
sg64
(lp5230
g57
(g78
g59
NtRp5231
(dp5232
g62
(dp5233
g82
g83
ssg71
g5227
sg64
(lp5234
S'session_file'
p5235
asbag57
(g78
g59
NtRp5236
(dp5237
g62
(dp5238
g89
g90
ssg71
g5227
sg64
(lp5239
S':'
asbag57
(g78
g59
NtRp5240
(dp5241
g62
(dp5242
sg71
g5227
sg64
(lp5243
g57
(g58
g59
NtRp5244
(dp5245
g62
(dp5246
g70
I5
ssg71
g5240
sg64
(lp5247
S"<open file '/web2pyTrunk/applications/GPIBHWS/sessions/127.0.0.1-6f11aa51-d759-4ec6-a0c2-b8d4140bb744', mode 'rb+' at 0x19eb8c28>"
p5248
asbasbasbag57
(g73
g59
NtRp5249
(dp5250
g62
(dp5251
sg71
g3891
sg64
(lp5252
g57
(g78
g59
NtRp5253
(dp5254
g62
(dp5255
g82
g83
ssg71
g5249
sg64
(lp5256
S'session_filename'
p5257
asbag57
(g78
g59
NtRp5258
(dp5259
g62
(dp5260
g89
g90
ssg71
g5249
sg64
(lp5261
S':'
asbag57
(g78
g59
NtRp5262
(dp5263
g62
(dp5264
sg71
g5249
sg64
(lp5265
g57
(g58
g59
NtRp5266
(dp5267
g62
(dp5268
g70
I5
ssg71
g5262
sg64
(lp5269
S'/web2pyTrunk/applications/GPIBHWS/sessions/127.0.0.1-6f11aa51-d759-4ec6-a0c2-b8d4140bb744'
p5270
asbasbasbag57
(g73
g59
NtRp5271
(dp5272
g62
(dp5273
sg71
g3891
sg64
(lp5274
g57
(g78
g59
NtRp5275
(dp5276
g62
(dp5277
g82
g83
ssg71
g5271
sg64
(lp5278
S'session_id'
p5279
asbag57
(g78
g59
NtRp5280
(dp5281
g62
(dp5282
g89
g90
ssg71
g5271
sg64
(lp5283
S':'
asbag57
(g78
g59
NtRp5284
(dp5285
g62
(dp5286
sg71
g5271
sg64
(lp5287
g57
(g58
g59
NtRp5288
(dp5289
g62
(dp5290
g70
I5
ssg71
g5284
sg64
(lp5291
g825
asbasbasbag57
(g73
g59
NtRp5292
(dp5293
g62
(dp5294
sg71
g3891
sg64
(lp5295
g57
(g78
g59
NtRp5296
(dp5297
g62
(dp5298
g82
g83
ssg71
g5292
sg64
(lp5299
S'session_id_name'
p5300
asbag57
(g78
g59
NtRp5301
(dp5302
g62
(dp5303
g89
g90
ssg71
g5292
sg64
(lp5304
S':'
asbag57
(g78
g59
NtRp5305
(dp5306
g62
(dp5307
sg71
g5292
sg64
(lp5308
g57
(g58
g59
NtRp5309
(dp5310
g62
(dp5311
g70
I5
ssg71
g5305
sg64
(lp5312
g3948
asbasbasbag57
(g73
g59
NtRp5313
(dp5314
g62
(dp5315
sg71
g3891
sg64
(lp5316
g57
(g78
g59
NtRp5317
(dp5318
g62
(dp5319
g82
g83
ssg71
g5313
sg64
(lp5320
S'session_locked'
p5321
asbag57
(g78
g59
NtRp5322
(dp5323
g62
(dp5324
g89
g90
ssg71
g5313
sg64
(lp5325
S':'
asbag57
(g78
g59
NtRp5326
(dp5327
g62
(dp5328
sg71
g5313
sg64
(lp5329
g57
(g58
g59
NtRp5330
(dp5331
g62
(dp5332
g70
I5
ssg71
g5326
sg64
(lp5333
g2424
asbasbasbag57
(g73
g59
NtRp5334
(dp5335
g62
(dp5336
sg71
g3891
sg64
(lp5337
g57
(g78
g59
NtRp5338
(dp5339
g62
(dp5340
g82
g83
ssg71
g5334
sg64
(lp5341
S'session_new'
p5342
asbag57
(g78
g59
NtRp5343
(dp5344
g62
(dp5345
g89
g90
ssg71
g5334
sg64
(lp5346
S':'
asbag57
(g78
g59
NtRp5347
(dp5348
g62
(dp5349
sg71
g5334
sg64
(lp5350
g57
(g58
g59
NtRp5351
(dp5352
g62
(dp5353
g70
I5
ssg71
g5347
sg64
(lp5354
g100
asbasbasbag57
(g73
g59
NtRp5355
(dp5356
g62
(dp5357
sg71
g3891
sg64
(lp5358
g57
(g78
g59
NtRp5359
(dp5360
g62
(dp5361
g82
g83
ssg71
g5355
sg64
(lp5362
S'status'
p5363
asbag57
(g78
g59
NtRp5364
(dp5365
g62
(dp5366
g89
g90
ssg71
g5355
sg64
(lp5367
S':'
asbag57
(g78
g59
NtRp5368
(dp5369
g62
(dp5370
sg71
g5355
sg64
(lp5371
g57
(g58
g59
NtRp5372
(dp5373
g62
(dp5374
g70
I5
ssg71
g5368
sg64
(lp5375
S'200'
p5376
asbasbasbag57
(g73
g59
NtRp5377
(dp5378
g62
(dp5379
sg71
g3891
sg64
(lp5380
g57
(g78
g59
NtRp5381
(dp5382
g62
(dp5383
g82
g83
ssg71
g5377
sg64
(lp5384
S'subtitle'
p5385
asbag57
(g78
g59
NtRp5386
(dp5387
g62
(dp5388
g89
g90
ssg71
g5377
sg64
(lp5389
S':'
asbag57
(g78
g59
NtRp5390
(dp5391
g62
(dp5392
sg71
g5377
sg64
(lp5393
g57
(g58
g59
NtRp5394
(dp5395
g62
(dp5396
g70
I5
ssg71
g5390
sg64
(lp5397
g4447
(S's\r\x00\x00\x00customize me!'
tRp5398
asbasbasbag57
(g73
g59
NtRp5399
(dp5400
g62
(dp5401
sg71
g3891
sg64
(lp5402
g57
(g78
g59
NtRp5403
(dp5404
g62
(dp5405
g82
g83
ssg71
g5399
sg64
(lp5406
S'title'
p5407
asbag57
(g78
g59
NtRp5408
(dp5409
g62
(dp5410
g89
g90
ssg71
g5399
sg64
(lp5411
S':'
asbag57
(g78
g59
NtRp5412
(dp5413
g62
(dp5414
sg71
g5399
sg64
(lp5415
g57
(g58
g59
NtRp5416
(dp5417
g62
(dp5418
g70
I5
ssg71
g5412
sg64
(lp5419
S'Gpibhws'
p5420
asbasbasbag57
(g73
g59
NtRp5421
(dp5422
g62
(dp5423
sg71
g3891
sg64
(lp5424
g57
(g78
g59
NtRp5425
(dp5426
g62
(dp5427
g82
g83
ssg71
g5421
sg64
(lp5428
g3087
asbag57
(g78
g59
NtRp5429
(dp5430
g62
(dp5431
g89
g90
ssg71
g5421
sg64
(lp5432
S':'
asbag57
(g78
g59
NtRp5433
(dp5434
g62
(dp5435
sg71
g5421
sg64
(lp5436
g57
(g58
g59
NtRp5437
(dp5438
g62
(dp5439
g70
I5
ssg71
g5433
sg64
(lp5440
g3100
asbasbasbag57
(g73
g59
NtRp5441
(dp5442
g62
(dp5443
sg71
g3891
sg64
(lp5444
g57
(g78
g59
NtRp5445
(dp5446
g62
(dp5447
g82
g83
ssg71
g5441
sg64
(lp5448
S'view'
p5449
asbag57
(g78
g59
NtRp5450
(dp5451
g62
(dp5452
g89
g90
ssg71
g5441
sg64
(lp5453
S':'
asbag57
(g78
g59
NtRp5454
(dp5455
g62
(dp5456
sg71
g5441
sg64
(lp5457
g57
(g58
g59
NtRp5458
(dp5459
g62
(dp5460
g70
I5
ssg71
g5454
sg64
(lp5461
S'default/calc_sweep_time.html'
p5462
asbasbasbasbasbsS'locals'
p5463
(dp5464
S'n_in'
p5465
S'None'
p5466
sS'm_runs'
p5467
S'None'
p5468
sS'SW_in'
p5469
S'None'
p5470
sS'FRS_in'
p5471
S'None'
p5472
sssS'traceback'
p5473
S'Traceback (most recent call last):\n  File "/web2pyTrunk/gluon/restricted.py", line 205, in restricted\n    exec ccode in environment\n  File "/web2pyTrunk/applications/GPIBHWS/controllers/default.py", line 700, in <module>\n  File "/web2pyTrunk/gluon/globals.py", line 182, in <lambda>\n    self._caller = lambda f: f()\n  File "/web2pyTrunk/applications/GPIBHWS/controllers/default.py", line 489, in calc_sweep_time\n    n_runs = float(n_in)\nTypeError: float() argument must be a string or a number\n'
p5474
s.